
Coffe_Maker_MKI.elf:     file format elf32-avr

Sections:
Idx Name          Size      VMA       LMA       File off  Algn
  0 .data         00000198  00800100  00005298  0000532c  2**0
                  CONTENTS, ALLOC, LOAD, DATA
  1 .text         00005298  00000000  00000000  00000094  2**1
                  CONTENTS, ALLOC, LOAD, READONLY, CODE
  2 .bss          000000fd  00800298  00800298  000054c4  2**0
                  ALLOC
  3 .stab         00000024  00000000  00000000  000054c4  2**2
                  CONTENTS, READONLY, DEBUGGING
  4 .stabstr      0000003b  00000000  00000000  000054e8  2**0
                  CONTENTS, READONLY, DEBUGGING
  5 .comment      0000005c  00000000  00000000  00005523  2**0
                  CONTENTS, READONLY
  6 .note.gnu.avr.deviceinfo 00000040  00000000  00000000  00005580  2**2
                  CONTENTS, READONLY
  7 .debug_aranges 00000b80  00000000  00000000  000055c0  2**3
                  CONTENTS, READONLY, DEBUGGING
  8 .debug_info   0000ed45  00000000  00000000  00006140  2**0
                  CONTENTS, READONLY, DEBUGGING
  9 .debug_abbrev 000049af  00000000  00000000  00014e85  2**0
                  CONTENTS, READONLY, DEBUGGING
 10 .debug_line   00012d5d  00000000  00000000  00019834  2**0
                  CONTENTS, READONLY, DEBUGGING
 11 .debug_frame  00001b50  00000000  00000000  0002c594  2**2
                  CONTENTS, READONLY, DEBUGGING
 12 .debug_str    00017cac  00000000  00000000  0002e0e4  2**0
                  CONTENTS, READONLY, DEBUGGING
 13 .debug_loc    00007738  00000000  00000000  00045d90  2**0
                  CONTENTS, READONLY, DEBUGGING
 14 .debug_ranges 00000b28  00000000  00000000  0004d4c8  2**0
                  CONTENTS, READONLY, DEBUGGING
 15 .debug_macro  000097cb  00000000  00000000  0004dff0  2**0
                  CONTENTS, READONLY, DEBUGGING

Disassembly of section .text:

00000000 <__vectors>:
       0:	bd c6       	rjmp	.+3450   	; 0xd7c <__ctors_end>
       2:	00 00       	nop
       4:	d8 c6       	rjmp	.+3504   	; 0xdb6 <__bad_interrupt>
       6:	00 00       	nop
       8:	d6 c6       	rjmp	.+3500   	; 0xdb6 <__bad_interrupt>
       a:	00 00       	nop
       c:	d4 c6       	rjmp	.+3496   	; 0xdb6 <__bad_interrupt>
       e:	00 00       	nop
      10:	d2 c6       	rjmp	.+3492   	; 0xdb6 <__bad_interrupt>
      12:	00 00       	nop
      14:	d0 c6       	rjmp	.+3488   	; 0xdb6 <__bad_interrupt>
      16:	00 00       	nop
      18:	ce c6       	rjmp	.+3484   	; 0xdb6 <__bad_interrupt>
      1a:	00 00       	nop
      1c:	cc c6       	rjmp	.+3480   	; 0xdb6 <__bad_interrupt>
      1e:	00 00       	nop
      20:	ca c6       	rjmp	.+3476   	; 0xdb6 <__bad_interrupt>
      22:	00 00       	nop
      24:	c8 c6       	rjmp	.+3472   	; 0xdb6 <__bad_interrupt>
      26:	00 00       	nop
      28:	c6 c6       	rjmp	.+3468   	; 0xdb6 <__bad_interrupt>
      2a:	00 00       	nop
      2c:	0c 94 34 22 	jmp	0x4468	; 0x4468 <__vector_11>
      30:	0c 94 dd 22 	jmp	0x45ba	; 0x45ba <__vector_12>
      34:	c0 c6       	rjmp	.+3456   	; 0xdb6 <__bad_interrupt>
      36:	00 00       	nop
      38:	be c6       	rjmp	.+3452   	; 0xdb6 <__bad_interrupt>
      3a:	00 00       	nop
      3c:	0c 94 66 09 	jmp	0x12cc	; 0x12cc <__vector_15>
      40:	0c 94 5c 09 	jmp	0x12b8	; 0x12b8 <__vector_16>
      44:	0c 94 52 09 	jmp	0x12a4	; 0x12a4 <__vector_17>
      48:	b6 c6       	rjmp	.+3436   	; 0xdb6 <__bad_interrupt>
      4a:	00 00       	nop
      4c:	0c 94 12 09 	jmp	0x1224	; 0x1224 <__vector_19>
      50:	b2 c6       	rjmp	.+3428   	; 0xdb6 <__bad_interrupt>
      52:	00 00       	nop
      54:	b0 c6       	rjmp	.+3424   	; 0xdb6 <__bad_interrupt>
      56:	00 00       	nop
      58:	ae c6       	rjmp	.+3420   	; 0xdb6 <__bad_interrupt>
      5a:	00 00       	nop
      5c:	0c 94 e3 09 	jmp	0x13c6	; 0x13c6 <__vector_23>
      60:	0c 94 a3 09 	jmp	0x1346	; 0x1346 <__vector_24>
      64:	a8 c6       	rjmp	.+3408   	; 0xdb6 <__bad_interrupt>
      66:	00 00       	nop
      68:	a6 c6       	rjmp	.+3404   	; 0xdb6 <__bad_interrupt>
      6a:	00 00       	nop
      6c:	a4 c6       	rjmp	.+3400   	; 0xdb6 <__bad_interrupt>
      6e:	00 00       	nop
      70:	a2 c6       	rjmp	.+3396   	; 0xdb6 <__bad_interrupt>
	...

00000074 <ProductString>:
      74:	1c 03 4c 00 55 00 46 00 41 00 20 00 43 00 44 00     ..L.U.F.A. .C.D.
      84:	43 00 20 00 44 00 65 00 6d 00 6f 00 00 00           C. .D.e.m.o...

00000092 <ManufacturerString>:
      92:	18 03 44 00 65 00 61 00 6e 00 20 00 43 00 61 00     ..D.e.a.n. .C.a.
      a2:	6d 00 65 00 72 00 61 00 00 00                       m.e.r.a...

000000ac <LanguageString>:
      ac:	04 03 09 04                                         ....

000000b0 <ConfigurationDescriptor>:
      b0:	09 02 3e 00 02 01 00 c0 32 09 04 00 00 01 02 02     ..>.....2.......
      c0:	01 00 05 24 00 10 01 04 24 02 06 05 24 06 00 01     ...$....$...$...
      d0:	07 05 82 03 08 00 ff 09 04 01 00 02 0a 00 00 00     ................
      e0:	07 05 04 02 10 00 05 07 05 83 02 10 00 05           ..............

000000ee <DeviceDescriptor>:
      ee:	12 01 10 01 02 00 00 08 eb 03 44 20 01 00 01 02     ..........D ....
      fe:	dc 01                                               ..

00000100 <__c.2566>:
     100:	4f 46 46 00                                         OFF.

00000104 <__c.2564>:
     104:	4f 4e 00                                            ON.

00000107 <__c.2562>:
     107:	54 57 4f 43 55 50 00                                TWOCUP.

0000010e <__c.2560>:
     10e:	4f 4e 45 43 55 50 00                                ONECUP.

00000115 <__c.2557>:
     115:	50 4f 57 45 52 00                                   POWER.

0000011b <__c.2555>:
     11b:	4d 41 4b 45 00                                      MAKE.

00000120 <__c.2553>:
     120:	47 50 49 4f 00                                      GPIO.

00000125 <__c.2551>:
     125:	45 43 48 4f 00                                      ECHO.

0000012a <__c.2549>:
     12a:	53 54 42 59 54 45 4d 50 00                          STBYTEMP.

00000133 <__c.2547>:
     133:	41 55 54 4f 4f 46 46 00                             AUTOOFF.

0000013b <__c.2545>:
     13b:	4c 45 56 45 4c 00                                   LEVEL.

00000141 <__c.2543>:
     141:	42 4f 49 4c 45 52 54 4d 50 00                       BOILERTMP.

0000014b <__c.2541>:
     14b:	43 55 52 50 57 52 00                                CURPWR.

00000152 <__c.2539>:
     152:	43 48 50 52 47 00                                   CHPRG.

00000158 <__c.2537>:
     158:	50 52 47 00                                         PRG.

0000015c <__c.2535>:
     15c:	57 41 49 54 00                                      WAIT.

00000161 <__c.2533>:
     161:	57 41 54 45 52 00                                   WATER.

00000167 <__c.2531>:
     167:	50 52 57 41 00                                      PRWA.

0000016c <__c.2529>:
     16c:	54 45 4d 50 00                                      TEMP.

00000171 <__c.2525>:
     171:	42 45 45 52 00                                      BEER.

00000176 <__c.2523>:
     176:	48 45 4c 50 00                                      HELP.

0000017b <__c.2521>:
     17b:	43 4d 44 00                                         CMD.

0000017f <__c.2519>:
     17f:	47 45 54 00                                         GET.

00000183 <__c.2517>:
     183:	53 45 54 00                                         SET.

00000187 <__c.2485>:
     187:	25 63 00                                            %c.

0000018a <__c.2053>:
     18a:	55 53 41 47 45 3a 20 27 53 45 54 20 41 55 54 4f     USAGE: 'SET AUTO
     19a:	4f 46 46 20 4f 4e 27 2c 20 27 53 45 54 20 41 55     OFF ON', 'SET AU
     1aa:	54 4f 4f 46 46 20 4f 46 46 27 20 6f 72 20 27 53     TOOFF OFF' or 'S
     1ba:	45 54 20 41 55 54 4f 4f 46 46 20 4f 46 46 27 20     ET AUTOOFF OFF' 
     1ca:	0a 0d 00                                            ...

000001cd <__c.2199>:
     1cd:	55 53 41 47 45 3a 20 27 47 45 54 20 42 4f 49 4c     USAGE: 'GET BOIL
     1dd:	45 52 54 4d 50 27 20 74 6f 20 72 65 61 64 20 74     ERTMP' to read t
     1ed:	68 65 20 63 75 72 72 65 6e 74 20 62 6f 69 6c 65     he current boile
     1fd:	72 20 74 65 6d 70 20 69 6e 20 31 2f 31 30 30 20     r temp in 1/100 
     20d:	64 65 67 72 65 65 20 43 2e 0a 0d 00                 degree C....

00000219 <__c.2196>:
     219:	4f 4b 3a 25 69 0a 0d 00                             OK:%i...

00000221 <__c.2107>:
     221:	55 53 41 47 45 3a 20 27 47 45 54 20 43 48 50 52     USAGE: 'GET CHPR
     231:	47 27 20 6f 72 20 27 53 45 54 20 43 48 50 52 47     G' or 'SET CHPRG
     241:	20 58 58 58 58 27 20 77 69 74 68 20 72 61 6e 67      XXXX' with rang
     251:	65 20 6f 66 20 30 20 74 6f 20 37 0a 0d 00           e of 0 to 7...

0000025f <__c.2104>:
     25f:	4f 4b 3a 25 69 0a 0d 00                             OK:%i...

00000267 <__c.2053>:
     267:	55 53 41 47 45 3a 20 27 47 45 54 20 4c 45 56 4c     USAGE: 'GET LEVL
     277:	45 27 20 6f 72 20 27 53 45 54 20 4c 45 56 45 4c     E' or 'SET LEVEL
     287:	20 58 58 58 58 27 20 77 69 74 68 20 72 61 6e 67      XXXX' with rang
     297:	65 20 6f 66 20 30 20 74 6f 20 32 0a 0d 00           e of 0 to 2...

000002a5 <__c.2028>:
     2a5:	55 53 41 47 45 3a 20 27 47 45 54 20 45 43 48 4f     USAGE: 'GET ECHO
     2b5:	27 2c 20 27 53 45 54 20 45 43 48 4f 20 58 58 58     ', 'SET ECHO XXX
     2c5:	58 27 20 77 69 74 68 20 30 20 3d 20 4f 46 46 20     X' with 0 = OFF 
     2d5:	61 6e 64 20 65 6c 73 65 20 4f 4e 0a 0d 00           and else ON...

000002e3 <__c.2086>:
     2e3:	47 50 49 4f 20 2d 20 48 65 6c 70 0a 0d 2d 2d 2d     GPIO - Help..---
     2f3:	2d 2d 2d 2d 2d 2d 2d 2d 2d 2d 2d 2d 2d 2d 2d 2d     ----------------
     303:	2d 2d 2d 2d 2d 2d 2d 2d 2d 2d 2d 2d 2d 2d 2d 2d     ----------------
     313:	2d 2d 2d 2d 2d 2d 2d 2d 2d 2d 2d 2d 2d 2d 2d 2d     ----------------
     323:	2d 2d 2d 2d 2d 2d 2d 2d 2d 2d 2d 2d 2d 2d 2d 2d     ----------------
     333:	2d 2d 2d 2d 2d 2d 2d 2d 2d 2d 2d 2d 2d 2d 2d 2d     ----------------
     343:	2d 2d 2d 2d 2d 2d 2d 0a 0d 55 73 65 20 47 45 54     -------..Use GET
     353:	20 74 6f 20 72 65 61 64 20 6f 72 20 73 65 74 20      to read or set 
     363:	74 68 65 20 73 74 61 74 75 73 20 6f 66 20 47 50     the status of GP
     373:	49 4f 73 0a 0d 54 68 65 20 49 4f 20 6d 61 70 73     IOs..The IO maps
     383:	20 61 73 20 66 6f 6c 6c 6f 77 73 3a 30 20 3d 20      as follows:0 = 
     393:	53 57 49 54 43 48 20 30 31 20 3d 20 53 57 49 54     SWITCH 01 = SWIT
     3a3:	43 48 20 31 32 20 3d 20 53 57 49 54 43 48 20 32     CH 12 = SWITCH 2
     3b3:	33 20 3d 20 44 69 73 70 6c 61 79 20 62 75 74 74     3 = Display butt
     3c3:	6f 6e 34 20 3d 20 57 61 74 65 72 20 73 65 6e 73     on4 = Water sens
     3d3:	6f 72 20 6c 6f 77 20 6c 65 76 65 6c 35 20 3d 20     or low level5 = 
     3e3:	57 61 74 65 72 20 73 65 6e 73 6f 72 20 68 69 67     Water sensor hig
     3f3:	68 20 6c 65 76 65 6c 45 78 61 6d 70 6c 65 3a 20     h levelExample: 
     403:	27 47 45 54 20 47 50 49 4f 20 30 27 20 77 69 6c     'GET GPIO 0' wil
     413:	6c 20 72 65 74 75 72 6e 20 74 68 65 20 63 75 72     l return the cur
     423:	72 65 6e 74 20 6c 65 76 65 6c 20 6f 66 20 53 57     rent level of SW
     433:	49 54 43 48 20 30 2d 2d 2d 2d 2d 2d 2d 2d 2d 2d     ITCH 0----------
     443:	2d 2d 2d 2d 2d 2d 2d 2d 2d 2d 2d 2d 2d 2d 2d 2d     ----------------
     453:	2d 2d 2d 2d 2d 2d 2d 2d 2d 2d 2d 2d 2d 2d 2d 2d     ----------------
     463:	2d 2d 2d 2d 2d 2d 2d 2d 2d 2d 2d 2d 2d 2d 2d 2d     ----------------
     473:	2d 2d 2d 2d 2d 2d 2d 2d 2d 2d 2d 2d 2d 2d 2d 2d     ----------------
     483:	2d 2d 2d 2d 2d 2d 2d 2d 2d 2d 2d 2d 2d 2d 2d 2d     ----------------
     493:	2d 0a 0d 00                                         -...

00000497 <__c.2083>:
     497:	47 50 49 4f 20 2d 20 48 65 6c 70 0a 0d 2d 2d 2d     GPIO - Help..---
     4a7:	2d 2d 2d 2d 2d 2d 2d 2d 2d 2d 2d 2d 2d 2d 2d 2d     ----------------
     4b7:	2d 2d 2d 2d 2d 2d 2d 2d 2d 2d 2d 2d 2d 2d 2d 2d     ----------------
     4c7:	2d 2d 2d 2d 2d 2d 2d 2d 2d 2d 2d 2d 2d 2d 2d 2d     ----------------
     4d7:	2d 2d 2d 2d 2d 2d 2d 2d 2d 2d 2d 2d 2d 2d 2d 2d     ----------------
     4e7:	2d 2d 2d 2d 2d 2d 2d 2d 2d 2d 2d 2d 2d 2d 2d 2d     ----------------
     4f7:	2d 2d 2d 2d 2d 2d 2d 0a 0d 4f 6e 6c 79 20 47 45     -------..Only GE
     507:	54 20 69 73 20 73 75 70 70 6f 72 74 65 64 20 66     T is supported f
     517:	6f 72 20 47 50 49 4f 20 2c 20 73 65 65 20 48 45     or GPIO , see HE
     527:	4c 50 20 47 50 49 4f 20 66 6f 72 20 6d 6f 72 65     LP GPIO for more
     537:	20 69 6e 66 6f 2d 2d 2d 2d 2d 2d 2d 2d 2d 2d 2d      info-----------
     547:	2d 2d 2d 2d 2d 2d 2d 2d 2d 2d 2d 2d 2d 2d 2d 2d     ----------------
     557:	2d 2d 2d 2d 2d 2d 2d 2d 2d 2d 2d 2d 2d 2d 2d 2d     ----------------
     567:	2d 2d 2d 2d 2d 2d 2d 2d 2d 2d 2d 2d 2d 2d 2d 2d     ----------------
     577:	2d 2d 2d 2d 2d 2d 2d 2d 2d 2d 2d 2d 2d 2d 2d 2d     ----------------
     587:	2d 2d 2d 2d 2d 2d 2d 2d 2d 2d 2d 2d 2d 2d 2d 2d     ----------------
     597:	0a 0d 00                                            ...

0000059a <__c.2080>:
     59a:	47 50 49 4f 20 2d 20 48 65 6c 70 0a 0d 2d 2d 2d     GPIO - Help..---
     5aa:	2d 2d 2d 2d 2d 2d 2d 2d 2d 2d 2d 2d 2d 2d 2d 2d     ----------------
     5ba:	2d 2d 2d 2d 2d 2d 2d 2d 2d 2d 2d 2d 2d 2d 2d 2d     ----------------
     5ca:	2d 2d 2d 2d 2d 2d 2d 2d 2d 2d 2d 2d 2d 2d 2d 2d     ----------------
     5da:	2d 2d 2d 2d 2d 2d 2d 2d 2d 2d 2d 2d 2d 2d 2d 2d     ----------------
     5ea:	2d 2d 2d 2d 2d 2d 2d 2d 2d 2d 2d 2d 2d 2d 2d 2d     ----------------
     5fa:	2d 2d 2d 2d 2d 2d 2d 0a 0d 47 50 49 4f 20 69 6e     -------..GPIO in
     60a:	64 65 78 20 6f 75 74 20 6f 66 20 72 61 6e 67 65     dex out of range
     61a:	2c 20 73 65 65 20 48 45 4c 50 20 47 50 49 4f 20     , see HELP GPIO 
     62a:	66 6f 72 20 6d 6f 72 65 20 69 6e 66 6f 2d 2d 2d     for more info---
     63a:	2d 2d 2d 2d 2d 2d 2d 2d 2d 2d 2d 2d 2d 2d 2d 2d     ----------------
     64a:	2d 2d 2d 2d 2d 2d 2d 2d 2d 2d 2d 2d 2d 2d 2d 2d     ----------------
     65a:	2d 2d 2d 2d 2d 2d 2d 2d 2d 2d 2d 2d 2d 2d 2d 2d     ----------------
     66a:	2d 2d 2d 2d 2d 2d 2d 2d 2d 2d 2d 2d 2d 2d 2d 2d     ----------------
     67a:	2d 2d 2d 2d 2d 2d 2d 2d 2d 2d 2d 2d 2d 2d 2d 2d     ----------------
     68a:	2d 2d 2d 2d 2d 2d 2d 2d 0a 0d 00                    --------...

00000695 <__c.2195>:
     695:	55 53 41 47 45 3a 20 27 47 45 54 20 43 55 52 50     USAGE: 'GET CURP
     6a5:	57 52 27 20 74 6f 20 72 65 61 64 20 74 68 65 20     WR' to read the 
     6b5:	63 75 72 72 65 6e 74 20 70 6f 77 65 72 20 75 73     current power us
     6c5:	65 64 20 69 6e 20 6d 41 0a 0d 00                    ed in mA...

000006d0 <__c.2192>:
     6d0:	4f 4b 3a 25 6c 75 0a 0d 00                          OK:%lu...

000006d9 <__c.2105>:
     6d9:	55 53 41 47 45 3a 20 27 47 45 54 20 50 52 57 41     USAGE: 'GET PRWA
     6e9:	27 20 6f 72 20 27 53 45 54 20 50 52 57 41 20 58     ' or 'SET PRWA X
     6f9:	58 58 58 27 20 77 69 74 68 20 72 61 6e 67 65 20     XXX' with range 
     709:	6f 66 20 30 20 74 6f 20 36 35 35 33 35 0a 0d 00     of 0 to 65535...

00000719 <__c.2055>:
     719:	55 53 41 47 45 3a 20 27 47 45 54 20 50 52 47 27     USAGE: 'GET PRG'
     729:	20 6f 72 20 27 53 45 54 20 50 52 47 20 58 58 58      or 'SET PRG XXX
     739:	58 27 20 77 69 74 68 20 72 61 6e 67 65 20 6f 66     X' with range of
     749:	20 30 20 74 6f 20 37 0a 0d 00                        0 to 7...

00000753 <__c.2052>:
     753:	4f 4b 3a 25 69 0a 0d 00                             OK:%i...

0000075b <__c.2053>:
     75b:	55 53 41 47 45 3a 20 27 47 45 54 20 53 54 42 59     USAGE: 'GET STBY
     76b:	54 4d 50 27 2c 20 27 53 45 54 20 53 54 42 59 54     TMP', 'SET STBYT
     77b:	4d 50 20 58 58 58 58 0a 0d 00                       MP XXXX...

00000785 <__c.2033>:
     785:	4e 6f 20 28 6d 6f 72 65 29 20 62 6f 74 74 6c 65     No (more) bottle
     795:	73 20 6f 66 20 62 65 65 72 20 6f 6e 20 74 68 65     s of beer on the
     7a5:	20 77 61 6c 6c 2c 0a 0d 4e 6f 20 28 6d 6f 72 65      wall,..No (more
     7b5:	29 20 62 6f 74 74 6c 65 73 20 6f 66 20 62 65 65     ) bottles of bee
     7c5:	72 2e 0a 0d 47 6f 20 74 6f 20 74 68 65 20 73 74     r...Go to the st
     7d5:	6f 72 65 20 61 6e 64 20 62 75 79 20 73 6f 6d 65     ore and buy some
     7e5:	20 6d 6f 72 65 2c 0a 0d 4e 69 6e 65 74 79 2d 6e      more,..Ninety-n
     7f5:	69 6e 65 20 62 6f 74 74 6c 65 73 20 6f 66 20 62     ine bottles of b
     805:	65 65 72 20 6f 6e 20 74 68 65 20 77 61 6c 6c 2e     eer on the wall.
     815:	0a 0d 00                                            ...

00000818 <__c.2030>:
     818:	25 69 20 42 6f 74 74 6c 65 28 73 29 20 6f 66 20     %i Bottle(s) of 
     828:	62 65 65 72 20 6f 6e 20 74 68 65 20 77 61 6c 6c     beer on the wall
     838:	2c 20 25 69 20 62 6f 74 74 6c 65 28 73 29 20 6f     , %i bottle(s) o
     848:	66 20 62 65 65 72 0a 0d 54 61 6b 65 20 6f 6e 65     f beer..Take one
     858:	20 64 6f 77 6e 20 61 6e 64 20 70 61 73 73 20 69      down and pass i
     868:	74 20 61 72 6f 75 6e 64 2c 0a 0d 25 69 20 62 6f     t around,..%i bo
     878:	74 74 6c 65 28 73 29 20 6f 66 20 62 65 65 72 20     ttle(s) of beer 
     888:	6f 6e 20 74 68 65 20 77 61 6c 6c 0a 0d 00           on the wall...

00000896 <__c.2027>:
     896:	53 65 6e 73 65 48 61 4a 6f 20 2d 20 48 65 6c 70     SenseHaJo - Help
     8a6:	0a 0d 2d 2d 2d 2d 2d 2d 2d 2d 2d 2d 2d 2d 2d 2d     ..--------------
     8b6:	2d 2d 2d 2d 2d 2d 2d 2d 2d 2d 2d 2d 2d 2d 2d 2d     ----------------
     8c6:	2d 2d 2d 2d 2d 2d 2d 2d 2d 2d 2d 2d 2d 2d 2d 2d     ----------------
     8d6:	2d 2d 2d 2d 2d 2d 2d 2d 2d 2d 2d 2d 2d 2d 2d 2d     ----------------
     8e6:	2d 2d 2d 2d 2d 2d 2d 2d 2d 2d 2d 2d 2d 2d 2d 2d     ----------------
     8f6:	2d 2d 2d 2d 2d 2d 2d 2d 2d 2d 2d 2d 0a 0d 55 73     ------------..Us
     906:	65 20 53 45 54 2c 20 47 45 54 2c 20 43 4d 44 20     e SET, GET, CMD 
     916:	61 6e 64 20 48 45 4c 50 0a 0d 43 6f 6d 6d 61 6e     and HELP..Comman
     926:	64 73 20 61 72 65 3a 0a 0d 47 50 49 4f 20 2d 20     ds are:..GPIO - 
     936:	47 65 74 20 47 50 49 4f 20 53 74 61 74 65 09 28     Get GPIO State.(
     946:	43 61 6e 20 6f 6e 6c 79 20 75 73 65 20 47 45 54     Can only use GET
     956:	29 0a 0d 54 45 4d 50 20 2d 20 53 65 74 20 6f 72     )..TEMP - Set or
     966:	20 47 65 74 20 50 72 6f 67 2e 20 54 65 6d 70 2e      Get Prog. Temp.
     976:	0a 0d 50 52 47 20 2d 20 53 65 74 20 6f 72 20 47     ..PRG - Set or G
     986:	65 74 20 63 75 72 72 65 6e 74 20 50 72 6f 67 2e     et current Prog.
     996:	0a 0d 43 48 50 52 47 20 2d 20 53 65 74 20 6f 72     ..CHPRG - Set or
     9a6:	20 47 65 74 20 74 68 65 20 63 75 72 72 65 6e 74      Get the current
     9b6:	20 50 72 6f 67 2e 20 74 6f 20 6d 6f 64 69 66 79      Prog. to modify
     9c6:	0a 0d 50 52 57 41 20 2d 20 53 65 74 20 6f 72 20     ..PRWA - Set or 
     9d6:	47 65 74 20 74 68 65 20 61 6d 6f 75 6e 74 20 6f     Get the amount o
     9e6:	66 20 77 61 74 65 72 20 75 73 65 64 20 74 6f 20     f water used to 
     9f6:	77 65 74 20 74 68 65 20 70 61 64 0a 0d 57 41 54     wet the pad..WAT
     a06:	45 52 20 2d 20 53 65 74 20 6f 72 20 47 65 74 20     ER - Set or Get 
     a16:	74 68 65 20 61 6d 6f 75 6e 74 20 6f 66 20 77 61     the amount of wa
     a26:	74 65 72 20 75 73 65 64 20 74 6f 20 62 72 65 77     ter used to brew
     a36:	20 74 68 65 20 63 6f 66 66 65 65 0a 0d 57 41 49      the coffee..WAI
     a46:	54 20 2d 20 53 65 74 20 6f 72 20 47 65 74 20 74     T - Set or Get t
     a56:	68 65 20 61 6d 6f 75 6e 74 20 6f 66 20 74 69 6d     he amount of tim
     a66:	65 20 74 6f 20 77 61 69 74 20 62 65 74 77 65 65     e to wait betwee
     a76:	6e 20 77 65 74 20 74 68 65 20 70 61 64 20 61 6e     n wet the pad an
     a86:	64 20 6d 61 6b 65 20 74 68 65 20 63 6f 66 66 65     d make the coffe
     a96:	65 0a 0d 43 55 52 50 57 52 20 2d 20 47 65 74 20     e..CURPWR - Get 
     aa6:	74 68 65 20 63 75 72 72 65 6e 74 20 70 6f 77 65     the current powe
     ab6:	72 20 75 73 65 64 0a 0d 42 4f 49 4c 45 52 54 4d     r used..BOILERTM
     ac6:	50 20 2d 20 47 65 74 20 74 68 65 20 63 75 72 72     P - Get the curr
     ad6:	65 6e 74 20 62 6f 69 6c 65 72 20 74 65 6d 70 2e     ent boiler temp.
     ae6:	0a 0d 4c 45 56 45 4c 20 2d 20 53 65 74 20 6f 72     ..LEVEL - Set or
     af6:	20 47 65 74 20 74 68 65 20 63 75 72 72 65 6e 74      Get the current
     b06:	20 66 69 6c 6c 20 6c 65 76 65 6c 20 6f 66 20 74      fill level of t
     b16:	68 65 20 43 75 70 0a 0d 41 55 54 4f 4f 46 20 2d     he Cup..AUTOOF -
     b26:	20 53 65 74 20 6f 72 20 47 65 74 20 74 68 65 20      Set or Get the 
     b36:	54 69 6d 65 20 69 6e 20 4d 69 6e 75 74 65 73 20     Time in Minutes 
     b46:	75 6e 74 69 6c 20 41 75 74 6f 20 4f 66 66 0a 0d     until Auto Off..
     b56:	53 54 42 59 54 45 4d 50 20 2d 20 53 65 74 20 6f     STBYTEMP - Set o
     b66:	72 20 47 65 74 20 74 68 65 20 73 74 61 6e 64 62     r Get the standb
     b76:	79 20 74 65 6d 70 2e 0a 0d 4d 41 4b 45 20 28 4f     y temp...MAKE (O
     b86:	4e 45 43 55 50 20 2c 20 54 57 4f 43 55 50 29 20     NECUP , TWOCUP) 
     b96:	75 73 65 64 20 74 6f 20 6d 61 6b 65 20 63 6f 66     used to make cof
     ba6:	66 65 65 0a 0d 45 43 48 4f 20 2d 20 65 6e 61 62     fee..ECHO - enab
     bb6:	6c 65 20 6f 72 20 64 69 73 61 62 6c 65 20 73 65     le or disable se
     bc6:	72 69 61 6c 20 45 43 48 4f 0a 0d 41 66 74 65 72     rial ECHO..After
     bd6:	20 63 68 61 6e 67 65 73 20 74 6f 20 74 68 65 20      changes to the 
     be6:	50 72 6f 67 72 61 6d 20 72 65 6c 6f 61 64 20 77     Program reload w
     bf6:	69 74 68 20 43 48 50 52 47 46 6f 72 20 6d 6f 72     ith CHPRGFor mor
     c06:	65 20 48 65 6c 70 20 74 79 70 65 20 48 45 4c 50     e Help type HELP
     c16:	20 3c 43 4f 4d 4d 41 4e 44 3e 0a 0d 2d 2d 2d 2d      <COMMAND>..----
     c26:	2d 2d 2d 2d 2d 2d 2d 2d 2d 2d 2d 2d 2d 2d 2d 2d     ----------------
     c36:	2d 2d 2d 2d 2d 2d 2d 2d 2d 2d 2d 2d 2d 2d 2d 2d     ----------------
     c46:	2d 2d 2d 2d 2d 2d 2d 2d 2d 2d 2d 2d 2d 2d 2d 2d     ----------------
     c56:	2d 2d 2d 2d 2d 2d 2d 2d 2d 2d 2d 2d 2d 2d 2d 2d     ----------------
     c66:	2d 2d 2d 2d 2d 2d 2d 2d 2d 2d 2d 2d 2d 2d 2d 2d     ----------------
     c76:	2d 2d 2d 2d 2d 2d 2d 0a 0d 00                       -------...

00000c80 <__c.2107>:
     c80:	55 53 41 47 45 3a 20 27 47 45 54 20 54 45 4d 50     USAGE: 'GET TEMP
     c90:	27 20 6f 72 20 27 53 45 54 20 54 45 4d 50 20 58     ' or 'SET TEMP X
     ca0:	58 58 58 27 20 77 69 74 68 20 72 61 6e 67 65 20     XXX' with range 
     cb0:	6f 66 20 30 20 74 6f 20 39 39 39 39 0a 0d 00        of 0 to 9999...

00000cbf <__c.2104>:
     cbf:	4f 4b 3a 25 69 0a 0d 00                             OK:%i...

00000cc7 <__c.2107>:
     cc7:	55 53 41 47 45 3a 20 27 47 45 54 20 57 41 49 54     USAGE: 'GET WAIT
     cd7:	27 20 6f 72 20 27 53 45 54 20 57 41 49 54 20 58     ' or 'SET WAIT X
     ce7:	58 58 58 27 20 77 69 74 68 20 72 61 6e 67 65 20     XXX' with range 
     cf7:	6f 66 20 30 20 74 6f 20 36 35 35 33 35 0a 0d 00     of 0 to 65535...

00000d07 <__c.2104>:
     d07:	4f 4b 3a 25 69 0a 0d 00                             OK:%i...

00000d0f <__c.2107>:
     d0f:	55 53 41 47 45 3a 20 27 47 45 54 20 57 41 54 45     USAGE: 'GET WATE
     d1f:	52 27 20 6f 72 20 27 53 45 54 20 57 41 54 45 52     R' or 'SET WATER
     d2f:	20 58 58 58 58 27 20 77 69 74 68 20 72 61 6e 67      XXXX' with rang
     d3f:	65 20 6f 66 20 30 20 74 6f 20 36 35 35 33 35 0a     e of 0 to 65535.
     d4f:	0d 00                                               ..

00000d51 <__c.2104>:
     d51:	4f 4b 3a 25 69 0a 0d 00                             OK:%i...

00000d59 <__c.1983>:
     d59:	4f 4b 0a 0d 00                                      OK...

00000d5e <__c.1978>:
     d5e:	45 52 52 3a 50 41 52 53 45 52 0a 0d 00              ERR:PARSER...

00000d6b <__c.1973>:
     d6b:	45 52 52 3a 50 41 52 41 4d 0a 0d 00                 ERR:PARAM...

00000d77 <MagicFlashKey>:
     d77:	65 48 61 4a 6f                                      eHaJo

00000d7c <__ctors_end>:
     d7c:	11 24       	eor	r1, r1
     d7e:	1f be       	out	0x3f, r1	; 63
     d80:	cf ef       	ldi	r28, 0xFF	; 255
     d82:	d4 e0       	ldi	r29, 0x04	; 4
     d84:	de bf       	out	0x3e, r29	; 62
     d86:	cd bf       	out	0x3d, r28	; 61

00000d88 <__do_copy_data>:
     d88:	12 e0       	ldi	r17, 0x02	; 2
     d8a:	a0 e0       	ldi	r26, 0x00	; 0
     d8c:	b1 e0       	ldi	r27, 0x01	; 1
     d8e:	e8 e9       	ldi	r30, 0x98	; 152
     d90:	f2 e5       	ldi	r31, 0x52	; 82
     d92:	02 c0       	rjmp	.+4      	; 0xd98 <__do_copy_data+0x10>
     d94:	05 90       	lpm	r0, Z+
     d96:	0d 92       	st	X+, r0
     d98:	a8 39       	cpi	r26, 0x98	; 152
     d9a:	b1 07       	cpc	r27, r17
     d9c:	d9 f7       	brne	.-10     	; 0xd94 <__do_copy_data+0xc>

00000d9e <__do_clear_bss>:
     d9e:	23 e0       	ldi	r18, 0x03	; 3
     da0:	a8 e9       	ldi	r26, 0x98	; 152
     da2:	b2 e0       	ldi	r27, 0x02	; 2
     da4:	01 c0       	rjmp	.+2      	; 0xda8 <.do_clear_bss_start>

00000da6 <.do_clear_bss_loop>:
     da6:	1d 92       	st	X+, r1

00000da8 <.do_clear_bss_start>:
     da8:	a5 39       	cpi	r26, 0x95	; 149
     daa:	b2 07       	cpc	r27, r18
     dac:	e1 f7       	brne	.-8      	; 0xda6 <.do_clear_bss_loop>
     dae:	0e 94 34 25 	call	0x4a68	; 0x4a68 <main>
     db2:	0c 94 4a 29 	jmp	0x5294	; 0x5294 <_exit>

00000db6 <__bad_interrupt>:
     db6:	24 c9       	rjmp	.-3512   	; 0x0 <__vectors>

00000db8 <i2c_delay_T2>:

	.stabs	"",100,0,0,i2c_delay_T2
	.stabs	"i2cmaster.S",100,0,0,i2c_delay_T2
	.func i2c_delay_T2	; delay 5.0 microsec with 4 Mhz crystal	
i2c_delay_T2:        ; 3 cycles
    push r24     ; 2 cycle
     db8:	8f 93       	push	r24
	ldi	 r24, LOOP_VALUE ; 1 cycle 
     dba:	87 ef       	ldi	r24, 0xF7	; 247
	nop          ; 1 cycle
     dbc:	00 00       	nop
1:	sbiw r24, 1  ; 2 cycle
     dbe:	01 97       	sbiw	r24, 0x01	; 1
	brne 1b      ; 2 or 1 cycle, 4 cycles per loop
     dc0:	f1 f7       	brne	.-4      	; 0xdbe <i2c_delay_T2+0x6>
	pop  r24     ; 2 cycle
     dc2:	8f 91       	pop	r24
	ret          ; 4 cycle = total 80 cycles = 5.0 microsec with 16 Mhz crystal
     dc4:	08 95       	ret

00000dc6 <i2c_init>:
; extern void i2c_init(void)
;*************************************************************************
	.global i2c_init
	.func i2c_init
i2c_init:
	cbi SDA_DDR,SDA		;release SDA
     dc6:	3d 98       	cbi	0x07, 5	; 7
;	cbi SCL_DDR,SCL		;release SCL
; we need to drive SCL active for the senseo
	sbi SCL_DDR,SCL
     dc8:	3c 9a       	sbi	0x07, 4	; 7
	sbi SCL_OUT,SCL
     dca:	44 9a       	sbi	0x08, 4	; 8

; This will give us an active HIGH on the pin
	cbi SDA_OUT,SDA
     dcc:	45 98       	cbi	0x08, 5	; 8

;	cbi SCL_OUT,SCL

	ret
     dce:	08 95       	ret

00000dd0 <i2c_start>:
	.func   i2c_start
i2c_start:

	
;   We need to set the pin to the init value again here 
	sbi 	SDA_DDR,SDA	;force SDA low
     dd0:	3d 9a       	sbi	0x07, 5	; 7
	rcall 	i2c_delay_T2	;delay T/2
     dd2:	f2 df       	rcall	.-28     	; 0xdb8 <i2c_delay_T2>
	
	rcall 	i2c_write	;write address
     dd4:	1d c0       	rjmp	.+58     	; 0xe10 <i2c_write>
	ret
     dd6:	08 95       	ret

00000dd8 <i2c_rep_start>:
;*************************************************************************

	.global i2c_rep_start
	.func	i2c_rep_start
i2c_rep_start:
	cbi SCL_OUT, SCL ; Drive SCL low
     dd8:	44 98       	cbi	0x08, 4	; 8
;	sbi	SCL_DDR,SCL	;force SCL low
	rcall 	i2c_delay_T2	;delay  T/2
     dda:	ee df       	rcall	.-36     	; 0xdb8 <i2c_delay_T2>
	cbi	SDA_DDR,SDA	;release SDA
     ddc:	3d 98       	cbi	0x07, 5	; 7
	rcall	i2c_delay_T2	;delay T/2
     dde:	ec df       	rcall	.-40     	; 0xdb8 <i2c_delay_T2>
;	cbi	SCL_DDR,SCL	;release SCL
	sbi SCL_OUT,SCL ;force SCL HIGH
     de0:	44 9a       	sbi	0x08, 4	; 8
	rcall 	i2c_delay_T2	;delay  T/2
     de2:	ea df       	rcall	.-44     	; 0xdb8 <i2c_delay_T2>
	sbi 	SDA_DDR,SDA	;force SDA low
     de4:	3d 9a       	sbi	0x07, 5	; 7
	rcall 	i2c_delay_T2	;delay	T/2
     de6:	e8 df       	rcall	.-48     	; 0xdb8 <i2c_delay_T2>
	
	rcall	i2c_write	;write address
     de8:	13 c0       	rjmp	.+38     	; 0xe10 <i2c_write>
	ret
     dea:	08 95       	ret

00000dec <i2c_start_wait>:
;*************************************************************************

	.global i2c_start_wait
	.func   i2c_start_wait
i2c_start_wait:
	mov	__tmp_reg__,r24
     dec:	08 2e       	mov	r0, r24

00000dee <i2c_start_wait1>:
i2c_start_wait1:
	sbi 	SDA_DDR,SDA	;force SDA low
     dee:	3d 9a       	sbi	0x07, 5	; 7
	rcall 	i2c_delay_T2	;delay T/2
     df0:	e3 df       	rcall	.-58     	; 0xdb8 <i2c_delay_T2>
	mov	r24,__tmp_reg__
     df2:	80 2d       	mov	r24, r0
	rcall 	i2c_write	;write address
     df4:	0d d0       	rcall	.+26     	; 0xe10 <i2c_write>
	tst	r24		;if device not busy -> done
     df6:	88 23       	and	r24, r24
	breq	i2c_start_wait_done
     df8:	11 f0       	breq	.+4      	; 0xdfe <i2c_start_wait_done>
	rcall	i2c_stop	;terminate write operation
     dfa:	02 d0       	rcall	.+4      	; 0xe00 <i2c_stop>
	rjmp	i2c_start_wait1	;device busy, poll ack again
     dfc:	f8 cf       	rjmp	.-16     	; 0xdee <i2c_start_wait1>

00000dfe <i2c_start_wait_done>:
i2c_start_wait_done:
	ret
     dfe:	08 95       	ret

00000e00 <i2c_stop>:
;*************************************************************************

	.global	i2c_stop
	.func	i2c_stop
i2c_stop:
	cbi	SCL_OUT,SCL	;force SCL low
     e00:	44 98       	cbi	0x08, 4	; 8
	sbi	SDA_DDR,SDA	;force SDA low
     e02:	3d 9a       	sbi	0x07, 5	; 7
	rcall	i2c_delay_T2	;delay T/2
     e04:	d9 df       	rcall	.-78     	; 0xdb8 <i2c_delay_T2>
;	cbi	SCL_DDR,SCL	;release SCL
	sbi SCL_OUT,SCL ;Force SCL HIGH
     e06:	44 9a       	sbi	0x08, 4	; 8
	rcall	i2c_delay_T2	;delay T/2
     e08:	d7 df       	rcall	.-82     	; 0xdb8 <i2c_delay_T2>
	cbi	SDA_DDR,SDA	;release SDA
     e0a:	3d 98       	cbi	0x07, 5	; 7
	rcall	i2c_delay_T2	;delay T/2
     e0c:	d5 cf       	rjmp	.-86     	; 0xdb8 <i2c_delay_T2>
;   We need to set the pin to Tri-State here

	ret
     e0e:	08 95       	ret

00000e10 <i2c_write>:
;	data = r24,  return = r25(=0):r24
;*************************************************************************
	.global i2c_write
	.func	i2c_write
i2c_write:
	sec			;set carry flag
     e10:	08 94       	sec
	rol 	r24		;shift in carry and out bit one
     e12:	88 1f       	adc	r24, r24
	rjmp	i2c_write_first
     e14:	01 c0       	rjmp	.+2      	; 0xe18 <i2c_write_first>

00000e16 <i2c_write_bit>:
i2c_write_bit:
	lsl	r24		;if transmit register empty
     e16:	88 0f       	add	r24, r24

00000e18 <i2c_write_first>:
i2c_write_first:
	breq	i2c_get_ack
     e18:	59 f0       	breq	.+22     	; 0xe30 <i2c_get_ack>
	cbi	SCL_OUT,SCL	;force SCL low
     e1a:	44 98       	cbi	0x08, 4	; 8
	brcc	i2c_write_low
     e1c:	18 f4       	brcc	.+6      	; 0xe24 <i2c_write_low>
	nop
     e1e:	00 00       	nop
	cbi	SDA_DDR,SDA	;release SDA
     e20:	3d 98       	cbi	0x07, 5	; 7
	rjmp	i2c_write_high
     e22:	02 c0       	rjmp	.+4      	; 0xe28 <i2c_write_high>

00000e24 <i2c_write_low>:
i2c_write_low:
	sbi	SDA_DDR,SDA	;force SDA low
     e24:	3d 9a       	sbi	0x07, 5	; 7
	rjmp	i2c_write_high
     e26:	00 c0       	rjmp	.+0      	; 0xe28 <i2c_write_high>

00000e28 <i2c_write_high>:
i2c_write_high:
	rcall 	i2c_delay_T2	;delay T/2
     e28:	c7 df       	rcall	.-114    	; 0xdb8 <i2c_delay_T2>
;	cbi	SCL_DDR,SCL	;release SCL
	sbi SCL_OUT,SCL ; Force SCL High
     e2a:	44 9a       	sbi	0x08, 4	; 8
	rcall	i2c_delay_T2	;delay T/2
     e2c:	c5 df       	rcall	.-118    	; 0xdb8 <i2c_delay_T2>
	rjmp	i2c_write_bit
     e2e:	f3 cf       	rjmp	.-26     	; 0xe16 <i2c_write_bit>

00000e30 <i2c_get_ack>:
	
i2c_get_ack:
	cbi	SCL_OUT,SCL	;force SCL low
     e30:	44 98       	cbi	0x08, 4	; 8
	cbi	SDA_DDR,SDA	;release SDA
     e32:	3d 98       	cbi	0x07, 5	; 7
	rcall	i2c_delay_T2	;delay T/2
     e34:	c1 df       	rcall	.-126    	; 0xdb8 <i2c_delay_T2>
;	cbi	SCL_DDR,SCL	;release SCL
	sbi SCL_OUT,SCL ;Force SCL High
     e36:	44 9a       	sbi	0x08, 4	; 8

00000e38 <i2c_ack_wait>:
i2c_ack_wait:
	;sbis	SCL_IN,SCL	;wait SCL high (in case wait states are inserted)
	;rjmp	i2c_ack_wait
	
	clr	r24		;return 0
     e38:	88 27       	eor	r24, r24
	sbic	SDA_IN,SDA	;if SDA high -> return 1
     e3a:	35 99       	sbic	0x06, 5	; 6
	ldi	r24,1
     e3c:	81 e0       	ldi	r24, 0x01	; 1
	rcall	i2c_delay_T2	;delay T/2
     e3e:	bc df       	rcall	.-136    	; 0xdb8 <i2c_delay_T2>
	clr	r25
     e40:	99 27       	eor	r25, r25
	ret
     e42:	08 95       	ret

00000e44 <i2c_readNak>:
	.global i2c_readAck
	.global i2c_readNak
	.global i2c_read		
	.func	i2c_read
i2c_readNak:
	clr	r24
     e44:	88 27       	eor	r24, r24
	rjmp	i2c_read
     e46:	01 c0       	rjmp	.+2      	; 0xe4a <i2c_read>

00000e48 <i2c_readAck>:
i2c_readAck:
	ldi	r24,0x01
     e48:	81 e0       	ldi	r24, 0x01	; 1

00000e4a <i2c_read>:
i2c_read:
	ldi	r23,0x01	;data = 0x01
     e4a:	71 e0       	ldi	r23, 0x01	; 1

00000e4c <i2c_read_bit>:
i2c_read_bit:
	cbi	SCL_OUT,SCL	;force SCL low
     e4c:	44 98       	cbi	0x08, 4	; 8
	cbi	SDA_DDR,SDA	;release SDA (from previous ACK)
     e4e:	3d 98       	cbi	0x07, 5	; 7
	rcall	i2c_delay_T2	;delay T/2
     e50:	b3 df       	rcall	.-154    	; 0xdb8 <i2c_delay_T2>
	
;	cbi	SCL_DDR,SCL	;release SCL
	sbi SCL_OUT,SCL; Force SCL HIGH
     e52:	44 9a       	sbi	0x08, 4	; 8
	
	rcall	i2c_delay_T2	;delay T/2
     e54:	b1 df       	rcall	.-158    	; 0xdb8 <i2c_delay_T2>

00000e56 <i2c_read_stretch>:
	
i2c_read_stretch:
; We can t do Clockstretching     
;	sbis SCL_IN, SCL        ;loop until SCL is high (allow slave to stretch SCL)
    rjmp	i2c_read_stretch
     e56:	ff cf       	rjmp	.-2      	; 0xe56 <i2c_read_stretch>
    	
	clc			;clear carry flag
     e58:	88 94       	clc
	sbic	SDA_IN,SDA	;if SDA is high
     e5a:	35 99       	sbic	0x06, 5	; 6
	sec			;  set carry flag
     e5c:	08 94       	sec
	
	rol	r23		;store bit
     e5e:	77 1f       	adc	r23, r23
	brcc	i2c_read_bit	;while receive register not full
     e60:	a8 f7       	brcc	.-22     	; 0xe4c <i2c_read_bit>

00000e62 <i2c_put_ack>:
	
i2c_put_ack:
	cbi	SCL_OUT,SCL	;force SCL low	
     e62:	44 98       	cbi	0x08, 4	; 8
	cpi	r24,1
     e64:	81 30       	cpi	r24, 0x01	; 1
	breq	i2c_put_ack_low	;if (ack=0)
     e66:	11 f0       	breq	.+4      	; 0xe6c <i2c_put_ack_low>
	cbi	SDA_DDR,SDA	;      release SDA
     e68:	3d 98       	cbi	0x07, 5	; 7
	rjmp	i2c_put_ack_high
     e6a:	01 c0       	rjmp	.+2      	; 0xe6e <i2c_put_ack_high>

00000e6c <i2c_put_ack_low>:
i2c_put_ack_low:                ;else
	sbi	SDA_DDR,SDA	;      force SDA low
     e6c:	3d 9a       	sbi	0x07, 5	; 7

00000e6e <i2c_put_ack_high>:
i2c_put_ack_high:
	rcall	i2c_delay_T2	;delay T/2
     e6e:	a4 df       	rcall	.-184    	; 0xdb8 <i2c_delay_T2>
;	cbi	SCL_DDR,SCL	;release SCL
	sbi SCL_OUT,SCL ; Force SCL High
     e70:	44 9a       	sbi	0x08, 4	; 8

00000e72 <i2c_put_ack_wait>:
i2c_put_ack_wait:
;	sbis	SCL_IN,SCL	;wait SCL high
; Clock wont get high here by the slace
	rjmp	i2c_put_ack_wait
     e72:	ff cf       	rjmp	.-2      	; 0xe72 <i2c_put_ack_wait>
	rcall	i2c_delay_T2	;delay T/2
     e74:	a1 df       	rcall	.-190    	; 0xdb8 <i2c_delay_T2>
	mov	r24,r23
     e76:	87 2f       	mov	r24, r23
	clr	r25
     e78:	99 27       	eor	r25, r25
	ret
     e7a:	08 95       	ret

00000e7c <CALLBACK_USB_GetDescriptor>:
	const uint8_t  DescriptorNumber = (wValue & 0xFF);

	const void* Address = NULL;
	uint16_t    Size    = NO_DESCRIPTOR;

	switch (DescriptorType)
     e7c:	29 2f       	mov	r18, r25
     e7e:	33 27       	eor	r19, r19
     e80:	22 30       	cpi	r18, 0x02	; 2
     e82:	31 05       	cpc	r19, r1
     e84:	59 f0       	breq	.+22     	; 0xe9c <CALLBACK_USB_GetDescriptor+0x20>
     e86:	23 30       	cpi	r18, 0x03	; 3
     e88:	31 05       	cpc	r19, r1
     e8a:	69 f0       	breq	.+26     	; 0xea6 <CALLBACK_USB_GetDescriptor+0x2a>
     e8c:	21 30       	cpi	r18, 0x01	; 1
     e8e:	31 05       	cpc	r19, r1
     e90:	e9 f4       	brne	.+58     	; 0xecc <CALLBACK_USB_GetDescriptor+0x50>
	{
		case DTYPE_Device:
			Address = &DeviceDescriptor;
			Size    = sizeof(USB_Descriptor_Device_t);
     e92:	82 e1       	ldi	r24, 0x12	; 18
     e94:	90 e0       	ldi	r25, 0x00	; 0
	uint16_t    Size    = NO_DESCRIPTOR;

	switch (DescriptorType)
	{
		case DTYPE_Device:
			Address = &DeviceDescriptor;
     e96:	2e ee       	ldi	r18, 0xEE	; 238
     e98:	30 e0       	ldi	r19, 0x00	; 0
     e9a:	1c c0       	rjmp	.+56     	; 0xed4 <CALLBACK_USB_GetDescriptor+0x58>
			Size    = sizeof(USB_Descriptor_Device_t);
			break;
		case DTYPE_Configuration:
			Address = &ConfigurationDescriptor;
			Size    = sizeof(USB_Descriptor_Configuration_t);
     e9c:	8e e3       	ldi	r24, 0x3E	; 62
     e9e:	90 e0       	ldi	r25, 0x00	; 0
		case DTYPE_Device:
			Address = &DeviceDescriptor;
			Size    = sizeof(USB_Descriptor_Device_t);
			break;
		case DTYPE_Configuration:
			Address = &ConfigurationDescriptor;
     ea0:	20 eb       	ldi	r18, 0xB0	; 176
     ea2:	30 e0       	ldi	r19, 0x00	; 0
			Size    = sizeof(USB_Descriptor_Configuration_t);
			break;
     ea4:	17 c0       	rjmp	.+46     	; 0xed4 <CALLBACK_USB_GetDescriptor+0x58>
		case DTYPE_String:
			switch (DescriptorNumber)
     ea6:	99 27       	eor	r25, r25
     ea8:	81 30       	cpi	r24, 0x01	; 1
     eaa:	91 05       	cpc	r25, r1
     eac:	49 f0       	breq	.+18     	; 0xec0 <CALLBACK_USB_GetDescriptor+0x44>
     eae:	28 f0       	brcs	.+10     	; 0xeba <CALLBACK_USB_GetDescriptor+0x3e>
     eb0:	02 97       	sbiw	r24, 0x02	; 2
     eb2:	61 f4       	brne	.+24     	; 0xecc <CALLBACK_USB_GetDescriptor+0x50>
					Address = &ManufacturerString;
					Size    = pgm_read_byte(&ManufacturerString.Header.Size);
					break;
				case STRING_ID_Product:
					Address = &ProductString;
					Size    = pgm_read_byte(&ProductString.Header.Size);
     eb4:	e4 e7       	ldi	r30, 0x74	; 116
     eb6:	f0 e0       	ldi	r31, 0x00	; 0
     eb8:	05 c0       	rjmp	.+10     	; 0xec4 <CALLBACK_USB_GetDescriptor+0x48>
		case DTYPE_String:
			switch (DescriptorNumber)
			{
				case STRING_ID_Language:
					Address = &LanguageString;
					Size    = pgm_read_byte(&LanguageString.Header.Size);
     eba:	ec ea       	ldi	r30, 0xAC	; 172
     ebc:	f0 e0       	ldi	r31, 0x00	; 0
     ebe:	02 c0       	rjmp	.+4      	; 0xec4 <CALLBACK_USB_GetDescriptor+0x48>
					break;
				case STRING_ID_Manufacturer:
					Address = &ManufacturerString;
					Size    = pgm_read_byte(&ManufacturerString.Header.Size);
     ec0:	e2 e9       	ldi	r30, 0x92	; 146
     ec2:	f0 e0       	ldi	r31, 0x00	; 0
					break;
				case STRING_ID_Product:
					Address = &ProductString;
					Size    = pgm_read_byte(&ProductString.Header.Size);
     ec4:	84 91       	lpm	r24, Z
     ec6:	90 e0       	ldi	r25, 0x00	; 0
				case STRING_ID_Manufacturer:
					Address = &ManufacturerString;
					Size    = pgm_read_byte(&ManufacturerString.Header.Size);
					break;
				case STRING_ID_Product:
					Address = &ProductString;
     ec8:	9f 01       	movw	r18, r30
					Size    = pgm_read_byte(&ProductString.Header.Size);
					break;
     eca:	04 c0       	rjmp	.+8      	; 0xed4 <CALLBACK_USB_GetDescriptor+0x58>
{
	const uint8_t  DescriptorType   = (wValue >> 8);
	const uint8_t  DescriptorNumber = (wValue & 0xFF);

	const void* Address = NULL;
	uint16_t    Size    = NO_DESCRIPTOR;
     ecc:	80 e0       	ldi	r24, 0x00	; 0
     ece:	90 e0       	ldi	r25, 0x00	; 0
                                    const void** const DescriptorAddress)
{
	const uint8_t  DescriptorType   = (wValue >> 8);
	const uint8_t  DescriptorNumber = (wValue & 0xFF);

	const void* Address = NULL;
     ed0:	20 e0       	ldi	r18, 0x00	; 0
     ed2:	30 e0       	ldi	r19, 0x00	; 0
			}

			break;
	}

	*DescriptorAddress = Address;
     ed4:	fa 01       	movw	r30, r20
     ed6:	31 83       	std	Z+1, r19	; 0x01
     ed8:	20 83       	st	Z, r18
	return Size;
}
     eda:	08 95       	ret

00000edc <GPIO_Init>:
	
void GPIO_Init()
{
	//Einmal in den Tristate Zustand
	
	HEATER_PORT |= ( 1<<HEATER );
     edc:	59 9a       	sbi	0x0b, 1	; 11
	HEATER_DDR  |= ( 1<<HEATER );
     ede:	51 9a       	sbi	0x0a, 1	; 10
	
	PUMP_PORT |= ( 1<<PUMP );
     ee0:	58 9a       	sbi	0x0b, 0	; 11
	PUMP_DDR  |= ( 1<<PUMP );
     ee2:	50 9a       	sbi	0x0a, 0	; 10
	
	/* The LEDs are low active we need to set the output to high */
	LED1_PORT |= ( 1<<LED1 );
     ee4:	5f 9a       	sbi	0x0b, 7	; 11
	LED1_DDR  |= ( 1<<LED1 );
     ee6:	57 9a       	sbi	0x0a, 7	; 10
	
	LED2_PORT |= ( 1<<LED2 );
     ee8:	2c 9a       	sbi	0x05, 4	; 5
	LED2_DDR  |= ( 1<<LED2 );
     eea:	24 9a       	sbi	0x04, 4	; 4
	
	LED3_PORT |= ( 1<<LED3 );
     eec:	2e 9a       	sbi	0x05, 6	; 5
	LED3_DDR  |= ( 1<<LED3 );
     eee:	26 9a       	sbi	0x04, 6	; 4
	
	/* Leds are now ready */
	
	SWITCH1_DDR  &= ~( 1<<SWITCH1 ); /* Is now input */
     ef0:	20 98       	cbi	0x04, 0	; 4
	SWITCH1_PORT |=  ( 1<<SWITCH1 ); /* Pullup Enable */
     ef2:	28 9a       	sbi	0x05, 0	; 5
	
	SWITCH2_DDR  &= ~( 1<<SWITCH2 ); /* Is now input */
     ef4:	25 98       	cbi	0x04, 5	; 4
	SWITCH2_PORT |=  ( 1<<SWITCH2 ); /* Pullup Enable */
     ef6:	2d 9a       	sbi	0x05, 5	; 5
	
	SWITCH3_DDR  &= ~( 1<<SWITCH3 ); /* Is now input */
     ef8:	27 98       	cbi	0x04, 7	; 4
	SWITCH3_PORT |=  ( 1<<SWITCH3 ); /* Pullup Enable */
     efa:	2f 9a       	sbi	0x05, 7	; 5
	
	/* Switches are now ready */
	HALL_SW1_DDR  &= ~( 1<<HALL_SW1 ); /* Is now input */
     efc:	3e 98       	cbi	0x07, 6	; 7
	HALL_SW1_PORT |= (1<<HALL_SW1);	/* PULUP enable */	
     efe:	46 9a       	sbi	0x08, 6	; 8
		
	HALL_SW2_DDR  &= ~( 1<<HALL_SW2 ); /* Is now input */
     f00:	3f 98       	cbi	0x07, 7	; 7
	HALL_SW2_PORT |= (1<<HALL_SW2);	/* PULUP enable */
     f02:	47 9a       	sbi	0x08, 7	; 8
     f04:	08 95       	ret

00000f06 <voSetLedState>:


}

void voSetLedState(uint8_t LedIdx, emLEDSATATE LedState){
	switch(LedIdx){
     f06:	81 30       	cpi	r24, 0x01	; 1
     f08:	81 f0       	breq	.+32     	; 0xf2a <voSetLedState+0x24>
     f0a:	18 f0       	brcs	.+6      	; 0xf12 <voSetLedState+0xc>
     f0c:	82 30       	cpi	r24, 0x02	; 2
     f0e:	c1 f0       	breq	.+48     	; 0xf40 <voSetLedState+0x3a>
     f10:	08 95       	ret
		case 0: {
			if(LedState == LED_ON) {
     f12:	61 11       	cpse	r22, r1
     f14:	02 c0       	rjmp	.+4      	; 0xf1a <voSetLedState+0x14>
				LED_ON_STATE(LED1_PORT,LED1);
     f16:	5f 98       	cbi	0x0b, 7	; 11
     f18:	08 95       	ret
			} else if ( LedState == LED_OFF) {
     f1a:	61 30       	cpi	r22, 0x01	; 1
     f1c:	11 f4       	brne	.+4      	; 0xf22 <voSetLedState+0x1c>
				LED_OFF_STATE(LED1_PORT,LED1);
     f1e:	5f 9a       	sbi	0x0b, 7	; 11
     f20:	08 95       	ret
			} else {
				LED_TOGGLE_STATE(LED1_PORT,LED1);
     f22:	8b b1       	in	r24, 0x0b	; 11
     f24:	80 58       	subi	r24, 0x80	; 128
     f26:	8b b9       	out	0x0b, r24	; 11
     f28:	08 95       	ret
			}
			
		} break;
		
		case 1:{
			if(LedState == LED_ON){
     f2a:	61 11       	cpse	r22, r1
     f2c:	02 c0       	rjmp	.+4      	; 0xf32 <voSetLedState+0x2c>
				LED_ON_STATE(LED2_PORT,LED2);
     f2e:	2c 98       	cbi	0x05, 4	; 5
     f30:	08 95       	ret
				} else if (LedState == LED_OFF){
     f32:	61 30       	cpi	r22, 0x01	; 1
     f34:	11 f4       	brne	.+4      	; 0xf3a <voSetLedState+0x34>
				LED_OFF_STATE(LED2_PORT,LED2);
     f36:	2c 9a       	sbi	0x05, 4	; 5
     f38:	08 95       	ret
				} else {
				LED_TOGGLE_STATE(LED2_PORT,LED2);
     f3a:	95 b1       	in	r25, 0x05	; 5
     f3c:	80 e1       	ldi	r24, 0x10	; 16
     f3e:	0a c0       	rjmp	.+20     	; 0xf54 <voSetLedState+0x4e>
			}
		}break;
	
		case 2:{
			if(LedState == LED_ON){
     f40:	61 11       	cpse	r22, r1
     f42:	02 c0       	rjmp	.+4      	; 0xf48 <voSetLedState+0x42>
				LED_ON_STATE(LED3_PORT,LED3);
     f44:	2e 98       	cbi	0x05, 6	; 5
     f46:	08 95       	ret
			} else if(LedState == LED_OFF) {
     f48:	61 30       	cpi	r22, 0x01	; 1
     f4a:	11 f4       	brne	.+4      	; 0xf50 <voSetLedState+0x4a>
				LED_OFF_STATE(LED3_PORT,LED3);
     f4c:	2e 9a       	sbi	0x05, 6	; 5
     f4e:	08 95       	ret
			} else {
				LED_TOGGLE_STATE(LED3_PORT,LED3);
     f50:	95 b1       	in	r25, 0x05	; 5
     f52:	80 e4       	ldi	r24, 0x40	; 64
     f54:	89 27       	eor	r24, r25
     f56:	85 b9       	out	0x05, r24	; 5
     f58:	08 95       	ret

00000f5a <emGetLedState>:
	}
}

emLEDSATATE emGetLedState(uint8_t LedIdx){
	emLEDSATATE LedState=LED_OFF;
	switch(LedIdx){
     f5a:	81 30       	cpi	r24, 0x01	; 1
     f5c:	69 f0       	breq	.+26     	; 0xf78 <emGetLedState+0x1e>
     f5e:	38 f0       	brcs	.+14     	; 0xf6e <emGetLedState+0x14>
     f60:	82 30       	cpi	r24, 0x02	; 2
     f62:	71 f4       	brne	.+28     	; 0xf80 <emGetLedState+0x26>
			}
			
		}break;
		
		case 2:{
			if(((LED3_PIN & (1<<LED3))>>LED3)==0){
     f64:	83 b1       	in	r24, 0x03	; 3
	switch(LedIdx){
		case 0: {
			if(((LED1_PIN & (1<<LED1))>>LED1)==0){
				LedState=LED_ON;
			}else{
				LedState=LED_OFF;
     f66:	86 fb       	bst	r24, 6
     f68:	88 27       	eor	r24, r24
     f6a:	80 f9       	bld	r24, 0
     f6c:	08 95       	ret

emLEDSATATE emGetLedState(uint8_t LedIdx){
	emLEDSATATE LedState=LED_OFF;
	switch(LedIdx){
		case 0: {
			if(((LED1_PIN & (1<<LED1))>>LED1)==0){
     f6e:	89 b1       	in	r24, 0x09	; 9
				LedState=LED_ON;
			}else{
				LedState=LED_OFF;
     f70:	88 1f       	adc	r24, r24
     f72:	88 27       	eor	r24, r24
     f74:	88 1f       	adc	r24, r24
     f76:	08 95       	ret
			
			
		} break;
		
		case 1:{
			if(((LED2_PIN & (1<<LED2))>>LED2)==0){
     f78:	83 b1       	in	r24, 0x03	; 3
	switch(LedIdx){
		case 0: {
			if(((LED1_PIN & (1<<LED1))>>LED1)==0){
				LedState=LED_ON;
			}else{
				LedState=LED_OFF;
     f7a:	82 95       	swap	r24
     f7c:	81 70       	andi	r24, 0x01	; 1
     f7e:	08 95       	ret
		}break;
	}
}

emLEDSATATE emGetLedState(uint8_t LedIdx){
	emLEDSATATE LedState=LED_OFF;
     f80:	81 e0       	ldi	r24, 0x01	; 1
			/* We do nothing here */
		}break;
	}
	
	return LedState;
}
     f82:	08 95       	ret

00000f84 <emGetSwitchState>:


emSWITCHSTATE emGetSwitchState(uint8_t SwitchIdx){
	emSWITCHSTATE SwitchState=SWITCH_RELEASED;
	switch(SwitchIdx){
     f84:	81 30       	cpi	r24, 0x01	; 1
     f86:	59 f0       	breq	.+22     	; 0xf9e <emGetSwitchState+0x1a>
     f88:	38 f0       	brcs	.+14     	; 0xf98 <emGetSwitchState+0x14>
     f8a:	82 30       	cpi	r24, 0x02	; 2
     f8c:	69 f4       	brne	.+26     	; 0xfa8 <emGetSwitchState+0x24>
			}
			
		}break;
		
		case 2:{
			if(((SWITCH3_PIN & (1<<SWITCH3))>>SWITCH3)==0){
     f8e:	83 b1       	in	r24, 0x03	; 3
	switch(SwitchIdx){
		case 0: {
			if(((SWITCH1_PIN & (1<<SWITCH1))>>SWITCH1)==0){
				SwitchState=SWITCH_PRESSED;
				}else{
				SwitchState=SWITCH_RELEASED;
     f90:	88 1f       	adc	r24, r24
     f92:	88 27       	eor	r24, r24
     f94:	88 1f       	adc	r24, r24
     f96:	08 95       	ret

emSWITCHSTATE emGetSwitchState(uint8_t SwitchIdx){
	emSWITCHSTATE SwitchState=SWITCH_RELEASED;
	switch(SwitchIdx){
		case 0: {
			if(((SWITCH1_PIN & (1<<SWITCH1))>>SWITCH1)==0){
     f98:	83 b1       	in	r24, 0x03	; 3
				SwitchState=SWITCH_PRESSED;
				}else{
				SwitchState=SWITCH_RELEASED;
     f9a:	81 70       	andi	r24, 0x01	; 1
     f9c:	08 95       	ret
			
			
		} break;
		
		case 1:{
			if(((SWITCH2_PIN & (1<<SWITCH2))>>SWITCH2)==0){
     f9e:	83 b1       	in	r24, 0x03	; 3
	switch(SwitchIdx){
		case 0: {
			if(((SWITCH1_PIN & (1<<SWITCH1))>>SWITCH1)==0){
				SwitchState=SWITCH_PRESSED;
				}else{
				SwitchState=SWITCH_RELEASED;
     fa0:	85 fb       	bst	r24, 5
     fa2:	88 27       	eor	r24, r24
     fa4:	80 f9       	bld	r24, 0
     fa6:	08 95       	ret
	return LedState;
}


emSWITCHSTATE emGetSwitchState(uint8_t SwitchIdx){
	emSWITCHSTATE SwitchState=SWITCH_RELEASED;
     fa8:	81 e0       	ldi	r24, 0x01	; 1
			/* We do nothing here */
		}break;
	}
	
	return SwitchState;
}
     faa:	08 95       	ret

00000fac <emGetHallSwitchState>:

emSWITCHSTATE emGetHallSwitchState(uint8_t SwitchIdx){
	emSWITCHSTATE SwitchState=SWITCH_RELEASED;
	switch(SwitchIdx){
     fac:	88 23       	and	r24, r24
     fae:	39 f0       	breq	.+14     	; 0xfbe <emGetHallSwitchState+0x12>
     fb0:	81 30       	cpi	r24, 0x01	; 1
     fb2:	51 f4       	brne	.+20     	; 0xfc8 <emGetHallSwitchState+0x1c>
			
			
		} break;
		
		case 1:{
			if(((HALL_SW2_PIN & (1<<HALL_SW2))>>HALL_SW2)==0){
     fb4:	86 b1       	in	r24, 0x06	; 6
	switch(SwitchIdx){
		case 0: {
			if(((HALL_SW1_PIN & (1<<HALL_SW1))>>HALL_SW1)==0){
				SwitchState=SWITCH_PRESSED;
				}else{
				SwitchState=SWITCH_RELEASED;
     fb6:	88 1f       	adc	r24, r24
     fb8:	88 27       	eor	r24, r24
     fba:	88 1f       	adc	r24, r24
     fbc:	08 95       	ret

emSWITCHSTATE emGetHallSwitchState(uint8_t SwitchIdx){
	emSWITCHSTATE SwitchState=SWITCH_RELEASED;
	switch(SwitchIdx){
		case 0: {
			if(((HALL_SW1_PIN & (1<<HALL_SW1))>>HALL_SW1)==0){
     fbe:	86 b1       	in	r24, 0x06	; 6
				SwitchState=SWITCH_PRESSED;
				}else{
				SwitchState=SWITCH_RELEASED;
     fc0:	86 fb       	bst	r24, 6
     fc2:	88 27       	eor	r24, r24
     fc4:	80 f9       	bld	r24, 0
     fc6:	08 95       	ret
	
	return SwitchState;
}

emSWITCHSTATE emGetHallSwitchState(uint8_t SwitchIdx){
	emSWITCHSTATE SwitchState=SWITCH_RELEASED;
     fc8:	81 e0       	ldi	r24, 0x01	; 1
			/* We do nothing here */
		}break;
	}
	
	return SwitchState;
}
     fca:	08 95       	ret

00000fcc <voSetHeaterPowerState>:


void voSetHeaterPowerState(emPOWERSTATE PwSt){
	switch(PwSt){
     fcc:	81 11       	cpse	r24, r1
     fce:	02 c0       	rjmp	.+4      	; 0xfd4 <voSetHeaterPowerState+0x8>
		case POWER_ON:{
			HEATER_PORT |= ( 1 << HEATER );
     fd0:	59 9a       	sbi	0x0b, 1	; 11
			
		}break;
     fd2:	08 95       	ret
		case POWER_OFF:{
			HEATER_PORT &= ~( 1 << HEATER );
		} break;
		
		default:{
			HEATER_PORT &= ~( 1 << HEATER );
     fd4:	59 98       	cbi	0x0b, 1	; 11
     fd6:	08 95       	ret

00000fd8 <emGetHeaterPowerState>:
		
	}
	
}
emPOWERSTATE emGetHeaterPowerState( void ){
		if(((HEATER_PIN & (1<<HEATER))>>HEATER)==0){
     fd8:	29 b1       	in	r18, 0x09	; 9
     fda:	21 fb       	bst	r18, 1
     fdc:	88 27       	eor	r24, r24
     fde:	80 f9       	bld	r24, 0
     fe0:	90 e0       	ldi	r25, 0x00	; 0
     fe2:	21 e0       	ldi	r18, 0x01	; 1
     fe4:	82 27       	eor	r24, r18
			return POWER_OFF;
			}else{
			return POWER_ON;
		}
}
     fe6:	81 70       	andi	r24, 0x01	; 1
     fe8:	08 95       	ret

00000fea <voSetPumpPowerState>:

void voSetPumpPowerState(emPOWERSTATE PwSt){
	switch(PwSt){
     fea:	81 11       	cpse	r24, r1
     fec:	02 c0       	rjmp	.+4      	; 0xff2 <voSetPumpPowerState+0x8>
		case POWER_ON:{
			PUMP_PORT |= ( 1 << PUMP );
     fee:	58 9a       	sbi	0x0b, 0	; 11
			
		}break;
     ff0:	08 95       	ret
		case POWER_OFF:{
			PUMP_PORT &= ~( 1 << PUMP );
		} break;
		
		default:{
			PUMP_PORT &= ~( 1 << PUMP );
     ff2:	58 98       	cbi	0x0b, 0	; 11
     ff4:	08 95       	ret

00000ff6 <emGetPumpPowerState>:
	}
	
}

emPOWERSTATE emGetPumpPowerState( void ){
	if(((PUMP_PIN & (1<<PUMP))>>PUMP)==0){
     ff6:	89 b1       	in	r24, 0x09	; 9
     ff8:	80 95       	com	r24
		return POWER_OFF;
		}else{
		return POWER_ON;
	}
}
     ffa:	81 70       	andi	r24, 0x01	; 1
     ffc:	08 95       	ret

00000ffe <voMCP3202_Init>:
#define MCP3202_SGL 7
#define MCP3202_ODD 6
#define MCP3202_MSBF 5

void voMCP3202_Init( ){
	USART_SPI_init();
     ffe:	83 c1       	rjmp	.+774    	; 0x1306 <USART_SPI_init>

00001000 <u16MCP3202_ReadChannel>:
}

uint16_t u16MCP3202_ReadChannel(uint8_t Channel)
{
    1000:	cf 93       	push	r28
    1002:	df 93       	push	r29
    1004:	c8 2f       	mov	r28, r24
			uint8_t u8acd_highvalue;
		}
	} adc_value;
*/	
	uint16_t rawvalue = 0 ; 
	USART_Chip_Select();
    1006:	7b d1       	rcall	.+758    	; 0x12fe <USART_Chip_Select>
	USART_SPI_Transmitt(0x01); /* Start Bit But we need to waste 7 additinal Bits */
    1008:	81 e0       	ldi	r24, 0x01	; 1
    100a:	90 d1       	rcall	.+800    	; 0x132c <USART_SPI_Transmitt>
	if( 0 == Channel ){
    100c:	c1 11       	cpse	r28, r1
    100e:	02 c0       	rjmp	.+4      	; 0x1014 <u16MCP3202_ReadChannel+0x14>
		//adc_value.u8acd_highvalue=USART_SPI_Transmitt( ( 1 << MCP3202_SGL ) |  (1 << MCP3202_ODD) | (1 << MCP3202_MSBF)  ); //SGN=1,ODD=0 -> CH0 SGN=1,ODD=1 -> CH1 ,...MSBF1
		rawvalue=USART_SPI_Transmitt( ( 1 << MCP3202_SGL ) |  (1 << MCP3202_ODD) | (1 << MCP3202_MSBF)  ); //SGN=1,ODD=0 -> CH0 SGN=1,ODD=1 -> CH1 ,...MSBF1
    1010:	80 ee       	ldi	r24, 0xE0	; 224
		rawvalue=rawvalue<<8;
		} else {
		//adc_value.u8acd_highvalue=USART_SPI_Transmitt( ( 1 << MCP3202_SGL ) |  (0 << MCP3202_ODD) | (1 << MCP3202_MSBF)  ); //SGN=1,ODD=0 -> CH0 SGN=1,ODD=1 -> CH1 ,...MSBF1
		rawvalue = USART_SPI_Transmitt( ( 1 << MCP3202_SGL ) |  (0 << MCP3202_ODD) | (1 << MCP3202_MSBF)  ); //SGN=1,ODD=0 -> CH0 SGN=1,ODD=1 -> CH1 ,...MSBF1
    1012:	01 c0       	rjmp	.+2      	; 0x1016 <u16MCP3202_ReadChannel+0x16>
    1014:	80 ea       	ldi	r24, 0xA0	; 160
    1016:	8a d1       	rcall	.+788    	; 0x132c <USART_SPI_Transmitt>
    1018:	c8 2f       	mov	r28, r24
    101a:	d0 e0       	ldi	r29, 0x00	; 0
		rawvalue=rawvalue<<8;
    101c:	dc 2f       	mov	r29, r28
	}
		
	//adc_value.u8adc_lowvalue = USART_SPI_Transmitt(0xAA); //SGN=1,ODD=0 -> CH0 SGN=1,ODD=1 -> CH1 ,...MSBF1
	rawvalue |= USART_SPI_Transmitt(0xAA); //SGN=1,ODD=0 -> CH0 SGN=1,ODD=1 -> CH1 ,...MSBF1
    101e:	cc 27       	eor	r28, r28
    1020:	8a ea       	ldi	r24, 0xAA	; 170
    1022:	84 d1       	rcall	.+776    	; 0x132c <USART_SPI_Transmitt>
	USART_Chip_Deselect();
    1024:	c8 2b       	or	r28, r24
    1026:	6d d1       	rcall	.+730    	; 0x1302 <USART_Chip_Deselect>
	//adc_value.u16adc_value = adc_value.u16adc_value << 4;
	rawvalue= rawvalue <<4;
		
	//return adc_value.u16adc_value;
	return rawvalue;
}
    1028:	ce 01       	movw	r24, r28
    102a:	24 e0       	ldi	r18, 0x04	; 4
    102c:	88 0f       	add	r24, r24
    102e:	99 1f       	adc	r25, r25
    1030:	2a 95       	dec	r18
    1032:	e1 f7       	brne	.-8      	; 0x102c <u16MCP3202_ReadChannel+0x2c>
    1034:	df 91       	pop	r29
    1036:	cf 91       	pop	r28
    1038:	08 95       	ret

0000103a <SBNT_SetSCLtoInput>:
	
}

void SBNT_SetSCLtoInput( void ){
	
	SCL_DDR &= ~(1<<SCL_PIN);
    103a:	3c 98       	cbi	0x07, 4	; 7
	SCL_PORT &= ~(1<<SCL_PIN);
    103c:	44 98       	cbi	0x08, 4	; 8
	SCL_PINREG &= ~(1<<SCL_PIN);
    103e:	34 98       	cbi	0x06, 4	; 6
    1040:	08 95       	ret

00001042 <SBNT_emGetState>:
	/* We need to modify the I2C SCL PIN for this */
	//SCL_DDR &= ~(1<<SCL_PIN); /* Switch to IN */
	/* PORT WILL by HIGH by Default */	
	//SCL_PORT &= ~(1<<SCL_PIN);
	/* PIN will be INPUT now */	
	PIN_VALUE = SCL_PINREG;
    1042:	86 b1       	in	r24, 0x06	; 6
	//SCL_PORT = SCL_PORT_BACKUP;
	//SCL_DDR = SCL_DDR_BACKUP ;
	
	return emReturnvalue;
	
}
    1044:	82 95       	swap	r24
    1046:	81 70       	andi	r24, 0x01	; 1
    1048:	08 95       	ret

0000104a <SDP_voSetIconVisibility>:
		emReturn = BACKLIGHT_OFF;
	}
	
	return emReturn;
	
}
    104a:	84 30       	cpi	r24, 0x04	; 4
    104c:	a1 f1       	breq	.+104    	; 0x10b6 <SDP_voSetIconVisibility+0x6c>
    104e:	48 f4       	brcc	.+18     	; 0x1062 <SDP_voSetIconVisibility+0x18>
    1050:	81 30       	cpi	r24, 0x01	; 1
    1052:	11 f1       	breq	.+68     	; 0x1098 <SDP_voSetIconVisibility+0x4e>
    1054:	90 f0       	brcs	.+36     	; 0x107a <SDP_voSetIconVisibility+0x30>
    1056:	82 30       	cpi	r24, 0x02	; 2
    1058:	09 f4       	brne	.+2      	; 0x105c <SDP_voSetIconVisibility+0x12>
    105a:	4a c0       	rjmp	.+148    	; 0x10f0 <SDP_voSetIconVisibility+0xa6>
    105c:	83 30       	cpi	r24, 0x03	; 3
    105e:	c9 f1       	breq	.+114    	; 0x10d2 <SDP_voSetIconVisibility+0x88>
    1060:	08 95       	ret
    1062:	86 30       	cpi	r24, 0x06	; 6
    1064:	09 f4       	brne	.+2      	; 0x1068 <SDP_voSetIconVisibility+0x1e>
    1066:	62 c0       	rjmp	.+196    	; 0x112c <SDP_voSetIconVisibility+0xe2>
    1068:	08 f4       	brcc	.+2      	; 0x106c <SDP_voSetIconVisibility+0x22>
    106a:	51 c0       	rjmp	.+162    	; 0x110e <SDP_voSetIconVisibility+0xc4>
    106c:	87 30       	cpi	r24, 0x07	; 7
    106e:	09 f4       	brne	.+2      	; 0x1072 <SDP_voSetIconVisibility+0x28>
    1070:	6c c0       	rjmp	.+216    	; 0x114a <SDP_voSetIconVisibility+0x100>
    1072:	88 30       	cpi	r24, 0x08	; 8
    1074:	09 f4       	brne	.+2      	; 0x1078 <SDP_voSetIconVisibility+0x2e>
    1076:	78 c0       	rjmp	.+240    	; 0x1168 <SDP_voSetIconVisibility+0x11e>
    1078:	08 95       	ret
    107a:	80 91 98 02 	lds	r24, 0x0298	; 0x800298 <__data_end>
    107e:	90 91 99 02 	lds	r25, 0x0299	; 0x800299 <__data_end+0x1>
    1082:	61 11       	cpse	r22, r1
    1084:	02 c0       	rjmp	.+4      	; 0x108a <SDP_voSetIconVisibility+0x40>
    1086:	80 62       	ori	r24, 0x20	; 32
    1088:	7c c0       	rjmp	.+248    	; 0x1182 <SDP_voSetIconVisibility+0x138>
    108a:	62 30       	cpi	r22, 0x02	; 2
    108c:	19 f4       	brne	.+6      	; 0x1094 <SDP_voSetIconVisibility+0x4a>
    108e:	20 e2       	ldi	r18, 0x20	; 32
    1090:	82 27       	eor	r24, r18
    1092:	77 c0       	rjmp	.+238    	; 0x1182 <SDP_voSetIconVisibility+0x138>
    1094:	8f 7d       	andi	r24, 0xDF	; 223
    1096:	75 c0       	rjmp	.+234    	; 0x1182 <SDP_voSetIconVisibility+0x138>
    1098:	80 91 98 02 	lds	r24, 0x0298	; 0x800298 <__data_end>
    109c:	90 91 99 02 	lds	r25, 0x0299	; 0x800299 <__data_end+0x1>
    10a0:	61 11       	cpse	r22, r1
    10a2:	02 c0       	rjmp	.+4      	; 0x10a8 <SDP_voSetIconVisibility+0x5e>
    10a4:	84 60       	ori	r24, 0x04	; 4
    10a6:	6d c0       	rjmp	.+218    	; 0x1182 <SDP_voSetIconVisibility+0x138>
    10a8:	62 30       	cpi	r22, 0x02	; 2
    10aa:	19 f4       	brne	.+6      	; 0x10b2 <SDP_voSetIconVisibility+0x68>
    10ac:	24 e0       	ldi	r18, 0x04	; 4
    10ae:	82 27       	eor	r24, r18
    10b0:	68 c0       	rjmp	.+208    	; 0x1182 <SDP_voSetIconVisibility+0x138>
    10b2:	8b 7f       	andi	r24, 0xFB	; 251
    10b4:	66 c0       	rjmp	.+204    	; 0x1182 <SDP_voSetIconVisibility+0x138>
    10b6:	80 91 98 02 	lds	r24, 0x0298	; 0x800298 <__data_end>
    10ba:	90 91 99 02 	lds	r25, 0x0299	; 0x800299 <__data_end+0x1>
    10be:	61 11       	cpse	r22, r1
    10c0:	02 c0       	rjmp	.+4      	; 0x10c6 <SDP_voSetIconVisibility+0x7c>
    10c2:	80 68       	ori	r24, 0x80	; 128
    10c4:	5e c0       	rjmp	.+188    	; 0x1182 <SDP_voSetIconVisibility+0x138>
    10c6:	62 30       	cpi	r22, 0x02	; 2
    10c8:	11 f4       	brne	.+4      	; 0x10ce <SDP_voSetIconVisibility+0x84>
    10ca:	80 58       	subi	r24, 0x80	; 128
    10cc:	5a c0       	rjmp	.+180    	; 0x1182 <SDP_voSetIconVisibility+0x138>
    10ce:	8f 77       	andi	r24, 0x7F	; 127
    10d0:	58 c0       	rjmp	.+176    	; 0x1182 <SDP_voSetIconVisibility+0x138>
    10d2:	80 91 98 02 	lds	r24, 0x0298	; 0x800298 <__data_end>
    10d6:	90 91 99 02 	lds	r25, 0x0299	; 0x800299 <__data_end+0x1>
    10da:	61 11       	cpse	r22, r1
    10dc:	02 c0       	rjmp	.+4      	; 0x10e2 <SDP_voSetIconVisibility+0x98>
    10de:	80 64       	ori	r24, 0x40	; 64
    10e0:	50 c0       	rjmp	.+160    	; 0x1182 <SDP_voSetIconVisibility+0x138>
    10e2:	62 30       	cpi	r22, 0x02	; 2
    10e4:	19 f4       	brne	.+6      	; 0x10ec <SDP_voSetIconVisibility+0xa2>
    10e6:	20 e4       	ldi	r18, 0x40	; 64
    10e8:	82 27       	eor	r24, r18
    10ea:	4b c0       	rjmp	.+150    	; 0x1182 <SDP_voSetIconVisibility+0x138>
    10ec:	8f 7b       	andi	r24, 0xBF	; 191
    10ee:	49 c0       	rjmp	.+146    	; 0x1182 <SDP_voSetIconVisibility+0x138>
    10f0:	80 91 98 02 	lds	r24, 0x0298	; 0x800298 <__data_end>
    10f4:	90 91 99 02 	lds	r25, 0x0299	; 0x800299 <__data_end+0x1>
    10f8:	61 11       	cpse	r22, r1
    10fa:	02 c0       	rjmp	.+4      	; 0x1100 <SDP_voSetIconVisibility+0xb6>
    10fc:	80 61       	ori	r24, 0x10	; 16
    10fe:	41 c0       	rjmp	.+130    	; 0x1182 <SDP_voSetIconVisibility+0x138>
    1100:	62 30       	cpi	r22, 0x02	; 2
    1102:	19 f4       	brne	.+6      	; 0x110a <SDP_voSetIconVisibility+0xc0>
    1104:	20 e1       	ldi	r18, 0x10	; 16
    1106:	82 27       	eor	r24, r18
    1108:	3c c0       	rjmp	.+120    	; 0x1182 <SDP_voSetIconVisibility+0x138>
    110a:	8f 7e       	andi	r24, 0xEF	; 239
    110c:	3a c0       	rjmp	.+116    	; 0x1182 <SDP_voSetIconVisibility+0x138>
    110e:	80 91 98 02 	lds	r24, 0x0298	; 0x800298 <__data_end>
    1112:	90 91 99 02 	lds	r25, 0x0299	; 0x800299 <__data_end+0x1>
    1116:	61 11       	cpse	r22, r1
    1118:	02 c0       	rjmp	.+4      	; 0x111e <SDP_voSetIconVisibility+0xd4>
    111a:	88 60       	ori	r24, 0x08	; 8
    111c:	32 c0       	rjmp	.+100    	; 0x1182 <SDP_voSetIconVisibility+0x138>
    111e:	62 30       	cpi	r22, 0x02	; 2
    1120:	19 f4       	brne	.+6      	; 0x1128 <SDP_voSetIconVisibility+0xde>
    1122:	28 e0       	ldi	r18, 0x08	; 8
    1124:	82 27       	eor	r24, r18
    1126:	2d c0       	rjmp	.+90     	; 0x1182 <SDP_voSetIconVisibility+0x138>
    1128:	87 7f       	andi	r24, 0xF7	; 247
    112a:	2b c0       	rjmp	.+86     	; 0x1182 <SDP_voSetIconVisibility+0x138>
    112c:	80 91 98 02 	lds	r24, 0x0298	; 0x800298 <__data_end>
    1130:	90 91 99 02 	lds	r25, 0x0299	; 0x800299 <__data_end+0x1>
    1134:	61 11       	cpse	r22, r1
    1136:	02 c0       	rjmp	.+4      	; 0x113c <SDP_voSetIconVisibility+0xf2>
    1138:	81 60       	ori	r24, 0x01	; 1
    113a:	23 c0       	rjmp	.+70     	; 0x1182 <SDP_voSetIconVisibility+0x138>
    113c:	62 30       	cpi	r22, 0x02	; 2
    113e:	19 f4       	brne	.+6      	; 0x1146 <SDP_voSetIconVisibility+0xfc>
    1140:	21 e0       	ldi	r18, 0x01	; 1
    1142:	82 27       	eor	r24, r18
    1144:	1e c0       	rjmp	.+60     	; 0x1182 <SDP_voSetIconVisibility+0x138>
    1146:	8e 7f       	andi	r24, 0xFE	; 254
    1148:	1c c0       	rjmp	.+56     	; 0x1182 <SDP_voSetIconVisibility+0x138>
    114a:	80 91 98 02 	lds	r24, 0x0298	; 0x800298 <__data_end>
    114e:	90 91 99 02 	lds	r25, 0x0299	; 0x800299 <__data_end+0x1>
    1152:	61 11       	cpse	r22, r1
    1154:	02 c0       	rjmp	.+4      	; 0x115a <SDP_voSetIconVisibility+0x110>
    1156:	82 60       	ori	r24, 0x02	; 2
    1158:	14 c0       	rjmp	.+40     	; 0x1182 <SDP_voSetIconVisibility+0x138>
    115a:	62 30       	cpi	r22, 0x02	; 2
    115c:	19 f4       	brne	.+6      	; 0x1164 <SDP_voSetIconVisibility+0x11a>
    115e:	22 e0       	ldi	r18, 0x02	; 2
    1160:	82 27       	eor	r24, r18
    1162:	0f c0       	rjmp	.+30     	; 0x1182 <SDP_voSetIconVisibility+0x138>
    1164:	8d 7f       	andi	r24, 0xFD	; 253
    1166:	0d c0       	rjmp	.+26     	; 0x1182 <SDP_voSetIconVisibility+0x138>
    1168:	80 91 98 02 	lds	r24, 0x0298	; 0x800298 <__data_end>
    116c:	90 91 99 02 	lds	r25, 0x0299	; 0x800299 <__data_end+0x1>
    1170:	61 11       	cpse	r22, r1
    1172:	02 c0       	rjmp	.+4      	; 0x1178 <SDP_voSetIconVisibility+0x12e>
    1174:	90 68       	ori	r25, 0x80	; 128
    1176:	05 c0       	rjmp	.+10     	; 0x1182 <SDP_voSetIconVisibility+0x138>
    1178:	62 30       	cpi	r22, 0x02	; 2
    117a:	11 f4       	brne	.+4      	; 0x1180 <SDP_voSetIconVisibility+0x136>
    117c:	90 58       	subi	r25, 0x80	; 128
    117e:	01 c0       	rjmp	.+2      	; 0x1182 <SDP_voSetIconVisibility+0x138>
    1180:	9f 77       	andi	r25, 0x7F	; 127
    1182:	90 93 99 02 	sts	0x0299, r25	; 0x800299 <__data_end+0x1>
    1186:	80 93 98 02 	sts	0x0298, r24	; 0x800298 <__data_end>
    118a:	08 95       	ret

0000118c <voCalcCheckSum>:
    118c:	e8 e9       	ldi	r30, 0x98	; 152
    118e:	f2 e0       	ldi	r31, 0x02	; 2
    1190:	80 81       	ld	r24, Z
    1192:	91 81       	ldd	r25, Z+1	; 0x01
    1194:	90 78       	andi	r25, 0x80	; 128
    1196:	91 83       	std	Z+1, r25	; 0x01
    1198:	80 83       	st	Z, r24
    119a:	80 81       	ld	r24, Z
    119c:	91 81       	ldd	r25, Z+1	; 0x01
    119e:	98 2f       	mov	r25, r24
    11a0:	88 27       	eor	r24, r24
    11a2:	90 95       	com	r25
    11a4:	20 81       	ld	r18, Z
    11a6:	31 81       	ldd	r19, Z+1	; 0x01
    11a8:	88 27       	eor	r24, r24
    11aa:	9f 77       	andi	r25, 0x7F	; 127
    11ac:	82 2b       	or	r24, r18
    11ae:	93 2b       	or	r25, r19
    11b0:	91 83       	std	Z+1, r25	; 0x01
    11b2:	80 83       	st	Z, r24
    11b4:	08 95       	ret

000011b6 <SDP_voRefreshDisplay>:
    11b6:	ea df       	rcall	.-44     	; 0x118c <voCalcCheckSum>
    11b8:	20 91 98 02 	lds	r18, 0x0298	; 0x800298 <__data_end>
    11bc:	30 91 99 02 	lds	r19, 0x0299	; 0x800299 <__data_end+0x1>
    11c0:	80 91 9a 02 	lds	r24, 0x029A	; 0x80029a <__data_end+0x2>
    11c4:	90 91 9b 02 	lds	r25, 0x029B	; 0x80029b <__data_end+0x3>
    11c8:	28 17       	cp	r18, r24
    11ca:	39 07       	cpc	r19, r25
    11cc:	a1 f0       	breq	.+40     	; 0x11f6 <SDP_voRefreshDisplay+0x40>
    11ce:	fb dd       	rcall	.-1034   	; 0xdc6 <i2c_init>
    11d0:	8e e7       	ldi	r24, 0x7E	; 126
    11d2:	fe dd       	rcall	.-1028   	; 0xdd0 <i2c_start>
    11d4:	81 11       	cpse	r24, r1
    11d6:	0e c0       	rjmp	.+28     	; 0x11f4 <SDP_voRefreshDisplay+0x3e>
    11d8:	80 91 98 02 	lds	r24, 0x0298	; 0x800298 <__data_end>
    11dc:	19 de       	rcall	.-974    	; 0xe10 <i2c_write>
    11de:	80 91 99 02 	lds	r24, 0x0299	; 0x800299 <__data_end+0x1>
    11e2:	16 de       	rcall	.-980    	; 0xe10 <i2c_write>
    11e4:	80 91 98 02 	lds	r24, 0x0298	; 0x800298 <__data_end>
    11e8:	90 91 99 02 	lds	r25, 0x0299	; 0x800299 <__data_end+0x1>
    11ec:	90 93 9b 02 	sts	0x029B, r25	; 0x80029b <__data_end+0x3>
    11f0:	80 93 9a 02 	sts	0x029A, r24	; 0x80029a <__data_end+0x2>
    11f4:	05 de       	rcall	.-1014   	; 0xe00 <i2c_stop>
    11f6:	21 cf       	rjmp	.-446    	; 0x103a <SBNT_SetSCLtoInput>

000011f8 <SDP_emGetIconVisibility>:

ICONVISIBLITY_t SDP_emGetIconVisibility(SENSEOICON_t ICON) {
	
	ICONVISIBLITY_t emReturn = INVISIBLE;
	if(ICON < NO_OF_ICONS){
    11f8:	89 30       	cpi	r24, 0x09	; 9
    11fa:	90 f4       	brcc	.+36     	; 0x1220 <SDP_emGetIconVisibility+0x28>
		if( 0 != (DisplayData.PrevWord & (1<<ICON) ) ) {
    11fc:	40 91 9a 02 	lds	r20, 0x029A	; 0x80029a <__data_end+0x2>
    1200:	50 91 9b 02 	lds	r21, 0x029B	; 0x80029b <__data_end+0x3>
	
}

ICONVISIBLITY_t SDP_emGetIconVisibility(SENSEOICON_t ICON) {
	
	ICONVISIBLITY_t emReturn = INVISIBLE;
    1204:	21 e0       	ldi	r18, 0x01	; 1
    1206:	30 e0       	ldi	r19, 0x00	; 0
    1208:	02 c0       	rjmp	.+4      	; 0x120e <SDP_emGetIconVisibility+0x16>
    120a:	22 0f       	add	r18, r18
    120c:	33 1f       	adc	r19, r19
    120e:	8a 95       	dec	r24
    1210:	e2 f7       	brpl	.-8      	; 0x120a <SDP_emGetIconVisibility+0x12>
    1212:	24 23       	and	r18, r20
    1214:	35 23       	and	r19, r21
    1216:	81 e0       	ldi	r24, 0x01	; 1
    1218:	23 2b       	or	r18, r19
    121a:	19 f0       	breq	.+6      	; 0x1222 <SDP_emGetIconVisibility+0x2a>
    121c:	80 e0       	ldi	r24, 0x00	; 0
    121e:	08 95       	ret
    1220:	81 e0       	ldi	r24, 0x01	; 1
			} else {
			emReturn = INVISIBLE;
		}
	}
	return emReturn;
    1222:	08 95       	ret

00001224 <__vector_19>:
	OCR0A =  250;
	TIMSK0 = (1<<OCIE0A);
}

void timer1_setup() /* 10kHz Soft/HW PWM Setup */
{
    1224:	1f 92       	push	r1
    1226:	0f 92       	push	r0
    1228:	0f b6       	in	r0, 0x3f	; 63
    122a:	0f 92       	push	r0
    122c:	11 24       	eor	r1, r1
    122e:	2f 93       	push	r18
    1230:	3f 93       	push	r19
    1232:	4f 93       	push	r20
    1234:	5f 93       	push	r21
    1236:	6f 93       	push	r22
    1238:	7f 93       	push	r23
    123a:	8f 93       	push	r24
    123c:	9f 93       	push	r25
    123e:	af 93       	push	r26
    1240:	bf 93       	push	r27
    1242:	ef 93       	push	r30
    1244:	ff 93       	push	r31
    1246:	80 91 9c 02 	lds	r24, 0x029C	; 0x80029c <Ticks>
    124a:	90 91 9d 02 	lds	r25, 0x029D	; 0x80029d <Ticks+0x1>
    124e:	01 96       	adiw	r24, 0x01	; 1
    1250:	90 93 9d 02 	sts	0x029D, r25	; 0x80029d <Ticks+0x1>
    1254:	80 93 9c 02 	sts	0x029C, r24	; 0x80029c <Ticks>
    1258:	80 91 9c 02 	lds	r24, 0x029C	; 0x80029c <Ticks>
    125c:	90 91 9d 02 	lds	r25, 0x029D	; 0x80029d <Ticks+0x1>
    1260:	80 fd       	sbrc	r24, 0
    1262:	04 c0       	rjmp	.+8      	; 0x126c <__vector_19+0x48>
    1264:	81 e0       	ldi	r24, 0x01	; 1
    1266:	cc de       	rcall	.-616    	; 0x1000 <u16MCP3202_ReadChannel>
    1268:	0e 94 3d 1d 	call	0x3a7a	; 0x3a7a <voPWRMTR_AddNewMessurment>
    126c:	80 91 9c 02 	lds	r24, 0x029C	; 0x80029c <Ticks>
    1270:	90 91 9d 02 	lds	r25, 0x029D	; 0x80029d <Ticks+0x1>
    1274:	8f 77       	andi	r24, 0x7F	; 127
    1276:	99 27       	eor	r25, r25
    1278:	89 2b       	or	r24, r25
    127a:	19 f4       	brne	.+6      	; 0x1282 <__vector_19+0x5e>
    127c:	80 e0       	ldi	r24, 0x00	; 0
    127e:	c0 de       	rcall	.-640    	; 0x1000 <u16MCP3202_ReadChannel>
    1280:	ea d0       	rcall	.+468    	; 0x1456 <voBLTMP_AddNewRawValue>
    1282:	ff 91       	pop	r31
    1284:	ef 91       	pop	r30
    1286:	bf 91       	pop	r27
    1288:	af 91       	pop	r26
    128a:	9f 91       	pop	r25
    128c:	8f 91       	pop	r24
    128e:	7f 91       	pop	r23
    1290:	6f 91       	pop	r22
    1292:	5f 91       	pop	r21
    1294:	4f 91       	pop	r20
    1296:	3f 91       	pop	r19
    1298:	2f 91       	pop	r18
    129a:	0f 90       	pop	r0
    129c:	0f be       	out	0x3f, r0	; 63
    129e:	0f 90       	pop	r0
    12a0:	1f 90       	pop	r1
    12a2:	18 95       	reti

000012a4 <__vector_17>:
    12a4:	1f 92       	push	r1
    12a6:	0f 92       	push	r0
    12a8:	0f b6       	in	r0, 0x3f	; 63
    12aa:	0f 92       	push	r0
    12ac:	11 24       	eor	r1, r1
    12ae:	0f 90       	pop	r0
    12b0:	0f be       	out	0x3f, r0	; 63
    12b2:	0f 90       	pop	r0
    12b4:	1f 90       	pop	r1
    12b6:	18 95       	reti

000012b8 <__vector_16>:
    12b8:	1f 92       	push	r1
    12ba:	0f 92       	push	r0
    12bc:	0f b6       	in	r0, 0x3f	; 63
    12be:	0f 92       	push	r0
    12c0:	11 24       	eor	r1, r1
    12c2:	0f 90       	pop	r0
    12c4:	0f be       	out	0x3f, r0	; 63
    12c6:	0f 90       	pop	r0
    12c8:	1f 90       	pop	r1
    12ca:	18 95       	reti

000012cc <__vector_15>:
    12cc:	1f 92       	push	r1
    12ce:	0f 92       	push	r0
    12d0:	0f b6       	in	r0, 0x3f	; 63
    12d2:	0f 92       	push	r0
    12d4:	11 24       	eor	r1, r1
    12d6:	0f 90       	pop	r0
    12d8:	0f be       	out	0x3f, r0	; 63
    12da:	0f 90       	pop	r0
    12dc:	1f 90       	pop	r1
    12de:	18 95       	reti

000012e0 <timer0_setup>:
    12e0:	82 e0       	ldi	r24, 0x02	; 2
    12e2:	84 bd       	out	0x24, r24	; 36
    12e4:	93 e0       	ldi	r25, 0x03	; 3
    12e6:	95 bd       	out	0x25, r25	; 37
    12e8:	9a ef       	ldi	r25, 0xFA	; 250
    12ea:	97 bd       	out	0x27, r25	; 39
    12ec:	80 93 6e 00 	sts	0x006E, r24	; 0x80006e <__DATA_REGION_ORIGIN__+0xe>
    12f0:	08 95       	ret

000012f2 <voInit_HwTimer>:
    12f2:	f6 cf       	rjmp	.-20     	; 0x12e0 <timer0_setup>

000012f4 <u16GetSystemTicksMS>:

}

uint16_t u16GetSystemTicksMS(){
	
	return Ticks;
    12f4:	80 91 9c 02 	lds	r24, 0x029C	; 0x80029c <Ticks>
    12f8:	90 91 9d 02 	lds	r25, 0x029D	; 0x80029d <Ticks+0x1>

    12fc:	08 95       	ret

000012fe <USART_Chip_Select>:
{
	Transfer->TransferDone=0;
	TransferLen=Transfer->BufferLen;
	TransferPtr = Transfer;
	USART_Chip_Select();
	UCSR1B |= (1<<RXCIE1) | (1<<UDRE1) ; /* Enable TX Done and RX Done ISR */
    12fe:	42 98       	cbi	0x08, 2	; 8
    1300:	08 95       	ret

00001302 <USART_Chip_Deselect>:
    1302:	42 9a       	sbi	0x08, 2	; 8
    1304:	08 95       	ret

00001306 <USART_SPI_init>:
    1306:	ec ec       	ldi	r30, 0xCC	; 204
    1308:	f0 e0       	ldi	r31, 0x00	; 0
    130a:	11 82       	std	Z+1, r1	; 0x01
    130c:	10 82       	st	Z, r1
    130e:	42 9a       	sbi	0x08, 2	; 8
    1310:	3a 9a       	sbi	0x07, 2	; 7
    1312:	5d 9a       	sbi	0x0b, 5	; 11
    1314:	55 9a       	sbi	0x0a, 5	; 10
    1316:	80 ec       	ldi	r24, 0xC0	; 192
    1318:	80 93 ca 00 	sts	0x00CA, r24	; 0x8000ca <__DATA_REGION_ORIGIN__+0x6a>
    131c:	84 e0       	ldi	r24, 0x04	; 4
    131e:	90 e0       	ldi	r25, 0x00	; 0
    1320:	91 83       	std	Z+1, r25	; 0x01
    1322:	80 83       	st	Z, r24
    1324:	88 e1       	ldi	r24, 0x18	; 24
    1326:	80 93 c9 00 	sts	0x00C9, r24	; 0x8000c9 <__DATA_REGION_ORIGIN__+0x69>
    132a:	08 95       	ret

0000132c <USART_SPI_Transmitt>:
    132c:	90 91 c8 00 	lds	r25, 0x00C8	; 0x8000c8 <__DATA_REGION_ORIGIN__+0x68>
    1330:	95 ff       	sbrs	r25, 5
    1332:	fc cf       	rjmp	.-8      	; 0x132c <USART_SPI_Transmitt>
    1334:	80 93 ce 00 	sts	0x00CE, r24	; 0x8000ce <__DATA_REGION_ORIGIN__+0x6e>
    1338:	80 91 c8 00 	lds	r24, 0x00C8	; 0x8000c8 <__DATA_REGION_ORIGIN__+0x68>
    133c:	87 ff       	sbrs	r24, 7
    133e:	fc cf       	rjmp	.-8      	; 0x1338 <USART_SPI_Transmitt+0xc>
    1340:	80 91 ce 00 	lds	r24, 0x00CE	; 0x8000ce <__DATA_REGION_ORIGIN__+0x6e>
    1344:	08 95       	ret

00001346 <__vector_24>:
}

ISR(USART1_UDRE_vect) /*Data Register Empty */
{
    1346:	1f 92       	push	r1
    1348:	0f 92       	push	r0
    134a:	0f b6       	in	r0, 0x3f	; 63
    134c:	0f 92       	push	r0
    134e:	11 24       	eor	r1, r1
    1350:	2f 93       	push	r18
    1352:	3f 93       	push	r19
    1354:	4f 93       	push	r20
    1356:	5f 93       	push	r21
    1358:	6f 93       	push	r22
    135a:	7f 93       	push	r23
    135c:	8f 93       	push	r24
    135e:	9f 93       	push	r25
    1360:	af 93       	push	r26
    1362:	bf 93       	push	r27
    1364:	ef 93       	push	r30
    1366:	ff 93       	push	r31
	if(TransferLen>0){
    1368:	80 91 9e 02 	lds	r24, 0x029E	; 0x80029e <TransferLen>
    136c:	88 23       	and	r24, r24
    136e:	a1 f0       	breq	.+40     	; 0x1398 <__vector_24+0x52>
		TransferLen--;
    1370:	80 91 9e 02 	lds	r24, 0x029E	; 0x80029e <TransferLen>
    1374:	81 50       	subi	r24, 0x01	; 1
    1376:	80 93 9e 02 	sts	0x029E, r24	; 0x80029e <TransferLen>
		if(TransferPtr->TX_Buffer!=NULL) {
    137a:	e0 91 9f 02 	lds	r30, 0x029F	; 0x80029f <TransferPtr>
    137e:	f0 91 a0 02 	lds	r31, 0x02A0	; 0x8002a0 <TransferPtr+0x1>
    1382:	01 90       	ld	r0, Z+
    1384:	f0 81       	ld	r31, Z
    1386:	e0 2d       	mov	r30, r0
    1388:	30 97       	sbiw	r30, 0x00	; 0
    138a:	11 f0       	breq	.+4      	; 0x1390 <__vector_24+0x4a>
			UDR1=*TransferPtr->TX_Buffer;
    138c:	80 81       	ld	r24, Z
    138e:	01 c0       	rjmp	.+2      	; 0x1392 <__vector_24+0x4c>
		} else {
			UDR1=0xAA;	/* Dummy Write */
    1390:	8a ea       	ldi	r24, 0xAA	; 170
    1392:	80 93 ce 00 	sts	0x00CE, r24	; 0x8000ce <__DATA_REGION_ORIGIN__+0x6e>
    1396:	06 c0       	rjmp	.+12     	; 0x13a4 <__vector_24+0x5e>
		}
	
	} else {
      /* Transfer is done */
	  UCSR1B &= ~( (1<<RXCIE1) | (1<<TXCIE1) | (1<<UDRE1) ); /* Disable ISRs */
    1398:	80 91 c9 00 	lds	r24, 0x00C9	; 0x8000c9 <__DATA_REGION_ORIGIN__+0x69>
    139c:	8f 71       	andi	r24, 0x1F	; 31
    139e:	80 93 c9 00 	sts	0x00C9, r24	; 0x8000c9 <__DATA_REGION_ORIGIN__+0x69>
	  USART_Chip_Deselect();
    13a2:	af df       	rcall	.-162    	; 0x1302 <USART_Chip_Deselect>
	}
	
}
    13a4:	ff 91       	pop	r31
    13a6:	ef 91       	pop	r30
    13a8:	bf 91       	pop	r27
    13aa:	af 91       	pop	r26
    13ac:	9f 91       	pop	r25
    13ae:	8f 91       	pop	r24
    13b0:	7f 91       	pop	r23
    13b2:	6f 91       	pop	r22
    13b4:	5f 91       	pop	r21
    13b6:	4f 91       	pop	r20
    13b8:	3f 91       	pop	r19
    13ba:	2f 91       	pop	r18
    13bc:	0f 90       	pop	r0
    13be:	0f be       	out	0x3f, r0	; 63
    13c0:	0f 90       	pop	r0
    13c2:	1f 90       	pop	r1
    13c4:	18 95       	reti

000013c6 <__vector_23>:


ISR(USART1_RX_vect){
    13c6:	1f 92       	push	r1
    13c8:	0f 92       	push	r0
    13ca:	0f b6       	in	r0, 0x3f	; 63
    13cc:	0f 92       	push	r0
    13ce:	11 24       	eor	r1, r1
    13d0:	8f 93       	push	r24
    13d2:	9f 93       	push	r25
    13d4:	af 93       	push	r26
    13d6:	bf 93       	push	r27
    13d8:	ef 93       	push	r30
    13da:	ff 93       	push	r31
	/* Read Datat to Buffer */
	/* If last byte Received notify that data is ready */
	
	if(TransferPtr->RX_Buffer!=NULL){
    13dc:	e0 91 9f 02 	lds	r30, 0x029F	; 0x80029f <TransferPtr>
    13e0:	f0 91 a0 02 	lds	r31, 0x02A0	; 0x8002a0 <TransferPtr+0x1>
    13e4:	a2 81       	ldd	r26, Z+2	; 0x02
    13e6:	b3 81       	ldd	r27, Z+3	; 0x03
		*TransferPtr->RX_Buffer=UDR1;
    13e8:	80 91 ce 00 	lds	r24, 0x00CE	; 0x8000ce <__DATA_REGION_ORIGIN__+0x6e>

ISR(USART1_RX_vect){
	/* Read Datat to Buffer */
	/* If last byte Received notify that data is ready */
	
	if(TransferPtr->RX_Buffer!=NULL){
    13ec:	10 97       	sbiw	r26, 0x00	; 0
    13ee:	31 f0       	breq	.+12     	; 0x13fc <__vector_23+0x36>
		*TransferPtr->RX_Buffer=UDR1;
    13f0:	8c 93       	st	X, r24
		TransferPtr->RX_Buffer++;
    13f2:	82 81       	ldd	r24, Z+2	; 0x02
    13f4:	93 81       	ldd	r25, Z+3	; 0x03
    13f6:	01 96       	adiw	r24, 0x01	; 1
    13f8:	93 83       	std	Z+3, r25	; 0x03
    13fa:	82 83       	std	Z+2, r24	; 0x02
	} else {
		__attribute__ ((unused)) uint8_t  temp=UDR1;	/* Dummy Read */
	}
	
    13fc:	ff 91       	pop	r31
    13fe:	ef 91       	pop	r30
    1400:	bf 91       	pop	r27
    1402:	af 91       	pop	r26
    1404:	9f 91       	pop	r25
    1406:	8f 91       	pop	r24
    1408:	0f 90       	pop	r0
    140a:	0f be       	out	0x3f, r0	; 63
    140c:	0f 90       	pop	r0
    140e:	1f 90       	pop	r1
    1410:	18 95       	reti

00001412 <voBTC_TaskInit>:
}

int16_t s16BTC_GetBoilerSetTemp( void ){
	
	return s16BoilerSetpoint;
}
    1412:	80 e0       	ldi	r24, 0x00	; 0
    1414:	0e 94 8a 1c 	call	0x3914	; 0x3914 <voHPC_SetPowerOutput>
    1418:	10 92 a2 02 	sts	0x02A2, r1	; 0x8002a2 <s16BoilerSetpoint+0x1>
    141c:	10 92 a1 02 	sts	0x02A1, r1	; 0x8002a1 <s16BoilerSetpoint>
    1420:	08 95       	ret

00001422 <voBTC_Task>:
    1422:	36 d0       	rcall	.+108    	; 0x1490 <s16BLTMP_GetBoilerTemp>
    1424:	20 91 a1 02 	lds	r18, 0x02A1	; 0x8002a1 <s16BoilerSetpoint>
    1428:	30 91 a2 02 	lds	r19, 0x02A2	; 0x8002a2 <s16BoilerSetpoint+0x1>
    142c:	82 17       	cp	r24, r18
    142e:	93 07       	cpc	r25, r19
    1430:	14 f4       	brge	.+4      	; 0x1436 <voBTC_Task+0x14>
    1432:	80 e0       	ldi	r24, 0x00	; 0
    1434:	01 c0       	rjmp	.+2      	; 0x1438 <voBTC_Task+0x16>
    1436:	81 e0       	ldi	r24, 0x01	; 1
    1438:	c9 cd       	rjmp	.-1134   	; 0xfcc <voSetHeaterPowerState>

0000143a <voBTC_SetBoilerSetTemp>:
    143a:	90 93 a2 02 	sts	0x02A2, r25	; 0x8002a2 <s16BoilerSetpoint+0x1>
    143e:	80 93 a1 02 	sts	0x02A1, r24	; 0x8002a1 <s16BoilerSetpoint>
    1442:	08 95       	ret

00001444 <s16BTC_GetCurrentBoilerTemp>:

int16_t s16BTC_GetCurrentBoilerTemp( void ){
	return s16BLTMP_GetBoilerTemp();	
    1444:	25 c0       	rjmp	.+74     	; 0x1490 <s16BLTMP_GetBoilerTemp>

00001446 <boBTC_GetIsHeating>:
}

bool boBTC_GetIsHeating( void ){
	if(emGetHeaterPowerState()!=POWER_OFF){
    1446:	c8 dd       	rcall	.-1136   	; 0xfd8 <emGetHeaterPowerState>
    1448:	91 e0       	ldi	r25, 0x01	; 1
    144a:	81 30       	cpi	r24, 0x01	; 1
    144c:	09 f4       	brne	.+2      	; 0x1450 <boBTC_GetIsHeating+0xa>
    144e:	90 e0       	ldi	r25, 0x00	; 0
		return true; 
	} else {
		return false;
	}
    1450:	89 2f       	mov	r24, r25
    1452:	08 95       	ret

00001454 <voBLTMP_InitBoilerTemp>:
#include "boilertemp.h"

volatile int16_t BoilerTemp;
volatile uint16_t BoilerRawValue;

void voBLTMP_InitBoilerTemp(){
    1454:	08 95       	ret

00001456 <voBLTMP_AddNewRawValue>:

void voBLTMP_AddNewRawValue(uint16_t RawValue){
	
	int32_t LocBoilerTemp=0;
	
	BoilerRawValue= RawValue;
    1456:	90 93 15 03 	sts	0x0315, r25	; 0x800315 <BoilerRawValue+0x1>
    145a:	80 93 14 03 	sts	0x0314, r24	; 0x800314 <BoilerRawValue>
	LocBoilerTemp = (int32_t)RawValue - (int32_t)364;
    145e:	a0 e0       	ldi	r26, 0x00	; 0
    1460:	b0 e0       	ldi	r27, 0x00	; 0
    1462:	bc 01       	movw	r22, r24
    1464:	cd 01       	movw	r24, r26
    1466:	6c 56       	subi	r22, 0x6C	; 108
    1468:	71 40       	sbci	r23, 0x01	; 1
    146a:	81 09       	sbc	r24, r1
    146c:	91 09       	sbc	r25, r1
	LocBoilerTemp = LocBoilerTemp * 100;
    146e:	24 e6       	ldi	r18, 0x64	; 100
    1470:	30 e0       	ldi	r19, 0x00	; 0
    1472:	40 e0       	ldi	r20, 0x00	; 0
    1474:	50 e0       	ldi	r21, 0x00	; 0
    1476:	0e 94 a3 25 	call	0x4b46	; 0x4b46 <__mulsi3>
	if(LocBoilerTemp > INT16_MAX ){
		BoilerTemp = INT16_MAX;
	} else if ( LocBoilerTemp < INT16_MIN){
		BoilerTemp = INT16_MIN;
	} else {
		BoilerTemp = LocBoilerTemp;
    147a:	20 ed       	ldi	r18, 0xD0	; 208
    147c:	31 e0       	ldi	r19, 0x01	; 1
    147e:	40 e0       	ldi	r20, 0x00	; 0
    1480:	50 e0       	ldi	r21, 0x00	; 0
    1482:	0e 94 f2 25 	call	0x4be4	; 0x4be4 <__divmodsi4>
    1486:	30 93 17 03 	sts	0x0317, r19	; 0x800317 <BoilerTemp+0x1>
    148a:	20 93 16 03 	sts	0x0316, r18	; 0x800316 <BoilerTemp>
    148e:	08 95       	ret

00001490 <s16BLTMP_GetBoilerTemp>:
	/* LocoilerTemp is now in 1/100C and we keep away of our float */
	
}

int16_t s16BLTMP_GetBoilerTemp(){
	return BoilerTemp;		
    1490:	80 91 16 03 	lds	r24, 0x0316	; 0x800316 <BoilerTemp>
    1494:	90 91 17 03 	lds	r25, 0x0317	; 0x800317 <BoilerTemp+0x1>
}
    1498:	08 95       	ret

0000149a <voKeyEvent_TaskInit>:
static volatile KeyEventRegister_t astrKeyEventRegister[4];

emSWITCHSTATE emGetSwitchStateHAL( uint8_t index );


void voKeyEvent_TaskInit( void ){
    149a:	80 e0       	ldi	r24, 0x00	; 0
    149c:	90 e0       	ldi	r25, 0x00	; 0
	
	for(uint8_t i=0; i < NoOfKeys ; i++){
		astrKeyEventRegister[i].Debouncecounter=0;
		astrKeyEventRegister[i].IntermediateSwitchstate=SWITCH_RELEASED;
    149e:	21 e0       	ldi	r18, 0x01	; 1
		astrKeyEventRegister[i].KeyEvent.KeyChangeState=KeyInvalide;
    14a0:	32 e0       	ldi	r19, 0x02	; 2


void voKeyEvent_TaskInit( void ){
	
	for(uint8_t i=0; i < NoOfKeys ; i++){
		astrKeyEventRegister[i].Debouncecounter=0;
    14a2:	fc 01       	movw	r30, r24
    14a4:	43 e0       	ldi	r20, 0x03	; 3
    14a6:	ee 0f       	add	r30, r30
    14a8:	ff 1f       	adc	r31, r31
    14aa:	4a 95       	dec	r20
    14ac:	e1 f7       	brne	.-8      	; 0x14a6 <voKeyEvent_TaskInit+0xc>
    14ae:	ed 55       	subi	r30, 0x5D	; 93
    14b0:	fd 4f       	sbci	r31, 0xFD	; 253
    14b2:	15 82       	std	Z+5, r1	; 0x05
		astrKeyEventRegister[i].IntermediateSwitchstate=SWITCH_RELEASED;
    14b4:	26 83       	std	Z+6, r18	; 0x06
		astrKeyEventRegister[i].KeyEvent.KeyChangeState=KeyInvalide;
    14b6:	32 83       	std	Z+2, r19	; 0x02
		astrKeyEventRegister[i].KeyEvent.SwitchState=SWITCH_RELEASED;
    14b8:	23 83       	std	Z+3, r18	; 0x03
    14ba:	01 96       	adiw	r24, 0x01	; 1
emSWITCHSTATE emGetSwitchStateHAL( uint8_t index );


void voKeyEvent_TaskInit( void ){
	
	for(uint8_t i=0; i < NoOfKeys ; i++){
    14bc:	84 30       	cpi	r24, 0x04	; 4
    14be:	91 05       	cpc	r25, r1
    14c0:	81 f7       	brne	.-32     	; 0x14a2 <voKeyEvent_TaskInit+0x8>
		astrKeyEventRegister[i].IntermediateSwitchstate=SWITCH_RELEASED;
		astrKeyEventRegister[i].KeyEvent.KeyChangeState=KeyInvalide;
		astrKeyEventRegister[i].KeyEvent.SwitchState=SWITCH_RELEASED;
	}
	
}
    14c2:	08 95       	ret

000014c4 <emGetSwitchStateHAL>:

emSWITCHSTATE emGetSwitchStateHAL( uint8_t index ){
	
	emSWITCHSTATE emReturnValue=SWITCH_RELEASED;
	/* This will grab the keys from the different driver and map them in the array */
	switch(index){
    14c4:	83 30       	cpi	r24, 0x03	; 3
    14c6:	18 f0       	brcs	.+6      	; 0x14ce <emGetSwitchStateHAL+0xa>
    14c8:	83 30       	cpi	r24, 0x03	; 3
    14ca:	11 f4       	brne	.+4      	; 0x14d0 <emGetSwitchStateHAL+0xc>
			emReturnValue = emGetSwitchState( index );
			
		} break;
		
		case 3:{
			emReturnValue = SBNT_emGetState();
    14cc:	ba cd       	rjmp	.-1164   	; 0x1042 <SBNT_emGetState>
	switch(index){
		case 0:
		case 1:
		case 2:
		{
			emReturnValue = emGetSwitchState( index );
    14ce:	5a cd       	rjmp	.-1356   	; 0xf84 <emGetSwitchState>
    14d0:	81 e0       	ldi	r24, 0x01	; 1
		}
	}
	
	return emReturnValue;
	
};
    14d2:	08 95       	ret

000014d4 <voKeyEvent_Task>:
    14d4:	0f 93       	push	r16
		astrKeyEventRegister[i].KeyEvent.SwitchState=SWITCH_RELEASED;
	}
	
}

void voKeyEvent_Task( void ){
    14d6:	1f 93       	push	r17
    14d8:	cf 93       	push	r28
    14da:	df 93       	push	r29
    14dc:	c0 e0       	ldi	r28, 0x00	; 0
    14de:	d0 e0       	ldi	r29, 0x00	; 0
		} else {
			if( astrKeyEventRegister[i].Debouncecounter == Debouncelimit ){
				
				/* We have found our Event */
				astrKeyEventRegister[i].KeyEvent.SwitchState=State;
				astrKeyEventRegister[i].KeyEvent.KeyChangeState=KeyChanged;
    14e0:	11 e0       	ldi	r17, 0x01	; 1
		}
		if( (astrKeyEventRegister[i].KeyPressDuration > 0 ) && (astrKeyEventRegister[i].KeyPressDuration < 400 ) ) { //We cll this every 10ms
			//Keypress less than 4 seconds is considered short
			astrKeyEventRegister[i].KeyEvent.KeyPressType = KeyShortPressed;
		} else if (astrKeyEventRegister[i].KeyPressDuration >= 400 ){
			astrKeyEventRegister[i].KeyEvent.KeyPressType = KeyLongPressed;
    14e2:	02 e0       	ldi	r16, 0x02	; 2
	
	/* We need to check each key here */
	
	for(uint8_t i=0;i<NoOfKeys;i++){
		
		emSWITCHSTATE State = emGetSwitchStateHAL(i);
    14e4:	8c 2f       	mov	r24, r28
    14e6:	ee df       	rcall	.-36     	; 0x14c4 <emGetSwitchStateHAL>
		
		if(State != astrKeyEventRegister[i].IntermediateSwitchstate ){
    14e8:	9e 01       	movw	r18, r28
    14ea:	93 e0       	ldi	r25, 0x03	; 3
    14ec:	22 0f       	add	r18, r18
    14ee:	33 1f       	adc	r19, r19
    14f0:	9a 95       	dec	r25
    14f2:	e1 f7       	brne	.-8      	; 0x14ec <voKeyEvent_Task+0x18>
    14f4:	f9 01       	movw	r30, r18
    14f6:	ed 55       	subi	r30, 0x5D	; 93
    14f8:	fd 4f       	sbci	r31, 0xFD	; 253
    14fa:	96 81       	ldd	r25, Z+6	; 0x06
    14fc:	89 17       	cp	r24, r25
    14fe:	31 f0       	breq	.+12     	; 0x150c <voKeyEvent_Task+0x38>
			astrKeyEventRegister[i].Debouncecounter=0;
    1500:	15 82       	std	Z+5, r1	; 0x05
			astrKeyEventRegister[i].IntermediateSwitchstate = State;
    1502:	86 83       	std	Z+6, r24	; 0x06
			
			if(astrKeyEventRegister[i].KeyStateRead==KEYSTATE_READ){
    1504:	87 81       	ldd	r24, Z+7	; 0x07
    1506:	81 11       	cpse	r24, r1
    1508:	19 c0       	rjmp	.+50     	; 0x153c <voKeyEvent_Task+0x68>
    150a:	0d c0       	rjmp	.+26     	; 0x1526 <voKeyEvent_Task+0x52>
				astrKeyEventRegister[i].KeyEvent.KeyChangeState = KeyUnchanged;
			}	
		} else {
			if( astrKeyEventRegister[i].Debouncecounter == Debouncelimit ){
    150c:	95 81       	ldd	r25, Z+5	; 0x05
    150e:	95 30       	cpi	r25, 0x05	; 5
    1510:	21 f4       	brne	.+8      	; 0x151a <voKeyEvent_Task+0x46>
				
				/* We have found our Event */
				astrKeyEventRegister[i].KeyEvent.SwitchState=State;
    1512:	83 83       	std	Z+3, r24	; 0x03
				astrKeyEventRegister[i].KeyEvent.KeyChangeState=KeyChanged;
    1514:	12 83       	std	Z+2, r17	; 0x02
				astrKeyEventRegister[i].KeyStateRead = KEYSTATE_NOT_READ;
    1516:	17 83       	std	Z+7, r17	; 0x07
    1518:	0e c0       	rjmp	.+28     	; 0x1536 <voKeyEvent_Task+0x62>
				astrKeyEventRegister[i].Debouncecounter++;	
				
			} else if ( ( astrKeyEventRegister[i].Debouncecounter > Debouncelimit) && (astrKeyEventRegister[i].KeyStateRead == KEYSTATE_READ ) ) {
    151a:	85 81       	ldd	r24, Z+5	; 0x05
    151c:	86 30       	cpi	r24, 0x06	; 6
    151e:	28 f0       	brcs	.+10     	; 0x152a <voKeyEvent_Task+0x56>
    1520:	87 81       	ldd	r24, Z+7	; 0x07
    1522:	81 11       	cpse	r24, r1
    1524:	02 c0       	rjmp	.+4      	; 0x152a <voKeyEvent_Task+0x56>
				
				astrKeyEventRegister[i].KeyEvent.KeyChangeState = KeyUnchanged;
    1526:	12 82       	std	Z+2, r1	; 0x02
    1528:	09 c0       	rjmp	.+18     	; 0x153c <voKeyEvent_Task+0x68>
			
			} else {
				if(astrKeyEventRegister[i].Debouncecounter<255){
    152a:	f9 01       	movw	r30, r18
    152c:	ed 55       	subi	r30, 0x5D	; 93
    152e:	fd 4f       	sbci	r31, 0xFD	; 253
    1530:	85 81       	ldd	r24, Z+5	; 0x05
    1532:	8f 3f       	cpi	r24, 0xFF	; 255
    1534:	19 f0       	breq	.+6      	; 0x153c <voKeyEvent_Task+0x68>
					astrKeyEventRegister[i].Debouncecounter++;	
    1536:	85 81       	ldd	r24, Z+5	; 0x05
    1538:	8f 5f       	subi	r24, 0xFF	; 255
    153a:	85 83       	std	Z+5, r24	; 0x05
				}
				
			}
			
		}
	    if ( astrKeyEventRegister[i].KeyEvent.SwitchState == SWITCH_PRESSED ){
    153c:	f9 01       	movw	r30, r18
    153e:	ed 55       	subi	r30, 0x5D	; 93
    1540:	fd 4f       	sbci	r31, 0xFD	; 253
    1542:	83 81       	ldd	r24, Z+3	; 0x03
    1544:	81 11       	cpse	r24, r1
    1546:	0a c0       	rjmp	.+20     	; 0x155c <voKeyEvent_Task+0x88>
			if(astrKeyEventRegister[i].KeyPressDuration < UINT16_MAX){
    1548:	80 81       	ld	r24, Z
    154a:	91 81       	ldd	r25, Z+1	; 0x01
    154c:	01 96       	adiw	r24, 0x01	; 1
    154e:	59 f0       	breq	.+22     	; 0x1566 <voKeyEvent_Task+0x92>
				astrKeyEventRegister[i].KeyPressDuration++;
    1550:	80 81       	ld	r24, Z
    1552:	91 81       	ldd	r25, Z+1	; 0x01
    1554:	01 96       	adiw	r24, 0x01	; 1
    1556:	91 83       	std	Z+1, r25	; 0x01
    1558:	80 83       	st	Z, r24
    155a:	05 c0       	rjmp	.+10     	; 0x1566 <voKeyEvent_Task+0x92>
			}
		} else if( astrKeyEventRegister[i].KeyEvent.SwitchState == SWITCH_RELEASED ){
    155c:	83 81       	ldd	r24, Z+3	; 0x03
    155e:	81 30       	cpi	r24, 0x01	; 1
    1560:	11 f4       	brne	.+4      	; 0x1566 <voKeyEvent_Task+0x92>
			astrKeyEventRegister[i].KeyPressDuration=0;
    1562:	11 82       	std	Z+1, r1	; 0x01
    1564:	10 82       	st	Z, r1
		}
		if( (astrKeyEventRegister[i].KeyPressDuration > 0 ) && (astrKeyEventRegister[i].KeyPressDuration < 400 ) ) { //We cll this every 10ms
    1566:	f9 01       	movw	r30, r18
    1568:	ed 55       	subi	r30, 0x5D	; 93
    156a:	fd 4f       	sbci	r31, 0xFD	; 253
    156c:	80 81       	ld	r24, Z
    156e:	91 81       	ldd	r25, Z+1	; 0x01
    1570:	89 2b       	or	r24, r25
    1572:	39 f0       	breq	.+14     	; 0x1582 <voKeyEvent_Task+0xae>
    1574:	80 81       	ld	r24, Z
    1576:	91 81       	ldd	r25, Z+1	; 0x01
    1578:	80 39       	cpi	r24, 0x90	; 144
    157a:	91 40       	sbci	r25, 0x01	; 1
    157c:	10 f4       	brcc	.+4      	; 0x1582 <voKeyEvent_Task+0xae>
			//Keypress less than 4 seconds is considered short
			astrKeyEventRegister[i].KeyEvent.KeyPressType = KeyShortPressed;
    157e:	14 83       	std	Z+4, r17	; 0x04
    1580:	0f c0       	rjmp	.+30     	; 0x15a0 <voKeyEvent_Task+0xcc>
		} else if (astrKeyEventRegister[i].KeyPressDuration >= 400 ){
    1582:	f9 01       	movw	r30, r18
    1584:	ed 55       	subi	r30, 0x5D	; 93
    1586:	fd 4f       	sbci	r31, 0xFD	; 253
    1588:	80 81       	ld	r24, Z
    158a:	91 81       	ldd	r25, Z+1	; 0x01
    158c:	80 39       	cpi	r24, 0x90	; 144
    158e:	91 40       	sbci	r25, 0x01	; 1
    1590:	10 f0       	brcs	.+4      	; 0x1596 <voKeyEvent_Task+0xc2>
			astrKeyEventRegister[i].KeyEvent.KeyPressType = KeyLongPressed;
    1592:	04 83       	std	Z+4, r16	; 0x04
    1594:	05 c0       	rjmp	.+10     	; 0x15a0 <voKeyEvent_Task+0xcc>
		} else if (0 == astrKeyEventRegister[i].KeyPressDuration  ){
    1596:	80 81       	ld	r24, Z
    1598:	91 81       	ldd	r25, Z+1	; 0x01
    159a:	89 2b       	or	r24, r25
    159c:	09 f4       	brne	.+2      	; 0x15a0 <voKeyEvent_Task+0xcc>
			astrKeyEventRegister[i].KeyEvent.KeyPressType = KeyNotPressed;
    159e:	14 82       	std	Z+4, r1	; 0x04
    15a0:	21 96       	adiw	r28, 0x01	; 1

void voKeyEvent_Task( void ){
	
	/* We need to check each key here */
	
	for(uint8_t i=0;i<NoOfKeys;i++){
    15a2:	c4 30       	cpi	r28, 0x04	; 4
    15a4:	d1 05       	cpc	r29, r1
    15a6:	09 f0       	breq	.+2      	; 0x15aa <voKeyEvent_Task+0xd6>
    15a8:	9d cf       	rjmp	.-198    	; 0x14e4 <voKeyEvent_Task+0x10>
		} else if (0 == astrKeyEventRegister[i].KeyPressDuration  ){
			astrKeyEventRegister[i].KeyEvent.KeyPressType = KeyNotPressed;
		}
		
	}	
}
    15aa:	df 91       	pop	r29
    15ac:	cf 91       	pop	r28
    15ae:	1f 91       	pop	r17
    15b0:	0f 91       	pop	r16
    15b2:	08 95       	ret

000015b4 <strGetKeyEvent>:
	
};

KeyEvent_t strGetKeyEvent( uint8_t KeyIdx ){
	
	if(KeyIdx < NoOfKeys) {
    15b4:	84 30       	cpi	r24, 0x04	; 4
    15b6:	70 f4       	brcc	.+28     	; 0x15d4 <strGetKeyEvent+0x20>
		astrKeyEventRegister[KeyIdx].KeyStateRead=KEYSTATE_READ;
    15b8:	e8 2f       	mov	r30, r24
    15ba:	f0 e0       	ldi	r31, 0x00	; 0
    15bc:	83 e0       	ldi	r24, 0x03	; 3
    15be:	ee 0f       	add	r30, r30
    15c0:	ff 1f       	adc	r31, r31
    15c2:	8a 95       	dec	r24
    15c4:	e1 f7       	brne	.-8      	; 0x15be <strGetKeyEvent+0xa>
    15c6:	ed 55       	subi	r30, 0x5D	; 93
    15c8:	fd 4f       	sbci	r31, 0xFD	; 253
    15ca:	17 82       	std	Z+7, r1	; 0x07
		return astrKeyEventRegister[KeyIdx].KeyEvent;
    15cc:	62 81       	ldd	r22, Z+2	; 0x02
    15ce:	73 81       	ldd	r23, Z+3	; 0x03
    15d0:	84 81       	ldd	r24, Z+4	; 0x04
    15d2:	08 95       	ret
	} else {
		return astrKeyEventRegister[NoOfKeys-1].KeyEvent;
    15d4:	60 91 bd 02 	lds	r22, 0x02BD	; 0x8002bd <astrKeyEventRegister+0x1a>
    15d8:	70 91 be 02 	lds	r23, 0x02BE	; 0x8002be <astrKeyEventRegister+0x1b>
    15dc:	80 91 bf 02 	lds	r24, 0x02BF	; 0x8002bf <astrKeyEventRegister+0x1c>
	}
	
}
    15e0:	08 95       	ret

000015e2 <u16GetStandbyTemp>:
void voCoffeeFSM_DrawWaterEmpty( bool boEmpty );
void voCoffeeFSM_DrawThermometer( bool boHeating, bool boOvertemp );
void voProcessLidKey(coffeefsm_t emFSMState);

uint16_t u16GetStandbyTemp( void ){
	return tFSMSettings.u16StandbyTemp;
    15e2:	80 91 de 02 	lds	r24, 0x02DE	; 0x8002de <tFSMSettings+0x5>
    15e6:	90 91 df 02 	lds	r25, 0x02DF	; 0x8002df <tFSMSettings+0x6>
}
    15ea:	08 95       	ret

000015ec <voSetStandbyTemp>:

void voSetStandbyTemp( uint16_t Temp ){
    15ec:	80 31       	cpi	r24, 0x10	; 16
    15ee:	27 e2       	ldi	r18, 0x27	; 39
    15f0:	92 07       	cpc	r25, r18
    15f2:	10 f0       	brcs	.+4      	; 0x15f8 <voSetStandbyTemp+0xc>
    15f4:	8f e0       	ldi	r24, 0x0F	; 15
    15f6:	97 e2       	ldi	r25, 0x27	; 39
	if(Temp>9999){
		Temp=9999;
	}
	tFSMSettings.u16StandbyTemp=Temp;
    15f8:	90 93 df 02 	sts	0x02DF, r25	; 0x8002df <tFSMSettings+0x6>
    15fc:	80 93 de 02 	sts	0x02DE, r24	; 0x8002de <tFSMSettings+0x5>
	voEEFS_WriteSystemSettings((systemsettings_t*)&tFSMSettings);
    1600:	89 ed       	ldi	r24, 0xD9	; 217
    1602:	92 e0       	ldi	r25, 0x02	; 2
    1604:	0c 94 0b 1a 	jmp	0x3416	; 0x3416 <voEEFS_WriteSystemSettings>

00001608 <voCoffeeFSM_TaskInit>:
}

void voCoffeeFSM_TaskInit( void ){
	
	/* We need to Init the FSM to a known state */
	emFSMState = coffeemaker_idle;
    1608:	10 92 e3 02 	sts	0x02E3, r1	; 0x8002e3 <emFSMState>
    160c:	08 95       	ret

0000160e <boCoffeeFSM_LoadProgramm>:
	
}

bool boCoffeeFSM_LoadProgramm(uint8_t idx){
    160e:	1f 93       	push	r17
    1610:	cf 93       	push	r28
    1612:	df 93       	push	r29
    1614:	cd b7       	in	r28, 0x3d	; 61
    1616:	de b7       	in	r29, 0x3e	; 62
    1618:	60 97       	sbiw	r28, 0x10	; 16
    161a:	0f b6       	in	r0, 0x3f	; 63
    161c:	f8 94       	cli
    161e:	de bf       	out	0x3e, r29	; 62
    1620:	0f be       	out	0x3f, r0	; 63
    1622:	cd bf       	out	0x3d, r28	; 61

bool boReturnval=false;
bool boLoadVal=false;
usersettings_t tCoffeProg;

	if( (emFSMState==coffeemaker_idle) || (emFSMState==coffeemaker_preheat) ){
    1624:	90 91 e3 02 	lds	r25, 0x02E3	; 0x8002e3 <emFSMState>
    1628:	99 23       	and	r25, r25
    162a:	31 f0       	breq	.+12     	; 0x1638 <boCoffeeFSM_LoadProgramm+0x2a>
    162c:	90 91 e3 02 	lds	r25, 0x02E3	; 0x8002e3 <emFSMState>
    1630:	91 30       	cpi	r25, 0x01	; 1
    1632:	11 f0       	breq	.+4      	; 0x1638 <boCoffeeFSM_LoadProgramm+0x2a>
	
}

bool boCoffeeFSM_LoadProgramm(uint8_t idx){

bool boReturnval=false;
    1634:	80 e0       	ldi	r24, 0x00	; 0
    1636:	16 c0       	rjmp	.+44     	; 0x1664 <boCoffeeFSM_LoadProgramm+0x56>
bool boLoadVal=false;
usersettings_t tCoffeProg;

	if( (emFSMState==coffeemaker_idle) || (emFSMState==coffeemaker_preheat) ){
		/* idx 0 to 7 are the eeprom programms */
		if(8 > idx ){
    1638:	88 30       	cpi	r24, 0x08	; 8
    163a:	e0 f7       	brcc	.-8      	; 0x1634 <boCoffeeFSM_LoadProgramm+0x26>
    163c:	18 2f       	mov	r17, r24
			/* We have a idx in the range 0 to 7 */
			/* Programm will be loaded from eeprom */
			
			boLoadVal=boEEFS_ReadUserProgramm(idx,&tCoffeProg);
    163e:	be 01       	movw	r22, r28
    1640:	6f 5f       	subi	r22, 0xFF	; 255
    1642:	7f 4f       	sbci	r23, 0xFF	; 255
    1644:	0e 94 a8 1a 	call	0x3550	; 0x3550 <boEEFS_ReadUserProgramm>
			if(boLoadVal==true){
    1648:	88 23       	and	r24, r24
    164a:	a1 f3       	breq	.-24     	; 0x1634 <boCoffeeFSM_LoadProgramm+0x26>
				/* Copy the new coffeepro to ram for the fsm */
				memcpy((usersettings_t*)&tFSMCoffeProg,&tCoffeProg, sizeof(usersettings_t));
    164c:	80 e1       	ldi	r24, 0x10	; 16
    164e:	fe 01       	movw	r30, r28
    1650:	31 96       	adiw	r30, 0x01	; 1
    1652:	a9 ec       	ldi	r26, 0xC9	; 201
    1654:	b2 e0       	ldi	r27, 0x02	; 2
    1656:	01 90       	ld	r0, Z+
    1658:	0d 92       	st	X+, r0
    165a:	8a 95       	dec	r24
    165c:	e1 f7       	brne	.-8      	; 0x1656 <boCoffeeFSM_LoadProgramm+0x48>
				boReturnval = true;	
				u8ProgrammLoaded=idx;
    165e:	10 93 c4 02 	sts	0x02C4, r17	; 0x8002c4 <u8ProgrammLoaded>
			
			boLoadVal=boEEFS_ReadUserProgramm(idx,&tCoffeProg);
			if(boLoadVal==true){
				/* Copy the new coffeepro to ram for the fsm */
				memcpy((usersettings_t*)&tFSMCoffeProg,&tCoffeProg, sizeof(usersettings_t));
				boReturnval = true;	
    1662:	81 e0       	ldi	r24, 0x01	; 1
			boReturnval = false;
		}
	}
		
	return boReturnval;
}
    1664:	60 96       	adiw	r28, 0x10	; 16
    1666:	0f b6       	in	r0, 0x3f	; 63
    1668:	f8 94       	cli
    166a:	de bf       	out	0x3e, r29	; 62
    166c:	0f be       	out	0x3f, r0	; 63
    166e:	cd bf       	out	0x3d, r28	; 61
    1670:	df 91       	pop	r29
    1672:	cf 91       	pop	r28
    1674:	1f 91       	pop	r17
    1676:	08 95       	ret

00001678 <u8GetCurrenProgrammIdx>:

uint8_t u8GetCurrenProgrammIdx( void ){
	return u8ProgrammLoaded;
    1678:	80 91 c4 02 	lds	r24, 0x02C4	; 0x8002c4 <u8ProgrammLoaded>
}
    167c:	08 95       	ret

0000167e <voCoffeeFSM_LoadSystemSettings>:

bool voCoffeeFSM_LoadSystemSettings(){
    167e:	cf 93       	push	r28
    1680:	df 93       	push	r29
    1682:	cd b7       	in	r28, 0x3d	; 61
    1684:	de b7       	in	r29, 0x3e	; 62
    1686:	2a 97       	sbiw	r28, 0x0a	; 10
    1688:	0f b6       	in	r0, 0x3f	; 63
    168a:	f8 94       	cli
    168c:	de bf       	out	0x3e, r29	; 62
    168e:	0f be       	out	0x3f, r0	; 63
    1690:	cd bf       	out	0x3d, r28	; 61
	bool boRetunrVal=false;
	/* This is something that we can do at any state */
	systemsettings_t tSystemSettings;
	if(voEEFS_ReadSystemSettings(&tSystemSettings)!=false){
    1692:	ce 01       	movw	r24, r28
    1694:	01 96       	adiw	r24, 0x01	; 1
    1696:	0e 94 35 1a 	call	0x346a	; 0x346a <voEEFS_ReadSystemSettings>
    169a:	88 23       	and	r24, r24
    169c:	59 f0       	breq	.+22     	; 0x16b4 <voCoffeeFSM_LoadSystemSettings+0x36>
		//we have loaded the settings now we need to apply them to the fsm used one
		memcpy((systemsettings_t*)&tFSMSettings,&tSystemSettings, sizeof(systemsettings_t));
    169e:	8a e0       	ldi	r24, 0x0A	; 10
    16a0:	fe 01       	movw	r30, r28
    16a2:	31 96       	adiw	r30, 0x01	; 1
    16a4:	a9 ed       	ldi	r26, 0xD9	; 217
    16a6:	b2 e0       	ldi	r27, 0x02	; 2
    16a8:	01 90       	ld	r0, Z+
    16aa:	0d 92       	st	X+, r0
    16ac:	8a 95       	dec	r24
    16ae:	e1 f7       	brne	.-8      	; 0x16a8 <voCoffeeFSM_LoadSystemSettings+0x2a>
		boRetunrVal=true;
    16b0:	81 e0       	ldi	r24, 0x01	; 1
    16b2:	05 c0       	rjmp	.+10     	; 0x16be <voCoffeeFSM_LoadSystemSettings+0x40>
		/* Settings are now copied */
	} else {
		/* Loading has failed we need to provide packup values */
		voSetDefaultSystemSettingsValues((systemsettings_t*)&tFSMSettings);
    16b4:	89 ed       	ldi	r24, 0xD9	; 217
    16b6:	92 e0       	ldi	r25, 0x02	; 2
    16b8:	0e 94 9b 19 	call	0x3336	; 0x3336 <voSetDefaultSystemSettingsValues>
		boRetunrVal=false;
    16bc:	80 e0       	ldi	r24, 0x00	; 0
		
	}
	
	return boRetunrVal;
}
    16be:	2a 96       	adiw	r28, 0x0a	; 10
    16c0:	0f b6       	in	r0, 0x3f	; 63
    16c2:	f8 94       	cli
    16c4:	de bf       	out	0x3e, r29	; 62
    16c6:	0f be       	out	0x3f, r0	; 63
    16c8:	cd bf       	out	0x3d, r28	; 61
    16ca:	df 91       	pop	r29
    16cc:	cf 91       	pop	r28
    16ce:	08 95       	ret

000016d0 <boCoffeeFSM_MakeCoffee>:

bool boCoffeeFSM_MakeCoffee(uint8_t Cups){
	bool boStart=false;
	if( (emFSMState==coffeemaker_idle) || (emFSMState==coffeemaker_preheat) ){
    16d0:	90 91 e3 02 	lds	r25, 0x02E3	; 0x8002e3 <emFSMState>
    16d4:	99 23       	and	r25, r25
    16d6:	21 f0       	breq	.+8      	; 0x16e0 <boCoffeeFSM_MakeCoffee+0x10>
    16d8:	90 91 e3 02 	lds	r25, 0x02E3	; 0x8002e3 <emFSMState>
    16dc:	91 30       	cpi	r25, 0x01	; 1
    16de:	81 f4       	brne	.+32     	; 0x1700 <boCoffeeFSM_MakeCoffee+0x30>
		/* We can change to brew coffe here */
		boStart=true;
		if(Cups>1){
    16e0:	82 30       	cpi	r24, 0x02	; 2
    16e2:	20 f0       	brcs	.+8      	; 0x16ec <boCoffeeFSM_MakeCoffee+0x1c>
			tStatusBits.bFillTwoCups=1;
    16e4:	80 91 c3 02 	lds	r24, 0x02C3	; 0x8002c3 <tStatusBits>
    16e8:	84 60       	ori	r24, 0x04	; 4
    16ea:	03 c0       	rjmp	.+6      	; 0x16f2 <boCoffeeFSM_MakeCoffee+0x22>
		} else {
			tStatusBits.bFillTwoCups=0;
    16ec:	80 91 c3 02 	lds	r24, 0x02C3	; 0x8002c3 <tStatusBits>
    16f0:	8b 7f       	andi	r24, 0xFB	; 251
    16f2:	80 93 c3 02 	sts	0x02C3, r24	; 0x8002c3 <tStatusBits>
		}
		emFSMState = coffeemaker_brewcoffee;
    16f6:	82 e0       	ldi	r24, 0x02	; 2
    16f8:	80 93 e3 02 	sts	0x02E3, r24	; 0x8002e3 <emFSMState>

bool boCoffeeFSM_MakeCoffee(uint8_t Cups){
	bool boStart=false;
	if( (emFSMState==coffeemaker_idle) || (emFSMState==coffeemaker_preheat) ){
		/* We can change to brew coffe here */
		boStart=true;
    16fc:	81 e0       	ldi	r24, 0x01	; 1
    16fe:	08 95       	ret
	
	return boRetunrVal;
}

bool boCoffeeFSM_MakeCoffee(uint8_t Cups){
	bool boStart=false;
    1700:	80 e0       	ldi	r24, 0x00	; 0
		}
		emFSMState = coffeemaker_brewcoffee;
		
	}
	return boStart;
}
    1702:	08 95       	ret

00001704 <voCoffeeFSM_SetPower>:

void voCoffeeFSM_SetPower(bool boOn){
	if(boOn==true){
    1704:	88 23       	and	r24, r24
    1706:	41 f0       	breq	.+16     	; 0x1718 <voCoffeeFSM_SetPower+0x14>
		if(emFSMState==coffeemaker_idle){
    1708:	80 91 e3 02 	lds	r24, 0x02E3	; 0x8002e3 <emFSMState>
    170c:	81 11       	cpse	r24, r1
    170e:	06 c0       	rjmp	.+12     	; 0x171c <voCoffeeFSM_SetPower+0x18>
			emFSMState=coffeemaker_preheat;
    1710:	81 e0       	ldi	r24, 0x01	; 1
    1712:	80 93 e3 02 	sts	0x02E3, r24	; 0x8002e3 <emFSMState>
    1716:	08 95       	ret
		}
	} else {
		emFSMState=coffeemaker_idle;
    1718:	10 92 e3 02 	sts	0x02E3, r1	; 0x8002e3 <emFSMState>
    171c:	08 95       	ret

0000171e <voSetCupLevel>:

void voSetCupLevel(uint8_t u8Level){
	if(u8Level>2){
		u8Level=2;
	}
	if( (emFSMState==coffeemaker_idle) || (emFSMState==coffeemaker_preheat)){
    171e:	90 91 e3 02 	lds	r25, 0x02E3	; 0x8002e3 <emFSMState>
    1722:	99 23       	and	r25, r25
    1724:	21 f0       	breq	.+8      	; 0x172e <voSetCupLevel+0x10>
    1726:	90 91 e3 02 	lds	r25, 0x02E3	; 0x8002e3 <emFSMState>
    172a:	91 30       	cpi	r25, 0x01	; 1
    172c:	49 f4       	brne	.+18     	; 0x1740 <voSetCupLevel+0x22>
    172e:	83 30       	cpi	r24, 0x03	; 3
    1730:	08 f0       	brcs	.+2      	; 0x1734 <voSetCupLevel+0x16>
    1732:	82 e0       	ldi	r24, 0x02	; 2
		tFSMSettings.u8coffeelevel=u8Level;
    1734:	80 93 dd 02 	sts	0x02DD, r24	; 0x8002dd <tFSMSettings+0x4>
		/* We need to write the new setting into eeprom */
		voEEFS_WriteSystemSettings((systemsettings_t*)&tFSMSettings);
    1738:	89 ed       	ldi	r24, 0xD9	; 217
    173a:	92 e0       	ldi	r25, 0x02	; 2
    173c:	0c 94 0b 1a 	jmp	0x3416	; 0x3416 <voEEFS_WriteSystemSettings>
    1740:	08 95       	ret

00001742 <u8GetCupLevel>:
		
	}
}

uint8_t u8GetCupLevel(void){
	return tFSMSettings.u8coffeelevel;
    1742:	80 91 dd 02 	lds	r24, 0x02DD	; 0x8002dd <tFSMSettings+0x4>
}
    1746:	08 95       	ret

00001748 <voSetAutoPowerOff>:

void voSetAutoPowerOff(uint8_t u8TimeMin){
    1748:	8d 33       	cpi	r24, 0x3D	; 61
    174a:	08 f0       	brcs	.+2      	; 0x174e <voSetAutoPowerOff+0x6>
    174c:	8c e3       	ldi	r24, 0x3C	; 60
	if(u8TimeMin>60){
		u8TimeMin=60;
	}
	tFSMSettings.u8AutoPowerOffTime=u8TimeMin;
    174e:	80 93 d9 02 	sts	0x02D9, r24	; 0x8002d9 <tFSMSettings>
	voEEFS_WriteSystemSettings((systemsettings_t*)&tFSMSettings);
    1752:	89 ed       	ldi	r24, 0xD9	; 217
    1754:	92 e0       	ldi	r25, 0x02	; 2
    1756:	0c 94 0b 1a 	jmp	0x3416	; 0x3416 <voEEFS_WriteSystemSettings>

0000175a <u8GetAutoPowerOff>:
}

uint8_t u8GetAutoPowerOff(void){
	return tFSMSettings.u8AutoPowerOffTime;
    175a:	80 91 d9 02 	lds	r24, 0x02D9	; 0x8002d9 <tFSMSettings>
}
    175e:	08 95       	ret

00001760 <voCoffeeFSM_DrawCup>:
}

/* The following functions will set and handle different parts of the screen */

/* This will handle the coffecup symbols and set the accordingly */
void voCoffeeFSM_DrawCup(uint8_t Level){
    1760:	cf 93       	push	r28
    1762:	c8 2f       	mov	r28, r24
	/* We draw the cup and according to the level button the corresponding level */
	DPS_SetIconVisibility(VISIBLE,CUP_ONE);
    1764:	65 e0       	ldi	r22, 0x05	; 5
    1766:	80 e0       	ldi	r24, 0x00	; 0
    1768:	0e 94 84 19 	call	0x3308	; 0x3308 <DPS_SetIconVisibility>
	switch(Level){
    176c:	c1 30       	cpi	r28, 0x01	; 1
    176e:	21 f0       	breq	.+8      	; 0x1778 <voCoffeeFSM_DrawCup+0x18>
    1770:	50 f4       	brcc	.+20     	; 0x1786 <voCoffeeFSM_DrawCup+0x26>
	    case 0:{
			/* We are fine here */
			DPS_SetIconVisibility(INVISIBLE,CUP_TWO);
    1772:	66 e0       	ldi	r22, 0x06	; 6
    1774:	81 e0       	ldi	r24, 0x01	; 1
    1776:	02 c0       	rjmp	.+4      	; 0x177c <voCoffeeFSM_DrawCup+0x1c>
			DPS_SetIconVisibility(INVISIBLE,CUP_THREE);
		}break;
		case 1:{
			/* We set also CUP_TWO */
			DPS_SetIconVisibility(VISIBLE,CUP_TWO);
    1778:	66 e0       	ldi	r22, 0x06	; 6
    177a:	80 e0       	ldi	r24, 0x00	; 0
    177c:	0e 94 84 19 	call	0x3308	; 0x3308 <DPS_SetIconVisibility>
			DPS_SetIconVisibility(INVISIBLE,CUP_THREE);
    1780:	67 e0       	ldi	r22, 0x07	; 7
    1782:	81 e0       	ldi	r24, 0x01	; 1
    1784:	06 c0       	rjmp	.+12     	; 0x1792 <voCoffeeFSM_DrawCup+0x32>
			DPS_SetIconVisibility(VISIBLE,CUP_TWO);
			DPS_SetIconVisibility(VISIBLE,CUP_THREE);
		}break;	
		
		default:{
			DPS_SetIconVisibility(VISIBLE,CUP_TWO);
    1786:	66 e0       	ldi	r22, 0x06	; 6
    1788:	80 e0       	ldi	r24, 0x00	; 0
    178a:	0e 94 84 19 	call	0x3308	; 0x3308 <DPS_SetIconVisibility>
			DPS_SetIconVisibility(VISIBLE,CUP_THREE);
    178e:	67 e0       	ldi	r22, 0x07	; 7
    1790:	80 e0       	ldi	r24, 0x00	; 0
		} break;
	}
	/* Okay visibility is set here */
}
    1792:	cf 91       	pop	r28
			DPS_SetIconVisibility(VISIBLE,CUP_THREE);
		}break;	
		
		default:{
			DPS_SetIconVisibility(VISIBLE,CUP_TWO);
			DPS_SetIconVisibility(VISIBLE,CUP_THREE);
    1794:	0c 94 84 19 	jmp	0x3308	; 0x3308 <DPS_SetIconVisibility>

00001798 <voProcessLidKey>:
		} break;
	}
	/* Okay visibility is set here */
}

void voProcessLidKey(coffeefsm_t emFSMState){
    1798:	cf 93       	push	r28
    179a:	c8 2f       	mov	r28, r24

	/* We need also the events of the top key */
	KeyEvent_t LidKey = strGetKeyEvent(LID_KEY);
    179c:	83 e0       	ldi	r24, 0x03	; 3
    179e:	0a df       	rcall	.-492    	; 0x15b4 <strGetKeyEvent>
	
	if( (emFSMState==coffeemaker_idle) || ( emFSMState == coffeemaker_preheat ) ){
    17a0:	c2 30       	cpi	r28, 0x02	; 2
    17a2:	a0 f4       	brcc	.+40     	; 0x17cc <voProcessLidKey+0x34>
			/* If nothing is pressed we stay here and wait to be called */
			if ( (KeyChanged == LidKey.KeyChangeState) & ( SWITCH_PRESSED == LidKey.SwitchState) ) {
    17a4:	61 30       	cpi	r22, 0x01	; 1
    17a6:	91 f4       	brne	.+36     	; 0x17cc <voProcessLidKey+0x34>
    17a8:	71 11       	cpse	r23, r1
    17aa:	10 c0       	rjmp	.+32     	; 0x17cc <voProcessLidKey+0x34>
				tFSMSettings.u8coffeelevel++;
    17ac:	80 91 dd 02 	lds	r24, 0x02DD	; 0x8002dd <tFSMSettings+0x4>
    17b0:	8f 5f       	subi	r24, 0xFF	; 255
    17b2:	80 93 dd 02 	sts	0x02DD, r24	; 0x8002dd <tFSMSettings+0x4>
				if(tFSMSettings.u8coffeelevel>2){
    17b6:	80 91 dd 02 	lds	r24, 0x02DD	; 0x8002dd <tFSMSettings+0x4>
    17ba:	83 30       	cpi	r24, 0x03	; 3
    17bc:	10 f0       	brcs	.+4      	; 0x17c2 <voProcessLidKey+0x2a>
					tFSMSettings.u8coffeelevel=0;
    17be:	10 92 dd 02 	sts	0x02DD, r1	; 0x8002dd <tFSMSettings+0x4>
				}
				voEEFS_WriteSystemSettings((systemsettings_t*)&tFSMSettings);
    17c2:	89 ed       	ldi	r24, 0xD9	; 217
    17c4:	92 e0       	ldi	r25, 0x02	; 2
			}
	}
}
    17c6:	cf 91       	pop	r28
			if ( (KeyChanged == LidKey.KeyChangeState) & ( SWITCH_PRESSED == LidKey.SwitchState) ) {
				tFSMSettings.u8coffeelevel++;
				if(tFSMSettings.u8coffeelevel>2){
					tFSMSettings.u8coffeelevel=0;
				}
				voEEFS_WriteSystemSettings((systemsettings_t*)&tFSMSettings);
    17c8:	0c 94 0b 1a 	jmp	0x3416	; 0x3416 <voEEFS_WriteSystemSettings>
			}
	}
}
    17cc:	cf 91       	pop	r28
    17ce:	08 95       	ret

000017d0 <voCoffeeFSM_DrawArrows>:


void voCoffeeFSM_DrawArrows(bool boBrewing){
	
	if(true == boBrewing ){
		DPS_SetIconVisibility(INVISIBLE,ARROWS);		
    17d0:	60 e0       	ldi	r22, 0x00	; 0
}


void voCoffeeFSM_DrawArrows(bool boBrewing){
	
	if(true == boBrewing ){
    17d2:	88 23       	and	r24, r24
    17d4:	11 f0       	breq	.+4      	; 0x17da <voCoffeeFSM_DrawArrows+0xa>
		DPS_SetIconVisibility(INVISIBLE,ARROWS);		
    17d6:	81 e0       	ldi	r24, 0x01	; 1
    17d8:	01 c0       	rjmp	.+2      	; 0x17dc <voCoffeeFSM_DrawArrows+0xc>
	} else {
		DPS_SetIconVisibility(VISIBLE,ARROWS);
    17da:	80 e0       	ldi	r24, 0x00	; 0
    17dc:	0c 94 84 19 	jmp	0x3308	; 0x3308 <DPS_SetIconVisibility>

000017e0 <voCoffeeFSM_DrawWaterEmpty>:


void voCoffeeFSM_DrawWaterEmpty( bool boEmpty ){
	/* we let the symbol blink if have a Empty */
	if(true == boEmpty ){
			DPS_SetBlinkFreq(BLINK_1Hz,WATER);
    17e0:	62 e0       	ldi	r22, 0x02	; 2



void voCoffeeFSM_DrawWaterEmpty( bool boEmpty ){
	/* we let the symbol blink if have a Empty */
	if(true == boEmpty ){
    17e2:	88 23       	and	r24, r24
    17e4:	11 f0       	breq	.+4      	; 0x17ea <voCoffeeFSM_DrawWaterEmpty+0xa>
			DPS_SetBlinkFreq(BLINK_1Hz,WATER);
    17e6:	83 e0       	ldi	r24, 0x03	; 3
    17e8:	05 c0       	rjmp	.+10     	; 0x17f4 <voCoffeeFSM_DrawWaterEmpty+0x14>
			
	} else {
			DPS_SetIconVisibility(INVISIBLE,WATER);
    17ea:	81 e0       	ldi	r24, 0x01	; 1
    17ec:	0e 94 84 19 	call	0x3308	; 0x3308 <DPS_SetIconVisibility>
			DPS_SetBlinkFreq(BLINK_OFF,WATER);
    17f0:	62 e0       	ldi	r22, 0x02	; 2
    17f2:	84 e0       	ldi	r24, 0x04	; 4
    17f4:	0c 94 7a 19 	jmp	0x32f4	; 0x32f4 <DPS_SetBlinkFreq>

000017f8 <voCoffeeFSM_DrawThermometer>:
}

void voCoffeeFSM_DrawThermometer( bool boHeating, bool boOvertemp ){
	/* we need to combine both bool to up to four states */
	
	if(true == boOvertemp){
    17f8:	66 23       	and	r22, r22
    17fa:	39 f0       	breq	.+14     	; 0x180a <voCoffeeFSM_DrawThermometer+0x12>
		/* We don't care if we are heating we let the thermometer blink as fast as possible */
		DPS_SetBlinkFreq(BLINK_10Hz,THERMOMETER_INNER);
    17fc:	64 e0       	ldi	r22, 0x04	; 4
    17fe:	80 e0       	ldi	r24, 0x00	; 0
    1800:	0e 94 7a 19 	call	0x32f4	; 0x32f4 <DPS_SetBlinkFreq>
		DPS_SetBlinkFreq(BLINK_10Hz,THERMOMETER_OUTER);
    1804:	63 e0       	ldi	r22, 0x03	; 3
    1806:	80 e0       	ldi	r24, 0x00	; 0
    1808:	1a c0       	rjmp	.+52     	; 0x183e <voCoffeeFSM_DrawThermometer+0x46>
		
	} else {
		
		if ( true == boHeating ){
			
			DPS_SetIconVisibility(VISIBLE,THERMOMETER_OUTER);
    180a:	63 e0       	ldi	r22, 0x03	; 3
		DPS_SetBlinkFreq(BLINK_10Hz,THERMOMETER_OUTER);
		
		
	} else {
		
		if ( true == boHeating ){
    180c:	88 23       	and	r24, r24
    180e:	51 f0       	breq	.+20     	; 0x1824 <voCoffeeFSM_DrawThermometer+0x2c>
			
			DPS_SetIconVisibility(VISIBLE,THERMOMETER_OUTER);
    1810:	80 e0       	ldi	r24, 0x00	; 0
    1812:	0e 94 84 19 	call	0x3308	; 0x3308 <DPS_SetIconVisibility>
			DPS_SetBlinkFreq(BLINK_OFF,THERMOMETER_OUTER);
    1816:	63 e0       	ldi	r22, 0x03	; 3
    1818:	84 e0       	ldi	r24, 0x04	; 4
    181a:	0e 94 7a 19 	call	0x32f4	; 0x32f4 <DPS_SetBlinkFreq>
			DPS_SetBlinkFreq(BLINK_1Hz,THERMOMETER_INNER);
    181e:	64 e0       	ldi	r22, 0x04	; 4
    1820:	83 e0       	ldi	r24, 0x03	; 3
    1822:	0d c0       	rjmp	.+26     	; 0x183e <voCoffeeFSM_DrawThermometer+0x46>
				
		} else {
			
			DPS_SetIconVisibility(INVISIBLE,THERMOMETER_OUTER);
    1824:	81 e0       	ldi	r24, 0x01	; 1
    1826:	0e 94 84 19 	call	0x3308	; 0x3308 <DPS_SetIconVisibility>
			DPS_SetIconVisibility(INVISIBLE,THERMOMETER_INNER);
    182a:	64 e0       	ldi	r22, 0x04	; 4
    182c:	81 e0       	ldi	r24, 0x01	; 1
    182e:	0e 94 84 19 	call	0x3308	; 0x3308 <DPS_SetIconVisibility>
			DPS_SetBlinkFreq(BLINK_OFF,THERMOMETER_OUTER);
    1832:	63 e0       	ldi	r22, 0x03	; 3
    1834:	84 e0       	ldi	r24, 0x04	; 4
    1836:	0e 94 7a 19 	call	0x32f4	; 0x32f4 <DPS_SetBlinkFreq>
			DPS_SetBlinkFreq(BLINK_OFF,THERMOMETER_INNER);
    183a:	64 e0       	ldi	r22, 0x04	; 4
    183c:	84 e0       	ldi	r24, 0x04	; 4
    183e:	0c 94 7a 19 	jmp	0x32f4	; 0x32f4 <DPS_SetBlinkFreq>

00001842 <voCoffeeFSM_Task>:
}




void voCoffeeFSM_Task( void ){
    1842:	8f 92       	push	r8
    1844:	9f 92       	push	r9
    1846:	af 92       	push	r10
    1848:	bf 92       	push	r11
    184a:	cf 92       	push	r12
    184c:	df 92       	push	r13
    184e:	ef 92       	push	r14
    1850:	ff 92       	push	r15
    1852:	0f 93       	push	r16
    1854:	1f 93       	push	r17
    1856:	cf 93       	push	r28
    1858:	df 93       	push	r29
    185a:	cd b7       	in	r28, 0x3d	; 61
    185c:	de b7       	in	r29, 0x3e	; 62
    185e:	2a 97       	sbiw	r28, 0x0a	; 10
    1860:	0f b6       	in	r0, 0x3f	; 63
    1862:	f8 94       	cli
    1864:	de bf       	out	0x3e, r29	; 62
    1866:	0f be       	out	0x3f, r0	; 63
    1868:	cd bf       	out	0x3d, r28	; 61
	
	/* Cyclic FSM Task for CoffeeProcessing */
	
	
	/* We get here our Keyevents */
	KeyEvent_t PowerButtonKeyevent = strGetKeyEvent(POWER_KEY);
    186a:	81 e0       	ldi	r24, 0x01	; 1
    186c:	a3 de       	rcall	.-698    	; 0x15b4 <strGetKeyEvent>
    186e:	16 2f       	mov	r17, r22
    1870:	07 2f       	mov	r16, r23
	KeyEvent_t OneCupButtonKeyevent = strGetKeyEvent(ONECUP_KEY);
    1872:	80 e0       	ldi	r24, 0x00	; 0
    1874:	9f de       	rcall	.-706    	; 0x15b4 <strGetKeyEvent>
    1876:	a6 2e       	mov	r10, r22
    1878:	c7 2e       	mov	r12, r23
	KeyEvent_t TwoCupButtonKeyevent = strGetKeyEvent(TWOCUP_KEY);	
    187a:	82 e0       	ldi	r24, 0x02	; 2
    187c:	9b de       	rcall	.-714    	; 0x15b4 <strGetKeyEvent>
    187e:	b6 2e       	mov	r11, r22
    1880:	d7 2e       	mov	r13, r23
    1882:	80 91 c3 02 	lds	r24, 0x02C3	; 0x8002c3 <tStatusBits>

	
	/* Set the internal Bits for processing to a known value  */
	tStatusBits.bIsBrewing=false;
    1886:	8e 7f       	andi	r24, 0xFE	; 254
    1888:	80 93 c3 02 	sts	0x02C3, r24	; 0x8002c3 <tStatusBits>
    188c:	0e 94 61 1c 	call	0x38c2	; 0x38c2 <HMon_tGetFaultAndWarning>
	
	FaultAndWarning_t HealthState = HMon_tGetFaultAndWarning();
    1890:	e2 2e       	mov	r14, r18
    1892:	f4 2e       	mov	r15, r20
    1894:	2e 83       	std	Y+6, r18	; 0x06
    1896:	3f 83       	std	Y+7, r19	; 0x07
    1898:	48 87       	std	Y+8, r20	; 0x08
    189a:	59 87       	std	Y+9, r21	; 0x09
    189c:	6a 87       	std	Y+10, r22	; 0x0a
    189e:	41 11       	cpse	r20, r1
	
	/* What ever happens if we have a fault we go to off or idle deepening on the current state */
	
	/* Check for HW faults and react */
	if( (HealthState.OverTemperaturFault!=0) || (HealthState.WaterLevelLowFault!=0)){
    18a0:	02 c0       	rjmp	.+4      	; 0x18a6 <voCoffeeFSM_Task+0x64>
    18a2:	22 23       	and	r18, r18
    18a4:	69 f0       	breq	.+26     	; 0x18c0 <voCoffeeFSM_Task+0x7e>
    18a6:	80 91 e3 02 	lds	r24, 0x02E3	; 0x8002e3 <emFSMState>
		/* We need to stop what ever we are doing and return to off or idle */
		switch( emFSMState){
    18aa:	81 30       	cpi	r24, 0x01	; 1
    18ac:	39 f0       	breq	.+14     	; 0x18bc <voCoffeeFSM_Task+0x7a>
    18ae:	10 f0       	brcs	.+4      	; 0x18b4 <voCoffeeFSM_Task+0x72>
    18b0:	88 30       	cpi	r24, 0x08	; 8
    18b2:	19 f4       	brne	.+6      	; 0x18ba <voCoffeeFSM_Task+0x78>
    18b4:	10 92 e3 02 	sts	0x02E3, r1	; 0x8002e3 <emFSMState>
			case coffeemaker_idle:{
				emFSMState=coffeemaker_idle;	
			}break;
			
			case coffeemaker_pump_till_empty:{
				emFSMState = coffeemaker_idle; //We turn off if water is empty
    18b8:	03 c0       	rjmp	.+6      	; 0x18c0 <voCoffeeFSM_Task+0x7e>
			} break;
    18ba:	81 e0       	ldi	r24, 0x01	; 1
			case coffeemaker_preheat:{
				emFSMState = coffeemaker_preheat; //We stay in preheat state as this will disable heating if water is empty
			} break;
			
			default:{
				emFSMState = coffeemaker_preheat; //We stay in preheat state as this will disable heating if water is empty
    18bc:	80 93 e3 02 	sts	0x02E3, r24	; 0x8002e3 <emFSMState>
    18c0:	80 91 e3 02 	lds	r24, 0x02E3	; 0x8002e3 <emFSMState>
	
	
	
	
	
	switch( emFSMState ){
    18c4:	84 30       	cpi	r24, 0x04	; 4
    18c6:	09 f4       	brne	.+2      	; 0x18ca <voCoffeeFSM_Task+0x88>
    18c8:	3d c1       	rjmp	.+634    	; 0x1b44 <voCoffeeFSM_Task+0x302>
    18ca:	58 f4       	brcc	.+22     	; 0x18e2 <voCoffeeFSM_Task+0xa0>
    18cc:	81 30       	cpi	r24, 0x01	; 1
    18ce:	09 f4       	brne	.+2      	; 0x18d2 <voCoffeeFSM_Task+0x90>
    18d0:	6d c0       	rjmp	.+218    	; 0x19ac <voCoffeeFSM_Task+0x16a>
    18d2:	98 f0       	brcs	.+38     	; 0x18fa <voCoffeeFSM_Task+0xb8>
    18d4:	82 30       	cpi	r24, 0x02	; 2
    18d6:	09 f4       	brne	.+2      	; 0x18da <voCoffeeFSM_Task+0x98>
    18d8:	c1 c0       	rjmp	.+386    	; 0x1a5c <voCoffeeFSM_Task+0x21a>
    18da:	83 30       	cpi	r24, 0x03	; 3
    18dc:	09 f4       	brne	.+2      	; 0x18e0 <voCoffeeFSM_Task+0x9e>
    18de:	f9 c0       	rjmp	.+498    	; 0x1ad2 <voCoffeeFSM_Task+0x290>
    18e0:	18 c2       	rjmp	.+1072   	; 0x1d12 <voCoffeeFSM_Task+0x4d0>
    18e2:	86 30       	cpi	r24, 0x06	; 6
    18e4:	09 f4       	brne	.+2      	; 0x18e8 <voCoffeeFSM_Task+0xa6>
    18e6:	4d c1       	rjmp	.+666    	; 0x1b82 <voCoffeeFSM_Task+0x340>
    18e8:	08 f4       	brcc	.+2      	; 0x18ec <voCoffeeFSM_Task+0xaa>
    18ea:	be c1       	rjmp	.+892    	; 0x1c68 <voCoffeeFSM_Task+0x426>
    18ec:	87 30       	cpi	r24, 0x07	; 7
    18ee:	09 f4       	brne	.+2      	; 0x18f2 <voCoffeeFSM_Task+0xb0>
    18f0:	eb c1       	rjmp	.+982    	; 0x1cc8 <voCoffeeFSM_Task+0x486>
    18f2:	88 30       	cpi	r24, 0x08	; 8
    18f4:	09 f4       	brne	.+2      	; 0x18f8 <voCoffeeFSM_Task+0xb6>
    18f6:	fe c1       	rjmp	.+1020   	; 0x1cf4 <voCoffeeFSM_Task+0x4b2>
    18f8:	0c c2       	rjmp	.+1048   	; 0x1d12 <voCoffeeFSM_Task+0x4d0>
    18fa:	10 92 c5 02 	sts	0x02C5, r1	; 0x8002c5 <u32FillTime>
		case coffeemaker_idle:{
			u32FillTime = 0;
    18fe:	10 92 c6 02 	sts	0x02C6, r1	; 0x8002c6 <u32FillTime+0x1>
    1902:	10 92 c7 02 	sts	0x02C7, r1	; 0x8002c7 <u32FillTime+0x2>
    1906:	10 92 c8 02 	sts	0x02C8, r1	; 0x8002c8 <u32FillTime+0x3>
			/* Ensure Heater is off and pump nor running */
			voBTC_SetBoilerSetTemp(INT16_MIN); /* PowerDown */
    190a:	80 e0       	ldi	r24, 0x00	; 0
    190c:	90 e8       	ldi	r25, 0x80	; 128
    190e:	95 dd       	rcall	.-1238   	; 0x143a <voBTC_SetBoilerSetTemp>
			voSetPumpPowerState(POWER_OFF);
    1910:	81 e0       	ldi	r24, 0x01	; 1
    1912:	6b db       	rcall	.-2346   	; 0xfea <voSetPumpPowerState>
    1914:	68 e0       	ldi	r22, 0x08	; 8
			LLS_voSetLedLightning(LED_ONECUP,LED_STATIC_OFF);
    1916:	80 e0       	ldi	r24, 0x00	; 0
    1918:	0e 94 1e 1d 	call	0x3a3c	; 0x3a3c <LLS_voSetLedLightning>
    191c:	68 e0       	ldi	r22, 0x08	; 8
			LLS_voSetLedLightning(LED_TWOCUP,LED_STATIC_OFF);
    191e:	82 e0       	ldi	r24, 0x02	; 2
    1920:	0e 94 1e 1d 	call	0x3a3c	; 0x3a3c <LLS_voSetLedLightning>
    1924:	68 e0       	ldi	r22, 0x08	; 8
			LLS_voSetLedLightning(LED_POWER,LED_STATIC_OFF);
    1926:	81 e0       	ldi	r24, 0x01	; 1
    1928:	0e 94 1e 1d 	call	0x3a3c	; 0x3a3c <LLS_voSetLedLightning>
    192c:	80 91 c3 02 	lds	r24, 0x02C3	; 0x8002c3 <tStatusBits>
			/* Check for Keyevents 
			- if we have a PowerUp Button hit we wake up and do a pre heat to a default degree value 
			- if we have a OneCup Button pressed we will brew a Coffee 
			- if we have a TwoCup Button pressed we will brew two Coffee 
			*/
			tStatusBits.bFillTwoCups=0;
    1930:	8b 7f       	andi	r24, 0xFB	; 251
    1932:	80 93 c3 02 	sts	0x02C3, r24	; 0x8002c3 <tStatusBits>
    1936:	11 30       	cpi	r17, 0x01	; 1
			
			/* We leave IDEL only if we have water in the Tank */
			
					if( (KeyChanged == PowerButtonKeyevent.KeyChangeState) & ( SWITCH_PRESSED == PowerButtonKeyevent.SwitchState ) ){
    1938:	a1 f4       	brne	.+40     	; 0x1962 <voCoffeeFSM_Task+0x120>
    193a:	01 11       	cpse	r16, r1
    193c:	12 c0       	rjmp	.+36     	; 0x1962 <voCoffeeFSM_Task+0x120>
    193e:	60 91 d9 02 	lds	r22, 0x02D9	; 0x8002d9 <tFSMSettings>
						/* Okay at least we got an Power UP */
				
						/* We need to start the auto power off timer */
						voSetTimeOut(AUTO_POWER_OFFTIMER, TMS_MIN( tFSMSettings.u8AutoPowerOffTime ) );
    1942:	70 e0       	ldi	r23, 0x00	; 0
    1944:	80 e0       	ldi	r24, 0x00	; 0
    1946:	90 e0       	ldi	r25, 0x00	; 0
    1948:	20 e6       	ldi	r18, 0x60	; 96
    194a:	3a ee       	ldi	r19, 0xEA	; 234
    194c:	40 e0       	ldi	r20, 0x00	; 0
    194e:	50 e0       	ldi	r21, 0x00	; 0
    1950:	0e 94 a3 25 	call	0x4b46	; 0x4b46 <__mulsi3>
    1954:	ab 01       	movw	r20, r22
    1956:	bc 01       	movw	r22, r24
    1958:	81 e0       	ldi	r24, 0x01	; 1
    195a:	0e 94 0e 1e 	call	0x3c1c	; 0x3c1c <voSetTimeOut>
    195e:	10 93 e3 02 	sts	0x02E3, r17	; 0x8002e3 <emFSMState>
						emFSMState = coffeemaker_preheat;
    1962:	81 e0       	ldi	r24, 0x01	; 1
					} 
			
					//If both keys are pressed we will fill the boiler, this is a quick add on and may work ugly
					/* KeyPrioritys if a Coffee is wished this has priority and we will skip the Preheat ! */
					if( (KeyChanged == OneCupButtonKeyevent.KeyChangeState) & ( SWITCH_RELEASED == OneCupButtonKeyevent.SwitchState ) ){
    1964:	a8 12       	cpse	r10, r24
    1966:	10 c0       	rjmp	.+32     	; 0x1988 <voCoffeeFSM_Task+0x146>
    1968:	c8 12       	cpse	r12, r24
    196a:	0e c0       	rjmp	.+28     	; 0x1988 <voCoffeeFSM_Task+0x146>
    196c:	d1 10       	cpse	r13, r1
						if( SWITCH_PRESSED == TwoCupButtonKeyevent.SwitchState ){
    196e:	04 c0       	rjmp	.+8      	; 0x1978 <voCoffeeFSM_Task+0x136>
    1970:	87 e0       	ldi	r24, 0x07	; 7
							emFSMState = coffeemaker_boiler_cold_clean;
    1972:	80 93 e3 02 	sts	0x02E3, r24	; 0x8002e3 <emFSMState>
    1976:	08 c0       	rjmp	.+16     	; 0x1988 <voCoffeeFSM_Task+0x146>
    1978:	82 e0       	ldi	r24, 0x02	; 2
						} else {
							emFSMState = coffeemaker_brewcoffee;
    197a:	80 93 e3 02 	sts	0x02E3, r24	; 0x8002e3 <emFSMState>
    197e:	80 91 c3 02 	lds	r24, 0x02C3	; 0x8002c3 <tStatusBits>
							tStatusBits.bFillTwoCups=0;
    1982:	8b 7f       	andi	r24, 0xFB	; 251
    1984:	80 93 c3 02 	sts	0x02C3, r24	; 0x8002c3 <tStatusBits>
    1988:	81 e0       	ldi	r24, 0x01	; 1
						}
					} 
					
					/* Key Prioritys if a Coffee we skip pre heat and brew one */ 
					if( (KeyChanged == TwoCupButtonKeyevent.KeyChangeState) & ( SWITCH_RELEASED == TwoCupButtonKeyevent.SwitchState ) ){
    198a:	b8 12       	cpse	r11, r24
    198c:	c4 c1       	rjmp	.+904    	; 0x1d16 <voCoffeeFSM_Task+0x4d4>
    198e:	d8 12       	cpse	r13, r24
    1990:	c2 c1       	rjmp	.+900    	; 0x1d16 <voCoffeeFSM_Task+0x4d4>
    1992:	c1 10       	cpse	r12, r1
						if( SWITCH_PRESSED == OneCupButtonKeyevent.SwitchState ){
    1994:	02 c0       	rjmp	.+4      	; 0x199a <voCoffeeFSM_Task+0x158>
    1996:	87 e0       	ldi	r24, 0x07	; 7
							emFSMState = coffeemaker_boiler_cold_clean;
    1998:	aa c1       	rjmp	.+852    	; 0x1cee <voCoffeeFSM_Task+0x4ac>
    199a:	82 e0       	ldi	r24, 0x02	; 2
						} else {
							emFSMState = coffeemaker_brewcoffee;
    199c:	80 93 e3 02 	sts	0x02E3, r24	; 0x8002e3 <emFSMState>
    19a0:	80 91 c3 02 	lds	r24, 0x02C3	; 0x8002c3 <tStatusBits>
							tStatusBits.bFillTwoCups=1;	
    19a4:	84 60       	ori	r24, 0x04	; 4
    19a6:	80 93 c3 02 	sts	0x02C3, r24	; 0x8002c3 <tStatusBits>
    19aa:	b5 c1       	rjmp	.+874    	; 0x1d16 <voCoffeeFSM_Task+0x4d4>
    19ac:	68 e0       	ldi	r22, 0x08	; 8
			
		}
		break;
		
		case coffeemaker_preheat:{
			LLS_voSetLedLightning(LED_ONECUP,LED_STATIC_OFF);
    19ae:	80 e0       	ldi	r24, 0x00	; 0
    19b0:	0e 94 1e 1d 	call	0x3a3c	; 0x3a3c <LLS_voSetLedLightning>
    19b4:	68 e0       	ldi	r22, 0x08	; 8
			LLS_voSetLedLightning(LED_TWOCUP,LED_STATIC_OFF);
    19b6:	82 e0       	ldi	r24, 0x02	; 2
    19b8:	0e 94 1e 1d 	call	0x3a3c	; 0x3a3c <LLS_voSetLedLightning>
    19bc:	81 e0       	ldi	r24, 0x01	; 1
			/* We start heating until we got 75C this will at least kill the legionella bakteria in the boiler */
			
			
			/*  We need to switch off the pump  */
			voSetPumpState(PUMP_OFF);
    19be:	0e 94 c1 1d 	call	0x3b82	; 0x3b82 <voSetPumpState>
    19c2:	80 91 c3 02 	lds	r24, 0x02C3	; 0x8002c3 <tStatusBits>
			
			tStatusBits.bFillTwoCups=0;
    19c6:	8b 7f       	andi	r24, 0xFB	; 251
    19c8:	80 93 c3 02 	sts	0x02C3, r24	; 0x8002c3 <tStatusBits>
    19cc:	f1 10       	cpse	r15, r1
			//voBTC_SetBoilerSetTemp(7500); /* PowerDown */
			/* We read the Preheat Temp form the Programm */
			if( (HealthState.OverTemperaturFault!=0) || (HealthState.WaterLevelLowFault!=0) ){
    19ce:	02 c0       	rjmp	.+4      	; 0x19d4 <voCoffeeFSM_Task+0x192>
    19d0:	ee 20       	and	r14, r14
    19d2:	29 f0       	breq	.+10     	; 0x19de <voCoffeeFSM_Task+0x19c>
				/* Water is empty we stop heating here or we have a temp fault */
				voBTC_SetBoilerSetTemp(INT16_MIN); /* 0C */
    19d4:	80 e0       	ldi	r24, 0x00	; 0
    19d6:	90 e8       	ldi	r25, 0x80	; 128
    19d8:	30 dd       	rcall	.-1440   	; 0x143a <voBTC_SetBoilerSetTemp>
    19da:	60 e0       	ldi	r22, 0x00	; 0
				LLS_voSetLedLightning(LED_POWER,LED_BLINK_10Hz);
    19dc:	10 c0       	rjmp	.+32     	; 0x19fe <voCoffeeFSM_Task+0x1bc>
			} else {
				
				voBTC_SetBoilerSetTemp(tFSMSettings.u16StandbyTemp);
    19de:	80 91 de 02 	lds	r24, 0x02DE	; 0x8002de <tFSMSettings+0x5>
    19e2:	90 91 df 02 	lds	r25, 0x02DF	; 0x8002df <tFSMSettings+0x6>
    19e6:	29 dd       	rcall	.-1454   	; 0x143a <voBTC_SetBoilerSetTemp>
    19e8:	2d dd       	rcall	.-1446   	; 0x1444 <s16BTC_GetCurrentBoilerTemp>
				/* We read the Boiler Temp */
				if(s16BTC_GetCurrentBoilerTemp()<tFSMSettings.u16StandbyTemp){
    19ea:	20 91 de 02 	lds	r18, 0x02DE	; 0x8002de <tFSMSettings+0x5>
    19ee:	30 91 df 02 	lds	r19, 0x02DF	; 0x8002df <tFSMSettings+0x6>
    19f2:	82 17       	cp	r24, r18
    19f4:	93 07       	cpc	r25, r19
    19f6:	10 f4       	brcc	.+4      	; 0x19fc <voCoffeeFSM_Task+0x1ba>
    19f8:	63 e0       	ldi	r22, 0x03	; 3
    19fa:	01 c0       	rjmp	.+2      	; 0x19fe <voCoffeeFSM_Task+0x1bc>
					LLS_voSetLedLightning(LED_POWER,LED_BLINK_1Hz);
    19fc:	69 e0       	ldi	r22, 0x09	; 9
    19fe:	81 e0       	ldi	r24, 0x01	; 1
				} else {
					LLS_voSetLedLightning(LED_POWER,LED_STATIC_ON);
    1a00:	0e 94 1e 1d 	call	0x3a3c	; 0x3a3c <LLS_voSetLedLightning>
    1a04:	11 30       	cpi	r17, 0x01	; 1
    1a06:	21 f4       	brne	.+8      	; 0x1a10 <voCoffeeFSM_Task+0x1ce>
				}
			
			}
			
			if( (KeyChanged == PowerButtonKeyevent.KeyChangeState) & ( SWITCH_PRESSED == PowerButtonKeyevent.SwitchState ) ){
    1a08:	01 11       	cpse	r16, r1
    1a0a:	02 c0       	rjmp	.+4      	; 0x1a10 <voCoffeeFSM_Task+0x1ce>
    1a0c:	10 92 e3 02 	sts	0x02E3, r1	; 0x8002e3 <emFSMState>
				/* Okay at least we got an Power DOWN */
				emFSMState = coffeemaker_idle;
    1a10:	81 e0       	ldi	r24, 0x01	; 1
    1a12:	a8 12       	cpse	r10, r24
			}
			
			/* KeyPrioritys if a Coffee is wished this has priority and we will skip the Preheat ! */
			if( (KeyChanged == OneCupButtonKeyevent.KeyChangeState) & ( SWITCH_PRESSED == OneCupButtonKeyevent.SwitchState ) ){
    1a14:	0a c0       	rjmp	.+20     	; 0x1a2a <voCoffeeFSM_Task+0x1e8>
    1a16:	c1 10       	cpse	r12, r1
    1a18:	08 c0       	rjmp	.+16     	; 0x1a2a <voCoffeeFSM_Task+0x1e8>
    1a1a:	82 e0       	ldi	r24, 0x02	; 2
    1a1c:	80 93 e3 02 	sts	0x02E3, r24	; 0x8002e3 <emFSMState>
				emFSMState = coffeemaker_brewcoffee;
    1a20:	80 91 c3 02 	lds	r24, 0x02C3	; 0x8002c3 <tStatusBits>
				tStatusBits.bFillTwoCups=0;
    1a24:	8b 7f       	andi	r24, 0xFB	; 251
    1a26:	80 93 c3 02 	sts	0x02C3, r24	; 0x8002c3 <tStatusBits>
    1a2a:	81 e0       	ldi	r24, 0x01	; 1
    1a2c:	b8 12       	cpse	r11, r24
			}
			
			if( (KeyChanged == TwoCupButtonKeyevent.KeyChangeState) & ( SWITCH_PRESSED == TwoCupButtonKeyevent.SwitchState ) ){
    1a2e:	0a c0       	rjmp	.+20     	; 0x1a44 <voCoffeeFSM_Task+0x202>
    1a30:	d1 10       	cpse	r13, r1
    1a32:	08 c0       	rjmp	.+16     	; 0x1a44 <voCoffeeFSM_Task+0x202>
    1a34:	82 e0       	ldi	r24, 0x02	; 2
    1a36:	80 93 e3 02 	sts	0x02E3, r24	; 0x8002e3 <emFSMState>
				emFSMState = coffeemaker_brewcoffee;
    1a3a:	80 91 c3 02 	lds	r24, 0x02C3	; 0x8002c3 <tStatusBits>
				tStatusBits.bFillTwoCups=1;
    1a3e:	84 60       	ori	r24, 0x04	; 4
    1a40:	80 93 c3 02 	sts	0x02C3, r24	; 0x8002c3 <tStatusBits>
    1a44:	80 91 d9 02 	lds	r24, 0x02D9	; 0x8002d9 <tFSMSettings>
			}		
			
			/* We need a autopower off timer here */
			if(tFSMSettings.u8AutoPowerOffTime!=0){
    1a48:	88 23       	and	r24, r24
    1a4a:	09 f4       	brne	.+2      	; 0x1a4e <voCoffeeFSM_Task+0x20c>
    1a4c:	64 c1       	rjmp	.+712    	; 0x1d16 <voCoffeeFSM_Task+0x4d4>
    1a4e:	81 e0       	ldi	r24, 0x01	; 1
    1a50:	0e 94 1d 1e 	call	0x3c3a	; 0x3c3a <u8GetTimeElapsed>
				if( u8GetTimeElapsed(AUTO_POWER_OFFTIMER)==TMS_ELAPSED){
    1a54:	81 30       	cpi	r24, 0x01	; 1
    1a56:	09 f0       	breq	.+2      	; 0x1a5a <voCoffeeFSM_Task+0x218>
    1a58:	5e c1       	rjmp	.+700    	; 0x1d16 <voCoffeeFSM_Task+0x4d4>
    1a5a:	5b c1       	rjmp	.+694    	; 0x1d12 <voCoffeeFSM_Task+0x4d0>
    1a5c:	80 91 c3 02 	lds	r24, 0x02C3	; 0x8002c3 <tStatusBits>
		}
		break;
				
		case coffeemaker_brewcoffee:{
			/* Statusbits setzen */
			tStatusBits.bIsBrewing=1;
    1a60:	81 60       	ori	r24, 0x01	; 1
    1a62:	80 93 c3 02 	sts	0x02C3, r24	; 0x8002c3 <tStatusBits>
    1a66:	68 e0       	ldi	r22, 0x08	; 8
    1a68:	81 e0       	ldi	r24, 0x01	; 1
			
			/* We set the LEDs for the Front */
			
			LLS_voSetLedLightning(LED_POWER,LED_STATIC_OFF);
    1a6a:	0e 94 1e 1d 	call	0x3a3c	; 0x3a3c <LLS_voSetLedLightning>
    1a6e:	80 91 c3 02 	lds	r24, 0x02C3	; 0x8002c3 <tStatusBits>
			/* Set ONE Cup off */
			/* Let two Cup Blink */
			if(tStatusBits.bFillTwoCups==0){
    1a72:	68 e0       	ldi	r22, 0x08	; 8
    1a74:	82 fd       	sbrc	r24, 2
				LLS_voSetLedLightning(LED_TWOCUP,LED_STATIC_OFF);
    1a76:	06 c0       	rjmp	.+12     	; 0x1a84 <voCoffeeFSM_Task+0x242>
			/* We set the LEDs for the Front */
			
			LLS_voSetLedLightning(LED_POWER,LED_STATIC_OFF);
			/* Set ONE Cup off */
			/* Let two Cup Blink */
			if(tStatusBits.bFillTwoCups==0){
    1a78:	82 e0       	ldi	r24, 0x02	; 2
    1a7a:	0e 94 1e 1d 	call	0x3a3c	; 0x3a3c <LLS_voSetLedLightning>
				LLS_voSetLedLightning(LED_TWOCUP,LED_STATIC_OFF);
    1a7e:	62 e0       	ldi	r22, 0x02	; 2
    1a80:	80 e0       	ldi	r24, 0x00	; 0
				LLS_voSetLedLightning(LED_ONECUP,LED_BLINK_2Hz);
    1a82:	05 c0       	rjmp	.+10     	; 0x1a8e <voCoffeeFSM_Task+0x24c>
    1a84:	80 e0       	ldi	r24, 0x00	; 0
    1a86:	0e 94 1e 1d 	call	0x3a3c	; 0x3a3c <LLS_voSetLedLightning>
				
			} else {
				LLS_voSetLedLightning(LED_ONECUP,LED_STATIC_OFF);
    1a8a:	62 e0       	ldi	r22, 0x02	; 2
    1a8c:	82 e0       	ldi	r24, 0x02	; 2
				LLS_voSetLedLightning(LED_TWOCUP,LED_BLINK_2Hz);
    1a8e:	0e 94 1e 1d 	call	0x3a3c	; 0x3a3c <LLS_voSetLedLightning>
    1a92:	80 91 c9 02 	lds	r24, 0x02C9	; 0x8002c9 <tFSMCoffeProg>
			
			
			
			
			/* We need to heat up to 90C */
			voBTC_SetBoilerSetTemp(tFSMCoffeProg.u32HeaterTemp+(300)); /* Set to +3 and hope to reach it */
    1a96:	90 91 ca 02 	lds	r25, 0x02CA	; 0x8002ca <tFSMCoffeProg+0x1>
    1a9a:	84 5d       	subi	r24, 0xD4	; 212
    1a9c:	9e 4f       	sbci	r25, 0xFE	; 254
    1a9e:	cd dc       	rcall	.-1638   	; 0x143a <voBTC_SetBoilerSetTemp>
    1aa0:	d1 dc       	rcall	.-1630   	; 0x1444 <s16BTC_GetCurrentBoilerTemp>
    1aa2:	40 91 c9 02 	lds	r20, 0x02C9	; 0x8002c9 <tFSMCoffeProg>
			int16_t LocBoilerTemp = s16BTC_GetCurrentBoilerTemp(); /* We got the temp in 1/100C */
    1aa6:	50 91 ca 02 	lds	r21, 0x02CA	; 0x8002ca <tFSMCoffeProg+0x1>
			if( (int32_t)(LocBoilerTemp) < (int32_t)(tFSMCoffeProg.u32HeaterTemp )){
    1aaa:	09 2e       	mov	r0, r25
    1aac:	00 0c       	add	r0, r0
    1aae:	aa 0b       	sbc	r26, r26
    1ab0:	bb 0b       	sbc	r27, r27
    1ab2:	60 e0       	ldi	r22, 0x00	; 0
    1ab4:	70 e0       	ldi	r23, 0x00	; 0
    1ab6:	84 17       	cp	r24, r20
    1ab8:	95 07       	cpc	r25, r21
    1aba:	a6 07       	cpc	r26, r22
    1abc:	b7 07       	cpc	r27, r23
    1abe:	14 f4       	brge	.+4      	; 0x1ac4 <voCoffeeFSM_Task+0x282>
    1ac0:	00 00       	nop
    1ac2:	3a c0       	rjmp	.+116    	; 0x1b38 <voCoffeeFSM_Task+0x2f6>
    1ac4:	80 e0       	ldi	r24, 0x00	; 0
				/* We need to wait untill we get up to 90C */
				/* If we can't reach within 5 Minutes we stop the heatup */
				asm("nop");
    1ac6:	0e 94 c1 1d 	call	0x3b82	; 0x3b82 <voSetPumpState>
					
				
				/* and we also need to set a Timout if we can't reach out temp */
			} else {
				/* Next is to start the Pump and deliver on Coffee */
				voSetPumpState(PUMP_RUNNING);	
    1aca:	83 e0       	ldi	r24, 0x03	; 3
    1acc:	80 93 e3 02 	sts	0x02E3, r24	; 0x8002e3 <emFSMState>
				emFSMState=coffeemaker_fillcup;
    1ad0:	33 c0       	rjmp	.+102    	; 0x1b38 <voCoffeeFSM_Task+0x2f6>
    1ad2:	68 e0       	ldi	r22, 0x08	; 8
    1ad4:	81 e0       	ldi	r24, 0x01	; 1
    1ad6:	0e 94 1e 1d 	call	0x3a3c	; 0x3a3c <LLS_voSetLedLightning>
			
		}break;
		
		case coffeemaker_fillcup: {
		
			LLS_voSetLedLightning(LED_POWER,LED_STATIC_OFF);
    1ada:	80 91 c3 02 	lds	r24, 0x02C3	; 0x8002c3 <tStatusBits>
    1ade:	68 e0       	ldi	r22, 0x08	; 8
			if(tStatusBits.bFillTwoCups==0){
    1ae0:	82 fd       	sbrc	r24, 2
    1ae2:	06 c0       	rjmp	.+12     	; 0x1af0 <voCoffeeFSM_Task+0x2ae>
				LLS_voSetLedLightning(LED_TWOCUP,LED_STATIC_OFF);
    1ae4:	82 e0       	ldi	r24, 0x02	; 2
		}break;
		
		case coffeemaker_fillcup: {
		
			LLS_voSetLedLightning(LED_POWER,LED_STATIC_OFF);
			if(tStatusBits.bFillTwoCups==0){
    1ae6:	0e 94 1e 1d 	call	0x3a3c	; 0x3a3c <LLS_voSetLedLightning>
				LLS_voSetLedLightning(LED_TWOCUP,LED_STATIC_OFF);
    1aea:	62 e0       	ldi	r22, 0x02	; 2
    1aec:	80 e0       	ldi	r24, 0x00	; 0
    1aee:	05 c0       	rjmp	.+10     	; 0x1afa <voCoffeeFSM_Task+0x2b8>
				LLS_voSetLedLightning(LED_ONECUP,LED_BLINK_2Hz);
    1af0:	80 e0       	ldi	r24, 0x00	; 0
    1af2:	0e 94 1e 1d 	call	0x3a3c	; 0x3a3c <LLS_voSetLedLightning>
			} else {
				LLS_voSetLedLightning(LED_ONECUP,LED_STATIC_OFF);
    1af6:	62 e0       	ldi	r22, 0x02	; 2
    1af8:	82 e0       	ldi	r24, 0x02	; 2
    1afa:	0e 94 1e 1d 	call	0x3a3c	; 0x3a3c <LLS_voSetLedLightning>
				LLS_voSetLedLightning(LED_TWOCUP,LED_BLINK_2Hz);
    1afe:	0e 94 cc 1d 	call	0x3b98	; 0x3b98 <u32PSE_GetCurrentRuntimeMS>
    1b02:	20 91 cd 02 	lds	r18, 0x02CD	; 0x8002cd <tFSMCoffeProg+0x4>
			}
			
			
			if(u32PSE_GetCurrentRuntimeMS()<tFSMCoffeProg.u16PreWaterLevel){
    1b06:	30 91 ce 02 	lds	r19, 0x02CE	; 0x8002ce <tFSMCoffeProg+0x5>
    1b0a:	49 01       	movw	r8, r18
    1b0c:	a1 2c       	mov	r10, r1
    1b0e:	b1 2c       	mov	r11, r1
    1b10:	68 15       	cp	r22, r8
    1b12:	79 05       	cpc	r23, r9
    1b14:	8a 05       	cpc	r24, r10
    1b16:	9b 05       	cpc	r25, r11
    1b18:	78 f0       	brcs	.+30     	; 0x1b38 <voCoffeeFSM_Task+0x2f6>
    1b1a:	84 e0       	ldi	r24, 0x04	; 4
    1b1c:	80 93 e3 02 	sts	0x02E3, r24	; 0x8002e3 <emFSMState>
				/* Do nothing */
			} else {
				/*  Coffee is ready  */
				emFSMState =coffeemaker_wait_xsec_cup;
    1b20:	81 e0       	ldi	r24, 0x01	; 1
    1b22:	0e 94 c1 1d 	call	0x3b82	; 0x3b82 <voSetPumpState>
				voSetPumpState(PUMP_OFF);
    1b26:	40 91 cf 02 	lds	r20, 0x02CF	; 0x8002cf <tFSMCoffeProg+0x6>
    1b2a:	50 91 d0 02 	lds	r21, 0x02D0	; 0x8002d0 <tFSMCoffeProg+0x7>
				/* Reads now user prog */
				voSetTimeOut(PRE_HEAT_TIMER, tFSMCoffeProg.u16PreWaterWait );
    1b2e:	60 e0       	ldi	r22, 0x00	; 0
    1b30:	70 e0       	ldi	r23, 0x00	; 0
    1b32:	80 e0       	ldi	r24, 0x00	; 0
    1b34:	0e 94 0e 1e 	call	0x3c1c	; 0x3c1c <voSetTimeOut>
    1b38:	11 30       	cpi	r17, 0x01	; 1
    1b3a:	09 f0       	breq	.+2      	; 0x1b3e <voCoffeeFSM_Task+0x2fc>
    1b3c:	ec c0       	rjmp	.+472    	; 0x1d16 <voCoffeeFSM_Task+0x4d4>
			}
			if( (KeyChanged == PowerButtonKeyevent.KeyChangeState) & ( SWITCH_PRESSED == PowerButtonKeyevent.SwitchState ) ){
    1b3e:	01 11       	cpse	r16, r1
    1b40:	ea c0       	rjmp	.+468    	; 0x1d16 <voCoffeeFSM_Task+0x4d4>
    1b42:	e7 c0       	rjmp	.+462    	; 0x1d12 <voCoffeeFSM_Task+0x4d0>
    1b44:	68 e0       	ldi	r22, 0x08	; 8
    1b46:	81 e0       	ldi	r24, 0x01	; 1
    1b48:	0e 94 1e 1d 	call	0x3a3c	; 0x3a3c <LLS_voSetLedLightning>
		} break;
		
		case coffeemaker_wait_xsec_cup:{
			
			
			LLS_voSetLedLightning(LED_POWER,LED_STATIC_OFF);
    1b4c:	80 91 c3 02 	lds	r24, 0x02C3	; 0x8002c3 <tStatusBits>
    1b50:	68 e0       	ldi	r22, 0x08	; 8
			
			if(tStatusBits.bFillTwoCups==0){
    1b52:	82 fd       	sbrc	r24, 2
    1b54:	06 c0       	rjmp	.+12     	; 0x1b62 <voCoffeeFSM_Task+0x320>
				LLS_voSetLedLightning(LED_TWOCUP,LED_STATIC_OFF);
    1b56:	82 e0       	ldi	r24, 0x02	; 2
		case coffeemaker_wait_xsec_cup:{
			
			
			LLS_voSetLedLightning(LED_POWER,LED_STATIC_OFF);
			
			if(tStatusBits.bFillTwoCups==0){
    1b58:	0e 94 1e 1d 	call	0x3a3c	; 0x3a3c <LLS_voSetLedLightning>
				LLS_voSetLedLightning(LED_TWOCUP,LED_STATIC_OFF);
    1b5c:	62 e0       	ldi	r22, 0x02	; 2
    1b5e:	80 e0       	ldi	r24, 0x00	; 0
    1b60:	05 c0       	rjmp	.+10     	; 0x1b6c <voCoffeeFSM_Task+0x32a>
				LLS_voSetLedLightning(LED_ONECUP,LED_BLINK_2Hz);
    1b62:	80 e0       	ldi	r24, 0x00	; 0
    1b64:	0e 94 1e 1d 	call	0x3a3c	; 0x3a3c <LLS_voSetLedLightning>
			} else {
				LLS_voSetLedLightning(LED_ONECUP,LED_STATIC_OFF);
    1b68:	62 e0       	ldi	r22, 0x02	; 2
    1b6a:	82 e0       	ldi	r24, 0x02	; 2
    1b6c:	0e 94 1e 1d 	call	0x3a3c	; 0x3a3c <LLS_voSetLedLightning>
				LLS_voSetLedLightning(LED_TWOCUP,LED_BLINK_2Hz);
    1b70:	80 e0       	ldi	r24, 0x00	; 0
    1b72:	0e 94 1d 1e 	call	0x3c3a	; 0x3c3a <u8GetTimeElapsed>
			}
			
			if(u8GetTimeElapsed(PRE_HEAT_TIMER) == TMS_NOT_ELAPSED){
    1b76:	81 11       	cpse	r24, r1
    1b78:	02 c0       	rjmp	.+4      	; 0x1b7e <voCoffeeFSM_Task+0x33c>
    1b7a:	00 00       	nop
    1b7c:	cc c0       	rjmp	.+408    	; 0x1d16 <voCoffeeFSM_Task+0x4d4>
    1b7e:	86 e0       	ldi	r24, 0x06	; 6
				/* Keep in this state */
				asm("nop");
    1b80:	b6 c0       	rjmp	.+364    	; 0x1cee <voCoffeeFSM_Task+0x4ac>
    1b82:	80 91 cb 02 	lds	r24, 0x02CB	; 0x8002cb <tFSMCoffeProg+0x2>
			} else {
			   /* move to next one */
			    emFSMState = coffeemaker_cont_calc_cup;
    1b86:	90 91 cc 02 	lds	r25, 0x02CC	; 0x8002cc <tFSMCoffeProg+0x3>
			
		} break;
		
		case coffeemaker_cont_calc_cup:{
			
			u32FillTime = tFSMCoffeProg.u16WaterLevelFull  ;
    1b8a:	a0 e0       	ldi	r26, 0x00	; 0
    1b8c:	b0 e0       	ldi	r27, 0x00	; 0
    1b8e:	80 93 c5 02 	sts	0x02C5, r24	; 0x8002c5 <u32FillTime>
    1b92:	90 93 c6 02 	sts	0x02C6, r25	; 0x8002c6 <u32FillTime+0x1>
    1b96:	a0 93 c7 02 	sts	0x02C7, r26	; 0x8002c7 <u32FillTime+0x2>
    1b9a:	b0 93 c8 02 	sts	0x02C8, r27	; 0x8002c8 <u32FillTime+0x3>
    1b9e:	80 91 c3 02 	lds	r24, 0x02C3	; 0x8002c3 <tStatusBits>
    1ba2:	82 ff       	sbrs	r24, 2
			if(tStatusBits.bFillTwoCups!=0){
    1ba4:	14 c0       	rjmp	.+40     	; 0x1bce <voCoffeeFSM_Task+0x38c>
    1ba6:	80 91 c5 02 	lds	r24, 0x02C5	; 0x8002c5 <u32FillTime>
    1baa:	90 91 c6 02 	lds	r25, 0x02C6	; 0x8002c6 <u32FillTime+0x1>
				u32FillTime=u32FillTime*2;
    1bae:	a0 91 c7 02 	lds	r26, 0x02C7	; 0x8002c7 <u32FillTime+0x2>
    1bb2:	b0 91 c8 02 	lds	r27, 0x02C8	; 0x8002c8 <u32FillTime+0x3>
    1bb6:	88 0f       	add	r24, r24
    1bb8:	99 1f       	adc	r25, r25
    1bba:	aa 1f       	adc	r26, r26
    1bbc:	bb 1f       	adc	r27, r27
    1bbe:	80 93 c5 02 	sts	0x02C5, r24	; 0x8002c5 <u32FillTime>
    1bc2:	90 93 c6 02 	sts	0x02C6, r25	; 0x8002c6 <u32FillTime+0x1>
    1bc6:	a0 93 c7 02 	sts	0x02C7, r26	; 0x8002c7 <u32FillTime+0x2>
    1bca:	b0 93 c8 02 	sts	0x02C8, r27	; 0x8002c8 <u32FillTime+0x3>
    1bce:	80 91 dd 02 	lds	r24, 0x02DD	; 0x8002dd <tFSMSettings+0x4>
    1bd2:	81 30       	cpi	r24, 0x01	; 1
			}
			
			switch(tFSMSettings.u8coffeelevel){
    1bd4:	51 f0       	breq	.+20     	; 0x1bea <voCoffeeFSM_Task+0x3a8>
    1bd6:	30 f5       	brcc	.+76     	; 0x1c24 <voCoffeeFSM_Task+0x3e2>
    1bd8:	60 91 c5 02 	lds	r22, 0x02C5	; 0x8002c5 <u32FillTime>
    1bdc:	70 91 c6 02 	lds	r23, 0x02C6	; 0x8002c6 <u32FillTime+0x1>
				case 0:{
					u32FillTime=u32FillTime*1/3;
    1be0:	80 91 c7 02 	lds	r24, 0x02C7	; 0x8002c7 <u32FillTime+0x2>
    1be4:	90 91 c8 02 	lds	r25, 0x02C8	; 0x8002c8 <u32FillTime+0x3>
    1be8:	0e c0       	rjmp	.+28     	; 0x1c06 <voCoffeeFSM_Task+0x3c4>
    1bea:	80 91 c5 02 	lds	r24, 0x02C5	; 0x8002c5 <u32FillTime>
    1bee:	90 91 c6 02 	lds	r25, 0x02C6	; 0x8002c6 <u32FillTime+0x1>
				} break;
				
				case 1:{
					u32FillTime=u32FillTime*2/3;
    1bf2:	a0 91 c7 02 	lds	r26, 0x02C7	; 0x8002c7 <u32FillTime+0x2>
    1bf6:	b0 91 c8 02 	lds	r27, 0x02C8	; 0x8002c8 <u32FillTime+0x3>
    1bfa:	bc 01       	movw	r22, r24
    1bfc:	cd 01       	movw	r24, r26
    1bfe:	66 0f       	add	r22, r22
    1c00:	77 1f       	adc	r23, r23
    1c02:	88 1f       	adc	r24, r24
    1c04:	99 1f       	adc	r25, r25
    1c06:	23 e0       	ldi	r18, 0x03	; 3
    1c08:	30 e0       	ldi	r19, 0x00	; 0
    1c0a:	40 e0       	ldi	r20, 0x00	; 0
    1c0c:	50 e0       	ldi	r21, 0x00	; 0
    1c0e:	0e 94 d0 25 	call	0x4ba0	; 0x4ba0 <__udivmodsi4>
    1c12:	20 93 c5 02 	sts	0x02C5, r18	; 0x8002c5 <u32FillTime>
    1c16:	30 93 c6 02 	sts	0x02C6, r19	; 0x8002c6 <u32FillTime+0x1>
    1c1a:	40 93 c7 02 	sts	0x02C7, r20	; 0x8002c7 <u32FillTime+0x2>
    1c1e:	50 93 c8 02 	sts	0x02C8, r21	; 0x8002c8 <u32FillTime+0x3>
    1c22:	10 c0       	rjmp	.+32     	; 0x1c44 <voCoffeeFSM_Task+0x402>
    1c24:	80 91 c5 02 	lds	r24, 0x02C5	; 0x8002c5 <u32FillTime>
				}break;
    1c28:	90 91 c6 02 	lds	r25, 0x02C6	; 0x8002c6 <u32FillTime+0x1>
				case 2:{
					u32FillTime=u32FillTime;
				}break;
				
				default:{
					u32FillTime=u32FillTime;
    1c2c:	a0 91 c7 02 	lds	r26, 0x02C7	; 0x8002c7 <u32FillTime+0x2>
    1c30:	b0 91 c8 02 	lds	r27, 0x02C8	; 0x8002c8 <u32FillTime+0x3>
    1c34:	80 93 c5 02 	sts	0x02C5, r24	; 0x8002c5 <u32FillTime>
    1c38:	90 93 c6 02 	sts	0x02C6, r25	; 0x8002c6 <u32FillTime+0x1>
    1c3c:	a0 93 c7 02 	sts	0x02C7, r26	; 0x8002c7 <u32FillTime+0x2>
    1c40:	b0 93 c8 02 	sts	0x02C8, r27	; 0x8002c8 <u32FillTime+0x3>
    1c44:	85 e0       	ldi	r24, 0x05	; 5
    1c46:	80 93 e3 02 	sts	0x02E3, r24	; 0x8002e3 <emFSMState>
				}break;
			}
			
			emFSMState =coffeemaker_cont_fill_cup;
    1c4a:	40 91 c5 02 	lds	r20, 0x02C5	; 0x8002c5 <u32FillTime>
    1c4e:	50 91 c6 02 	lds	r21, 0x02C6	; 0x8002c6 <u32FillTime+0x1>
			voSetTimeOut(PUMP_TIMER,u32FillTime);
    1c52:	60 91 c7 02 	lds	r22, 0x02C7	; 0x8002c7 <u32FillTime+0x2>
    1c56:	70 91 c8 02 	lds	r23, 0x02C8	; 0x8002c8 <u32FillTime+0x3>
    1c5a:	82 e0       	ldi	r24, 0x02	; 2
    1c5c:	0e 94 0e 1e 	call	0x3c1c	; 0x3c1c <voSetTimeOut>
    1c60:	80 e0       	ldi	r24, 0x00	; 0
    1c62:	0e 94 c1 1d 	call	0x3b82	; 0x3b82 <voSetPumpState>
		    voSetPumpState(PUMP_RUNNING);	   	
    1c66:	57 c0       	rjmp	.+174    	; 0x1d16 <voCoffeeFSM_Task+0x4d4>
    1c68:	68 e0       	ldi	r22, 0x08	; 8
    1c6a:	81 e0       	ldi	r24, 0x01	; 1
		} break;
    1c6c:	0e 94 1e 1d 	call	0x3a3c	; 0x3a3c <LLS_voSetLedLightning>
		
		case coffeemaker_cont_fill_cup:{
			
					
			LLS_voSetLedLightning(LED_POWER,LED_STATIC_OFF);
    1c70:	80 91 c3 02 	lds	r24, 0x02C3	; 0x8002c3 <tStatusBits>
    1c74:	62 e0       	ldi	r22, 0x02	; 2
			/* We need to see if we have one or two cups filling */
			
			
			if(tStatusBits.bFillTwoCups!=0){
    1c76:	82 ff       	sbrs	r24, 2
    1c78:	06 c0       	rjmp	.+12     	; 0x1c86 <voCoffeeFSM_Task+0x444>
				LLS_voSetLedLightning(LED_TWOCUP,LED_BLINK_2Hz);
    1c7a:	82 e0       	ldi	r24, 0x02	; 2
					
			LLS_voSetLedLightning(LED_POWER,LED_STATIC_OFF);
			/* We need to see if we have one or two cups filling */
			
			
			if(tStatusBits.bFillTwoCups!=0){
    1c7c:	0e 94 1e 1d 	call	0x3a3c	; 0x3a3c <LLS_voSetLedLightning>
				LLS_voSetLedLightning(LED_TWOCUP,LED_BLINK_2Hz);
    1c80:	68 e0       	ldi	r22, 0x08	; 8
    1c82:	80 e0       	ldi	r24, 0x00	; 0
    1c84:	05 c0       	rjmp	.+10     	; 0x1c90 <voCoffeeFSM_Task+0x44e>
				LLS_voSetLedLightning(LED_ONECUP,LED_STATIC_OFF);
    1c86:	80 e0       	ldi	r24, 0x00	; 0
    1c88:	0e 94 1e 1d 	call	0x3a3c	; 0x3a3c <LLS_voSetLedLightning>
				
			} else {
				LLS_voSetLedLightning(LED_ONECUP,LED_BLINK_2Hz);
    1c8c:	68 e0       	ldi	r22, 0x08	; 8
    1c8e:	82 e0       	ldi	r24, 0x02	; 2
    1c90:	0e 94 1e 1d 	call	0x3a3c	; 0x3a3c <LLS_voSetLedLightning>
				LLS_voSetLedLightning(LED_TWOCUP,LED_STATIC_OFF);
    1c94:	82 e0       	ldi	r24, 0x02	; 2
    1c96:	0e 94 1d 1e 	call	0x3c3a	; 0x3c3a <u8GetTimeElapsed>
			}
			
			
			
			
			if(u8GetTimeElapsed(PUMP_TIMER)==TMS_NOT_ELAPSED){
    1c9a:	88 23       	and	r24, r24
    1c9c:	e1 f1       	breq	.+120    	; 0x1d16 <voCoffeeFSM_Task+0x4d4>
    1c9e:	81 e0       	ldi	r24, 0x01	; 1
    1ca0:	0e 94 c1 1d 	call	0x3b82	; 0x3b82 <voSetPumpState>
				/* Do nothing */
			} else {
				/*  Coffee is ready  */
				voSetPumpState(PUMP_OFF);
    1ca4:	60 91 d9 02 	lds	r22, 0x02D9	; 0x8002d9 <tFSMSettings>
    1ca8:	70 e0       	ldi	r23, 0x00	; 0
				voSetTimeOut(AUTO_POWER_OFFTIMER, TMS_MIN( tFSMSettings.u8AutoPowerOffTime ) );
    1caa:	80 e0       	ldi	r24, 0x00	; 0
    1cac:	90 e0       	ldi	r25, 0x00	; 0
    1cae:	20 e6       	ldi	r18, 0x60	; 96
    1cb0:	3a ee       	ldi	r19, 0xEA	; 234
    1cb2:	40 e0       	ldi	r20, 0x00	; 0
    1cb4:	50 e0       	ldi	r21, 0x00	; 0
    1cb6:	0e 94 a3 25 	call	0x4b46	; 0x4b46 <__mulsi3>
    1cba:	ab 01       	movw	r20, r22
    1cbc:	bc 01       	movw	r22, r24
    1cbe:	81 e0       	ldi	r24, 0x01	; 1
    1cc0:	0e 94 0e 1e 	call	0x3c1c	; 0x3c1c <voSetTimeOut>
    1cc4:	81 e0       	ldi	r24, 0x01	; 1
    1cc6:	13 c0       	rjmp	.+38     	; 0x1cee <voCoffeeFSM_Task+0x4ac>
				emFSMState =coffeemaker_preheat;
    1cc8:	80 e0       	ldi	r24, 0x00	; 0
    1cca:	90 e8       	ldi	r25, 0x80	; 128
			
			
		}break;
		
		case coffeemaker_boiler_cold_clean:{
			voBTC_SetBoilerSetTemp(INT16_MIN); /* 0C */
    1ccc:	b6 db       	rcall	.-2196   	; 0x143a <voBTC_SetBoilerSetTemp>
    1cce:	62 e0       	ldi	r22, 0x02	; 2
    1cd0:	80 e0       	ldi	r24, 0x00	; 0
    1cd2:	0e 94 1e 1d 	call	0x3a3c	; 0x3a3c <LLS_voSetLedLightning>
			LLS_voSetLedLightning(LED_ONECUP,LED_BLINK_2Hz);
    1cd6:	62 e0       	ldi	r22, 0x02	; 2
    1cd8:	81 e0       	ldi	r24, 0x01	; 1
    1cda:	0e 94 1e 1d 	call	0x3a3c	; 0x3a3c <LLS_voSetLedLightning>
			LLS_voSetLedLightning(LED_POWER,LED_BLINK_2Hz);
    1cde:	62 e0       	ldi	r22, 0x02	; 2
    1ce0:	82 e0       	ldi	r24, 0x02	; 2
    1ce2:	0e 94 1e 1d 	call	0x3a3c	; 0x3a3c <LLS_voSetLedLightning>
			LLS_voSetLedLightning(LED_TWOCUP,LED_BLINK_2Hz);
    1ce6:	80 e0       	ldi	r24, 0x00	; 0
    1ce8:	0e 94 c1 1d 	call	0x3b82	; 0x3b82 <voSetPumpState>
			voSetPumpState(PUMP_RUNNING); /* Enable pump */
    1cec:	88 e0       	ldi	r24, 0x08	; 8
    1cee:	80 93 e3 02 	sts	0x02E3, r24	; 0x8002e3 <emFSMState>
			emFSMState = coffeemaker_pump_till_empty;
    1cf2:	11 c0       	rjmp	.+34     	; 0x1d16 <voCoffeeFSM_Task+0x4d4>
    1cf4:	0e 94 61 1c 	call	0x38c2	; 0x38c2 <HMon_tGetFaultAndWarning>
		}break;
    1cf8:	29 83       	std	Y+1, r18	; 0x01
		
		case coffeemaker_pump_till_empty:{
			FaultAndWarning_t htl = HMon_tGetFaultAndWarning();
    1cfa:	3a 83       	std	Y+2, r19	; 0x02
    1cfc:	4b 83       	std	Y+3, r20	; 0x03
    1cfe:	5c 83       	std	Y+4, r21	; 0x04
    1d00:	6d 83       	std	Y+5, r22	; 0x05
    1d02:	21 30       	cpi	r18, 0x01	; 1
    1d04:	31 f0       	breq	.+12     	; 0x1d12 <voCoffeeFSM_Task+0x4d0>
    1d06:	31 30       	cpi	r19, 0x01	; 1
			if( ( 1 == htl.WaterLevelLowFault  ) || ( 1 == htl.WaterLevelLowWarning) ){
    1d08:	21 f0       	breq	.+8      	; 0x1d12 <voCoffeeFSM_Task+0x4d0>
    1d0a:	11 30       	cpi	r17, 0x01	; 1
    1d0c:	21 f4       	brne	.+8      	; 0x1d16 <voCoffeeFSM_Task+0x4d4>
    1d0e:	01 30       	cpi	r16, 0x01	; 1
				//Usually not requiered to do so as the health monitring at the beginning will send us now to idle
				emFSMState = coffeemaker_idle; //Back to idle....
			} else {
				//If we have a powerbtn press we will go to IDLE
				if( (KeyChanged == PowerButtonKeyevent.KeyChangeState) & ( SWITCH_RELEASED == PowerButtonKeyevent.SwitchState ) ){
    1d10:	11 f4       	brne	.+4      	; 0x1d16 <voCoffeeFSM_Task+0x4d4>
    1d12:	10 92 e3 02 	sts	0x02E3, r1	; 0x8002e3 <emFSMState>
				}
			}
		}break;
		
		default:{
			emFSMState = coffeemaker_idle;
    1d16:	80 91 e3 02 	lds	r24, 0x02E3	; 0x8002e3 <emFSMState>
		}
	}
	
	if(emFSMState != coffeemaker_idle){
    1d1a:	88 23       	and	r24, r24
    1d1c:	39 f1       	breq	.+78     	; 0x1d6c <voCoffeeFSM_Task+0x52a>
		voProcessLidKey(emFSMState);
    1d1e:	80 91 e3 02 	lds	r24, 0x02E3	; 0x8002e3 <emFSMState>
    1d22:	3a dd       	rcall	.-1420   	; 0x1798 <voProcessLidKey>
		voCoffeeFSM_DrawArrows(tStatusBits.bIsBrewing);
    1d24:	80 91 c3 02 	lds	r24, 0x02C3	; 0x8002c3 <tStatusBits>
    1d28:	81 70       	andi	r24, 0x01	; 1
    1d2a:	52 dd       	rcall	.-1372   	; 0x17d0 <voCoffeeFSM_DrawArrows>
		voCoffeeFSM_DrawCup(tFSMSettings.u8coffeelevel);
    1d2c:	80 91 dd 02 	lds	r24, 0x02DD	; 0x8002dd <tFSMSettings+0x4>
    1d30:	17 dd       	rcall	.-1490   	; 0x1760 <voCoffeeFSM_DrawCup>
    1d32:	81 e0       	ldi	r24, 0x01	; 1
		voCoffeeFSM_DrawWaterEmpty(HealthState.WaterLevelLowFault);
    1d34:	e1 10       	cpse	r14, r1
    1d36:	01 c0       	rjmp	.+2      	; 0x1d3a <voCoffeeFSM_Task+0x4f8>
    1d38:	80 e0       	ldi	r24, 0x00	; 0
    1d3a:	52 dd       	rcall	.-1372   	; 0x17e0 <voCoffeeFSM_DrawWaterEmpty>
    1d3c:	84 db       	rcall	.-2296   	; 0x1446 <boBTC_GetIsHeating>
    1d3e:	61 e0       	ldi	r22, 0x01	; 1
		voCoffeeFSM_DrawThermometer(boBTC_GetIsHeating(),HealthState.OverTemperaturFault);
    1d40:	f1 10       	cpse	r15, r1
    1d42:	01 c0       	rjmp	.+2      	; 0x1d46 <voCoffeeFSM_Task+0x504>
    1d44:	60 e0       	ldi	r22, 0x00	; 0
    1d46:	2a 96       	adiw	r28, 0x0a	; 10
    1d48:	0f b6       	in	r0, 0x3f	; 63
    1d4a:	f8 94       	cli
	} else {
		voProcessLidKey(emFSMState);
		DPS_SetDisplayOff();
	}
}
    1d4c:	de bf       	out	0x3e, r29	; 62
    1d4e:	0f be       	out	0x3f, r0	; 63
    1d50:	cd bf       	out	0x3d, r28	; 61
    1d52:	df 91       	pop	r29
    1d54:	cf 91       	pop	r28
    1d56:	1f 91       	pop	r17
    1d58:	0f 91       	pop	r16
    1d5a:	ff 90       	pop	r15
    1d5c:	ef 90       	pop	r14
    1d5e:	df 90       	pop	r13
    1d60:	cf 90       	pop	r12
    1d62:	bf 90       	pop	r11
    1d64:	af 90       	pop	r10
    1d66:	9f 90       	pop	r9
    1d68:	8f 90       	pop	r8
    1d6a:	46 cd       	rjmp	.-1396   	; 0x17f8 <voCoffeeFSM_DrawThermometer>
	if(emFSMState != coffeemaker_idle){
		voProcessLidKey(emFSMState);
		voCoffeeFSM_DrawArrows(tStatusBits.bIsBrewing);
		voCoffeeFSM_DrawCup(tFSMSettings.u8coffeelevel);
		voCoffeeFSM_DrawWaterEmpty(HealthState.WaterLevelLowFault);
		voCoffeeFSM_DrawThermometer(boBTC_GetIsHeating(),HealthState.OverTemperaturFault);
    1d6c:	80 91 e3 02 	lds	r24, 0x02E3	; 0x8002e3 <emFSMState>
	} else {
		voProcessLidKey(emFSMState);
    1d70:	13 dd       	rcall	.-1498   	; 0x1798 <voProcessLidKey>
    1d72:	2a 96       	adiw	r28, 0x0a	; 10
    1d74:	0f b6       	in	r0, 0x3f	; 63
    1d76:	f8 94       	cli
		DPS_SetDisplayOff();
	}
}
    1d78:	de bf       	out	0x3e, r29	; 62
    1d7a:	0f be       	out	0x3f, r0	; 63
    1d7c:	cd bf       	out	0x3d, r28	; 61
    1d7e:	df 91       	pop	r29
    1d80:	cf 91       	pop	r28
    1d82:	1f 91       	pop	r17
    1d84:	0f 91       	pop	r16
    1d86:	ff 90       	pop	r15
    1d88:	ef 90       	pop	r14
    1d8a:	df 90       	pop	r13
    1d8c:	cf 90       	pop	r12
    1d8e:	bf 90       	pop	r11
    1d90:	af 90       	pop	r10
    1d92:	9f 90       	pop	r9
    1d94:	8f 90       	pop	r8
    1d96:	0c 94 d5 18 	jmp	0x31aa	; 0x31aa <DPS_SetDisplayOff>

00001d9a <voCleanBuffer>:
/* This functions are currently integrated into main 
need to be moved */
extern bool boGetConnected( void );
extern FILE* GetUSBStream( void );

void voCleanBuffer( void ){
    1d9a:	80 e0       	ldi	r24, 0x00	; 0
    1d9c:	90 e0       	ldi	r25, 0x00	; 0
	for(uint8_t i =0;i<INPUTBUFFERSIZE;i++){
		chInputBuffer[i]=0;
    1d9e:	fc 01       	movw	r30, r24
    1da0:	e7 5e       	subi	r30, 0xE7	; 231
    1da2:	fc 4f       	sbci	r31, 0xFC	; 252
    1da4:	10 82       	st	Z, r1
    1da6:	01 96       	adiw	r24, 0x01	; 1
need to be moved */
extern bool boGetConnected( void );
extern FILE* GetUSBStream( void );

void voCleanBuffer( void ){
	for(uint8_t i =0;i<INPUTBUFFERSIZE;i++){
    1da8:	80 34       	cpi	r24, 0x40	; 64
    1daa:	91 05       	cpc	r25, r1
    1dac:	c1 f7       	brne	.-16     	; 0x1d9e <voCleanBuffer+0x4>
		chInputBuffer[i]=0;
	}
	u8InputBufferWriteIdx=0;
    1dae:	10 92 5a 03 	sts	0x035A, r1	; 0x80035a <u8InputBufferWriteIdx>
    1db2:	08 95       	ret

00001db4 <CMDI_voInit>:
	
}

void CMDI_voInit(){

	CmdConfig.bfEcho=0;
    1db4:	80 91 18 03 	lds	r24, 0x0318	; 0x800318 <CmdConfig>
    1db8:	8e 7f       	andi	r24, 0xFE	; 254
    1dba:	80 93 18 03 	sts	0x0318, r24	; 0x800318 <CmdConfig>
	voSetProgToChange(0);
    1dbe:	80 e0       	ldi	r24, 0x00	; 0
    1dc0:	0e 94 9f 18 	call	0x313e	; 0x313e <voSetProgToChange>
	voCleanBuffer();
    1dc4:	ea cf       	rjmp	.-44     	; 0x1d9a <voCleanBuffer>

00001dc6 <CMDI_boAddCharToBuffer>:
	
	
}

bool CMDI_boAddCharToBuffer(char Element){
    1dc6:	cf 93       	push	r28
    1dc8:	df 93       	push	r29
	bool boWriteDone = false;
	
	if(u8InputBufferWriteIdx<INPUTBUFFERSIZE){
    1dca:	90 91 5a 03 	lds	r25, 0x035A	; 0x80035a <u8InputBufferWriteIdx>
    1dce:	90 34       	cpi	r25, 0x40	; 64
    1dd0:	68 f4       	brcc	.+26     	; 0x1dec <CMDI_boAddCharToBuffer+0x26>
		chInputBuffer[u8InputBufferWriteIdx]=Element;
    1dd2:	e0 91 5a 03 	lds	r30, 0x035A	; 0x80035a <u8InputBufferWriteIdx>
    1dd6:	f0 e0       	ldi	r31, 0x00	; 0
    1dd8:	e7 5e       	subi	r30, 0xE7	; 231
    1dda:	fc 4f       	sbci	r31, 0xFC	; 252
    1ddc:	80 83       	st	Z, r24
		u8InputBufferWriteIdx++;
    1dde:	90 91 5a 03 	lds	r25, 0x035A	; 0x80035a <u8InputBufferWriteIdx>
    1de2:	9f 5f       	subi	r25, 0xFF	; 255
    1de4:	90 93 5a 03 	sts	0x035A, r25	; 0x80035a <u8InputBufferWriteIdx>
		boWriteDone = true;
    1de8:	d1 e0       	ldi	r29, 0x01	; 1
    1dea:	03 c0       	rjmp	.+6      	; 0x1df2 <CMDI_boAddCharToBuffer+0x2c>
		} else {
		chInputBuffer[(INPUTBUFFERSIZE-1)]=Element;
    1dec:	80 93 58 03 	sts	0x0358, r24	; 0x800358 <chInputBuffer+0x3f>
	
	
}

bool CMDI_boAddCharToBuffer(char Element){
	bool boWriteDone = false;
    1df0:	d0 e0       	ldi	r29, 0x00	; 0
		u8InputBufferWriteIdx++;
		boWriteDone = true;
		} else {
		chInputBuffer[(INPUTBUFFERSIZE-1)]=Element;
	}
	if(CmdConfig.bfEcho!=0){
    1df2:	90 91 18 03 	lds	r25, 0x0318	; 0x800318 <CmdConfig>
    1df6:	90 ff       	sbrs	r25, 0
    1df8:	17 c0       	rjmp	.+46     	; 0x1e28 <CMDI_boAddCharToBuffer+0x62>
    1dfa:	c8 2f       	mov	r28, r24
		if(boGetConnected()==true){
    1dfc:	0e 94 34 1e 	call	0x3c68	; 0x3c68 <boGetConnected>
    1e00:	88 23       	and	r24, r24
    1e02:	91 f0       	breq	.+36     	; 0x1e28 <CMDI_boAddCharToBuffer+0x62>
			FILE* USBSTREAM = GetUSBStream();
    1e04:	0e 94 3a 1e 	call	0x3c74	; 0x3c74 <GetUSBStream>
			fprintf_P(USBSTREAM,PSTR("%c"),Element);
    1e08:	1f 92       	push	r1
    1e0a:	cf 93       	push	r28
    1e0c:	27 e8       	ldi	r18, 0x87	; 135
    1e0e:	31 e0       	ldi	r19, 0x01	; 1
    1e10:	3f 93       	push	r19
    1e12:	2f 93       	push	r18
    1e14:	9f 93       	push	r25
    1e16:	8f 93       	push	r24
    1e18:	0e 94 26 26 	call	0x4c4c	; 0x4c4c <fprintf_P>
    1e1c:	0f 90       	pop	r0
    1e1e:	0f 90       	pop	r0
    1e20:	0f 90       	pop	r0
    1e22:	0f 90       	pop	r0
    1e24:	0f 90       	pop	r0
    1e26:	0f 90       	pop	r0
		}
	}
	return boWriteDone;
}
    1e28:	8d 2f       	mov	r24, r29
    1e2a:	df 91       	pop	r29
    1e2c:	cf 91       	pop	r28
    1e2e:	08 95       	ret

00001e30 <StringToUint>:
	
	
}


bool StringToUint(char* elements, uint32_t* u32converted){
    1e30:	8f 92       	push	r8
    1e32:	9f 92       	push	r9
    1e34:	af 92       	push	r10
    1e36:	bf 92       	push	r11
    1e38:	ef 92       	push	r14
    1e3a:	ff 92       	push	r15
    1e3c:	0f 93       	push	r16
    1e3e:	1f 93       	push	r17
    1e40:	cf 93       	push	r28
    1e42:	8c 01       	movw	r16, r24
    1e44:	7b 01       	movw	r14, r22
	
	bool boHasError=false;

	(*u32converted)=0;
    1e46:	fb 01       	movw	r30, r22
    1e48:	10 82       	st	Z, r1
    1e4a:	11 82       	std	Z+1, r1	; 0x01
    1e4c:	12 82       	std	Z+2, r1	; 0x02
    1e4e:	13 82       	std	Z+3, r1	; 0x03
	/* Seach for presign */
	if( (*elements == '+') || (*elements=='-') ) {
    1e50:	fc 01       	movw	r30, r24
    1e52:	80 81       	ld	r24, Z
    1e54:	8b 32       	cpi	r24, 0x2B	; 43
    1e56:	21 f0       	breq	.+8      	; 0x1e60 <StringToUint+0x30>
    1e58:	8d 32       	cpi	r24, 0x2D	; 45
    1e5a:	31 f4       	brne	.+12     	; 0x1e68 <StringToUint+0x38>
}


bool StringToUint(char* elements, uint32_t* u32converted){
	
	bool boHasError=false;
    1e5c:	c1 e0       	ldi	r28, 0x01	; 1
    1e5e:	01 c0       	rjmp	.+2      	; 0x1e62 <StringToUint+0x32>
    1e60:	c0 e0       	ldi	r28, 0x00	; 0
			/* We do unsigned here we report an error */
			boHasError=true;
			} else {
			/* Do nothing here */
		}
		elements++;
    1e62:	0f 5f       	subi	r16, 0xFF	; 255
    1e64:	1f 4f       	sbci	r17, 0xFF	; 255
    1e66:	36 c0       	rjmp	.+108    	; 0x1ed4 <StringToUint+0xa4>
}


bool StringToUint(char* elements, uint32_t* u32converted){
	
	bool boHasError=false;
    1e68:	c0 e0       	ldi	r28, 0x00	; 0
    1e6a:	34 c0       	rjmp	.+104    	; 0x1ed4 <StringToUint+0xa4>
		}
		elements++;
	}
	
	while( (*elements!='\0')&&(boHasError==false)){
		if( (*elements>='0') && (*elements<='9') ){
    1e6c:	c4 2f       	mov	r28, r20
			/* Do nothing here */
		}
		elements++;
	}
	
	while( (*elements!='\0')&&(boHasError==false)){
    1e6e:	33 23       	and	r19, r19
    1e70:	c9 f1       	breq	.+114    	; 0x1ee4 <StringToUint+0xb4>
    1e72:	c1 11       	cpse	r28, r1
    1e74:	37 c0       	rjmp	.+110    	; 0x1ee4 <StringToUint+0xb4>
		if( (*elements>='0') && (*elements<='9') ){
    1e76:	2a 30       	cpi	r18, 0x0A	; 10
    1e78:	98 f5       	brcc	.+102    	; 0x1ee0 <StringToUint+0xb0>
			if(*u32converted<(UINT32_MAX/10))
    1e7a:	f7 01       	movw	r30, r14
    1e7c:	60 81       	ld	r22, Z
    1e7e:	71 81       	ldd	r23, Z+1	; 0x01
    1e80:	82 81       	ldd	r24, Z+2	; 0x02
    1e82:	93 81       	ldd	r25, Z+3	; 0x03
			{
				*u32converted=(*u32converted) * 10;
				*u32converted=(*u32converted)+( (*elements)-'0');
				elements++;
				} else {
				boHasError=true;
    1e84:	41 e0       	ldi	r20, 0x01	; 1
		elements++;
	}
	
	while( (*elements!='\0')&&(boHasError==false)){
		if( (*elements>='0') && (*elements<='9') ){
			if(*u32converted<(UINT32_MAX/10))
    1e86:	69 39       	cpi	r22, 0x99	; 153
    1e88:	f9 e9       	ldi	r31, 0x99	; 153
    1e8a:	7f 07       	cpc	r23, r31
    1e8c:	8f 07       	cpc	r24, r31
    1e8e:	f9 e1       	ldi	r31, 0x19	; 25
    1e90:	9f 07       	cpc	r25, r31
    1e92:	60 f7       	brcc	.-40     	; 0x1e6c <StringToUint+0x3c>
			{
				*u32converted=(*u32converted) * 10;
    1e94:	2a e0       	ldi	r18, 0x0A	; 10
    1e96:	30 e0       	ldi	r19, 0x00	; 0
    1e98:	40 e0       	ldi	r20, 0x00	; 0
    1e9a:	50 e0       	ldi	r21, 0x00	; 0
    1e9c:	0e 94 a3 25 	call	0x4b46	; 0x4b46 <__mulsi3>
    1ea0:	f7 01       	movw	r30, r14
    1ea2:	60 83       	st	Z, r22
    1ea4:	71 83       	std	Z+1, r23	; 0x01
    1ea6:	82 83       	std	Z+2, r24	; 0x02
    1ea8:	93 83       	std	Z+3, r25	; 0x03
				*u32converted=(*u32converted)+( (*elements)-'0');
    1eaa:	f8 01       	movw	r30, r16
    1eac:	21 91       	ld	r18, Z+
    1eae:	8f 01       	movw	r16, r30
    1eb0:	30 e0       	ldi	r19, 0x00	; 0
    1eb2:	20 53       	subi	r18, 0x30	; 48
    1eb4:	31 09       	sbc	r19, r1
    1eb6:	49 01       	movw	r8, r18
    1eb8:	33 0f       	add	r19, r19
    1eba:	aa 08       	sbc	r10, r10
    1ebc:	bb 08       	sbc	r11, r11
    1ebe:	dc 01       	movw	r26, r24
    1ec0:	cb 01       	movw	r24, r22
    1ec2:	88 0d       	add	r24, r8
    1ec4:	99 1d       	adc	r25, r9
    1ec6:	aa 1d       	adc	r26, r10
    1ec8:	bb 1d       	adc	r27, r11
    1eca:	f7 01       	movw	r30, r14
    1ecc:	80 83       	st	Z, r24
    1ece:	91 83       	std	Z+1, r25	; 0x01
    1ed0:	a2 83       	std	Z+2, r26	; 0x02
    1ed2:	b3 83       	std	Z+3, r27	; 0x03
			/* Do nothing here */
		}
		elements++;
	}
	
	while( (*elements!='\0')&&(boHasError==false)){
    1ed4:	f8 01       	movw	r30, r16
    1ed6:	30 81       	ld	r19, Z
		if( (*elements>='0') && (*elements<='9') ){
    1ed8:	20 ed       	ldi	r18, 0xD0	; 208
    1eda:	23 0f       	add	r18, r19
    1edc:	4c 2f       	mov	r20, r28
    1ede:	c6 cf       	rjmp	.-116    	; 0x1e6c <StringToUint+0x3c>
				} else {
				boHasError=true;
			}
			} else {
			//parsererror
			boHasError=true;
    1ee0:	c1 e0       	ldi	r28, 0x01	; 1
    1ee2:	c5 cf       	rjmp	.-118    	; 0x1e6e <StringToUint+0x3e>
		}
	}
	return boHasError;
}
    1ee4:	8c 2f       	mov	r24, r28
    1ee6:	cf 91       	pop	r28
    1ee8:	1f 91       	pop	r17
    1eea:	0f 91       	pop	r16
    1eec:	ff 90       	pop	r15
    1eee:	ef 90       	pop	r14
    1ef0:	bf 90       	pop	r11
    1ef2:	af 90       	pop	r10
    1ef4:	9f 90       	pop	r9
    1ef6:	8f 90       	pop	r8
    1ef8:	08 95       	ret

00001efa <finddelimiter>:


char* finddelimiter(char* input, char delimiter, uint8_t* size){
	char* searchptr=input;
    1efa:	fc 01       	movw	r30, r24
	uint8_t u8pos=0;
	bool boFound=false;
    1efc:	20 e0       	ldi	r18, 0x00	; 0
    1efe:	3e 2f       	mov	r19, r30
    1f00:	38 1b       	sub	r19, r24
	while( (*searchptr!='\0' ) && ( u8pos<*size) && (boFound==false)){
    1f02:	70 81       	ld	r23, Z
    1f04:	da 01       	movw	r26, r20
    1f06:	9c 91       	ld	r25, X
    1f08:	77 23       	and	r23, r23
    1f0a:	51 f0       	breq	.+20     	; 0x1f20 <finddelimiter+0x26>
    1f0c:	39 17       	cp	r19, r25
    1f0e:	40 f4       	brcc	.+16     	; 0x1f20 <finddelimiter+0x26>
    1f10:	21 11       	cpse	r18, r1
    1f12:	06 c0       	rjmp	.+12     	; 0x1f20 <finddelimiter+0x26>
		if(*searchptr==delimiter){
    1f14:	76 13       	cpse	r23, r22
    1f16:	02 c0       	rjmp	.+4      	; 0x1f1c <finddelimiter+0x22>
			boFound=true;
			*searchptr='\0';
    1f18:	10 82       	st	Z, r1
	char* searchptr=input;
	uint8_t u8pos=0;
	bool boFound=false;
	while( (*searchptr!='\0' ) && ( u8pos<*size) && (boFound==false)){
		if(*searchptr==delimiter){
			boFound=true;
    1f1a:	21 e0       	ldi	r18, 0x01	; 1
			*searchptr='\0';
		}
		searchptr++;
    1f1c:	31 96       	adiw	r30, 0x01	; 1
    1f1e:	ef cf       	rjmp	.-34     	; 0x1efe <finddelimiter+0x4>
		u8pos++;
	}
	*size-=u8pos;
    1f20:	93 1b       	sub	r25, r19
    1f22:	da 01       	movw	r26, r20
    1f24:	9c 93       	st	X, r25
	
	if(boFound==false){
    1f26:	21 11       	cpse	r18, r1
    1f28:	02 c0       	rjmp	.+4      	; 0x1f2e <finddelimiter+0x34>
		searchptr=NULL;
    1f2a:	e0 e0       	ldi	r30, 0x00	; 0
    1f2c:	f0 e0       	ldi	r31, 0x00	; 0
	}
	return searchptr;
}
    1f2e:	cf 01       	movw	r24, r30
    1f30:	08 95       	ret

00001f32 <voProcessData>:

void voProcessData(){
    1f32:	2f 92       	push	r2
    1f34:	3f 92       	push	r3
    1f36:	4f 92       	push	r4
    1f38:	5f 92       	push	r5
    1f3a:	6f 92       	push	r6
    1f3c:	7f 92       	push	r7
    1f3e:	8f 92       	push	r8
    1f40:	9f 92       	push	r9
    1f42:	af 92       	push	r10
    1f44:	bf 92       	push	r11
    1f46:	cf 92       	push	r12
    1f48:	df 92       	push	r13
    1f4a:	ef 92       	push	r14
    1f4c:	ff 92       	push	r15
    1f4e:	0f 93       	push	r16
    1f50:	1f 93       	push	r17
    1f52:	cf 93       	push	r28
    1f54:	df 93       	push	r29
    1f56:	cd b7       	in	r28, 0x3d	; 61
    1f58:	de b7       	in	r29, 0x3e	; 62
    1f5a:	27 97       	sbiw	r28, 0x07	; 7
    1f5c:	0f b6       	in	r0, 0x3f	; 63
    1f5e:	f8 94       	cli
    1f60:	de bf       	out	0x3e, r29	; 62
    1f62:	0f be       	out	0x3f, r0	; 63
    1f64:	cd bf       	out	0x3d, r28	; 61
	
	CMDI_CMD_DATA_t COMMAND;
	
	COMMAND.CMD=CMDI_NONE;
    1f66:	86 e0       	ldi	r24, 0x06	; 6
    1f68:	8a 83       	std	Y+2, r24	; 0x02
	COMMAND.DIR=CMDI_GET;
    1f6a:	81 e0       	ldi	r24, 0x01	; 1
    1f6c:	89 83       	std	Y+1, r24	; 0x01
	COMMAND.u32CmdValue=0;
    1f6e:	1b 82       	std	Y+3, r1	; 0x03
    1f70:	1c 82       	std	Y+4, r1	; 0x04
    1f72:	1d 82       	std	Y+5, r1	; 0x05
    1f74:	1e 82       	std	Y+6, r1	; 0x06
	
	bool boStringEnd=false;
	uint8_t u8TokenNo=0;
	uint8_t u8BufferLenght=64;
    1f76:	80 e4       	ldi	r24, 0x40	; 64
    1f78:	8f 83       	std	Y+7, r24	; 0x07
	char* cptr = (char*)chInputBuffer;
    1f7a:	09 e1       	ldi	r16, 0x19	; 25
    1f7c:	13 e0       	ldi	r17, 0x03	; 3
	COMMAND.CMD=CMDI_NONE;
	COMMAND.DIR=CMDI_GET;
	COMMAND.u32CmdValue=0;
	
	bool boStringEnd=false;
	uint8_t u8TokenNo=0;
    1f7e:	f1 2c       	mov	r15, r1
							COMMAND.CMD=CMDI_ECHO;
						} else if (strcmp_P(cpreptr,PSTR("GPIO"))==0){
							COMMAND.CMD=CMDI_GPIO;
						} else {
							/* We don't know the command and need to prepare an error */
							COMMAND.CMD=CMDI_NONE;							
    1f80:	86 e0       	ldi	r24, 0x06	; 6
    1f82:	e8 2e       	mov	r14, r24
							COMMAND.CMD=CMDI_BOILERTEMP;
						} else if(strcmp_P(cpreptr,PSTR("LEVEL"))==0){
							/* CUP Level */
							COMMAND.CMD=CMDI_CUP_LEVEL;
						} else if(strcmp_P(cpreptr,PSTR("AUTOOFF"))==0){
							COMMAND.CMD=CMDI_AUTOPOWER;
    1f84:	9a e0       	ldi	r25, 0x0A	; 10
    1f86:	a9 2e       	mov	r10, r25
						} else if(strcmp_P(cpreptr,PSTR("BOILERTMP"))==0){
							/* Ausgabe Boiler Temp */
							COMMAND.CMD=CMDI_BOILERTEMP;
						} else if(strcmp_P(cpreptr,PSTR("LEVEL"))==0){
							/* CUP Level */
							COMMAND.CMD=CMDI_CUP_LEVEL;
    1f88:	29 e0       	ldi	r18, 0x09	; 9
    1f8a:	92 2e       	mov	r9, r18
						} else if(strcmp_P(cpreptr,PSTR("CURPWR"))==0){
							/* Ausgabe Leistungsmessung */
							COMMAND.CMD=CMDI_MES_POWER;
						} else if(strcmp_P(cpreptr,PSTR("BOILERTMP"))==0){
							/* Ausgabe Boiler Temp */
							COMMAND.CMD=CMDI_BOILERTEMP;
    1f8c:	38 e0       	ldi	r19, 0x08	; 8
    1f8e:	83 2e       	mov	r8, r19
						} else if(strcmp_P(cpreptr,PSTR("CHPRG"))==0){
							/* SET Prog to Change */
							COMMAND.CMD=CMDI_CHPRG;
						} else if(strcmp_P(cpreptr,PSTR("CURPWR"))==0){
							/* Ausgabe Leistungsmessung */
							COMMAND.CMD=CMDI_MES_POWER;
    1f90:	47 e0       	ldi	r20, 0x07	; 7
    1f92:	34 2e       	mov	r3, r20
						} else if(strcmp_P(cpreptr,PSTR("PRG"))==0){
							/* PRG */
							COMMAND.CMD=CMDI_PRG;
						} else if(strcmp_P(cpreptr,PSTR("CHPRG"))==0){
							/* SET Prog to Change */
							COMMAND.CMD=CMDI_CHPRG;
    1f94:	55 e0       	ldi	r21, 0x05	; 5
    1f96:	25 2e       	mov	r2, r21
						} else if(strcmp_P(cpreptr,PSTR("WAIT"))==0){
							/* WAIT */
							COMMAND.CMD=CMDI_WAIT;
						} else if(strcmp_P(cpreptr,PSTR("PRG"))==0){
							/* PRG */
							COMMAND.CMD=CMDI_PRG;
    1f98:	64 e0       	ldi	r22, 0x04	; 4
    1f9a:	d6 2e       	mov	r13, r22
						if(COMMAND.CMD==CMDI_MAKE){ //If we need to make coffe 
							if(strcmp_P(cpreptr,PSTR("ONECUP"))==0){ 
								COMMAND.u32CmdValue=0;
								
							} else if(strcmp_P(cpreptr,PSTR("TWOCUP"))==0){
								COMMAND.u32CmdValue=1;
    1f9c:	41 2c       	mov	r4, r1
    1f9e:	51 2c       	mov	r5, r1
    1fa0:	32 01       	movw	r6, r4
    1fa2:	43 94       	inc	r4
	uint8_t u8BufferLenght=64;
	char* cptr = (char*)chInputBuffer;
	char* cpreptr = (char*)chInputBuffer;
	/* we need no to parse the string and may  find elements we may know */
	while(boStringEnd==false){
		cptr = finddelimiter(cptr, ' ', &u8BufferLenght);
    1fa4:	ae 01       	movw	r20, r28
    1fa6:	49 5f       	subi	r20, 0xF9	; 249
    1fa8:	5f 4f       	sbci	r21, 0xFF	; 255
    1faa:	60 e2       	ldi	r22, 0x20	; 32
    1fac:	c8 01       	movw	r24, r16
    1fae:	a5 df       	rcall	.-182    	; 0x1efa <finddelimiter>
    1fb0:	b8 2e       	mov	r11, r24
    1fb2:	c9 2e       	mov	r12, r25
		/* We need to check if we are at the string end or found something */
		if(cpreptr!=NULL){
    1fb4:	01 15       	cp	r16, r1
    1fb6:	11 05       	cpc	r17, r1
    1fb8:	09 f4       	brne	.+2      	; 0x1fbc <voProcessData+0x8a>
    1fba:	14 c1       	rjmp	.+552    	; 0x21e4 <voProcessData+0x2b2>
			switch(u8TokenNo){
    1fbc:	81 e0       	ldi	r24, 0x01	; 1
    1fbe:	f8 16       	cp	r15, r24
    1fc0:	c9 f1       	breq	.+114    	; 0x2034 <voProcessData+0x102>
    1fc2:	f8 16       	cp	r15, r24
    1fc4:	28 f0       	brcs	.+10     	; 0x1fd0 <voProcessData+0x9e>
    1fc6:	82 e0       	ldi	r24, 0x02	; 2
    1fc8:	f8 16       	cp	r15, r24
    1fca:	09 f4       	brne	.+2      	; 0x1fce <voProcessData+0x9c>
    1fcc:	c5 c0       	rjmp	.+394    	; 0x2158 <voProcessData+0x226>
    1fce:	06 c1       	rjmp	.+524    	; 0x21dc <voProcessData+0x2aa>
					Checks for first token and can be SET GET CMD HELP or BEER
					This sets the direction the command is intended to operate
				 */
				case 0:{
					
					if(strcmp_P(cpreptr,PSTR("SET"))==0){
    1fd0:	63 e8       	ldi	r22, 0x83	; 131
    1fd2:	71 e0       	ldi	r23, 0x01	; 1
    1fd4:	c8 01       	movw	r24, r16
    1fd6:	0e 94 0e 26 	call	0x4c1c	; 0x4c1c <strcmp_P>
    1fda:	89 2b       	or	r24, r25
    1fdc:	11 f4       	brne	.+4      	; 0x1fe2 <voProcessData+0xb0>
						/* This is a SET */
						COMMAND.DIR=CMDI_SET;				
    1fde:	19 82       	std	Y+1, r1	; 0x01
    1fe0:	fd c0       	rjmp	.+506    	; 0x21dc <voProcessData+0x2aa>
					} else if(strcmp_P(cpreptr,PSTR("GET"))==0){
    1fe2:	6f e7       	ldi	r22, 0x7F	; 127
    1fe4:	71 e0       	ldi	r23, 0x01	; 1
    1fe6:	c8 01       	movw	r24, r16
    1fe8:	0e 94 0e 26 	call	0x4c1c	; 0x4c1c <strcmp_P>
    1fec:	89 2b       	or	r24, r25
    1fee:	11 f4       	brne	.+4      	; 0x1ff4 <voProcessData+0xc2>
						/* This is a GET */
						COMMAND.DIR=CMDI_GET;
    1ff0:	81 e0       	ldi	r24, 0x01	; 1
    1ff2:	08 c0       	rjmp	.+16     	; 0x2004 <voProcessData+0xd2>
					} else if(strcmp_P(cpreptr,PSTR("CMD"))==0){
    1ff4:	6b e7       	ldi	r22, 0x7B	; 123
    1ff6:	71 e0       	ldi	r23, 0x01	; 1
    1ff8:	c8 01       	movw	r24, r16
    1ffa:	0e 94 0e 26 	call	0x4c1c	; 0x4c1c <strcmp_P>
    1ffe:	89 2b       	or	r24, r25
    2000:	19 f4       	brne	.+6      	; 0x2008 <voProcessData+0xd6>
						/* This is a GET */
						COMMAND.DIR=CMDI_CMD;
    2002:	82 e0       	ldi	r24, 0x02	; 2
    2004:	89 83       	std	Y+1, r24	; 0x01
    2006:	ea c0       	rjmp	.+468    	; 0x21dc <voProcessData+0x2aa>
					} else if(strcmp_P(cpreptr,PSTR("HELP"))==0){
    2008:	66 e7       	ldi	r22, 0x76	; 118
    200a:	71 e0       	ldi	r23, 0x01	; 1
    200c:	c8 01       	movw	r24, r16
    200e:	0e 94 0e 26 	call	0x4c1c	; 0x4c1c <strcmp_P>
    2012:	89 2b       	or	r24, r25
    2014:	19 f4       	brne	.+6      	; 0x201c <voProcessData+0xea>
						/* This is a GET */
						COMMAND.DIR=CMDI_HELP;
    2016:	83 e0       	ldi	r24, 0x03	; 3
    2018:	89 83       	std	Y+1, r24	; 0x01
    201a:	08 c0       	rjmp	.+16     	; 0x202c <voProcessData+0xfa>
						COMMAND.CMD=CMDI_SYS_HELP;
					} else if (strcmp_P(cpreptr,PSTR("BEER"))==0){
    201c:	61 e7       	ldi	r22, 0x71	; 113
    201e:	71 e0       	ldi	r23, 0x01	; 1
    2020:	c8 01       	movw	r24, r16
    2022:	0e 94 0e 26 	call	0x4c1c	; 0x4c1c <strcmp_P>
    2026:	89 2b       	or	r24, r25
    2028:	19 f4       	brne	.+6      	; 0x2030 <voProcessData+0xfe>
						COMMAND.DIR=CMDI_BEER;
    202a:	d9 82       	std	Y+1, r13	; 0x01
						COMMAND.CMD=CMDI_SYS_HELP;
    202c:	8c e0       	ldi	r24, 0x0C	; 12
    202e:	19 c0       	rjmp	.+50     	; 0x2062 <voProcessData+0x130>
					} else {
						/* We don't know the command and need to prepare an error */
						COMMAND.DIR=CMDI_NONE;
    2030:	e9 82       	std	Y+1, r14	; 0x01
    2032:	d4 c0       	rjmp	.+424    	; 0x21dc <voProcessData+0x2aa>
				} break;
				
				/* Second Token actually decodes what to do  */
				case 1:{
					/* This is for HELP SET and GET */
					if( (COMMAND.DIR==CMDI_HELP) ||(COMMAND.DIR==CMDI_SET) || ( COMMAND.DIR==CMDI_GET) ) {
    2034:	89 81       	ldd	r24, Y+1	; 0x01
    2036:	83 30       	cpi	r24, 0x03	; 3
    2038:	19 f0       	breq	.+6      	; 0x2040 <voProcessData+0x10e>
    203a:	82 30       	cpi	r24, 0x02	; 2
    203c:	08 f0       	brcs	.+2      	; 0x2040 <voProcessData+0x10e>
    203e:	76 c0       	rjmp	.+236    	; 0x212c <voProcessData+0x1fa>

						if(strcmp_P(cpreptr,PSTR("TEMP"))==0){
    2040:	6c e6       	ldi	r22, 0x6C	; 108
    2042:	71 e0       	ldi	r23, 0x01	; 1
    2044:	c8 01       	movw	r24, r16
    2046:	0e 94 0e 26 	call	0x4c1c	; 0x4c1c <strcmp_P>
    204a:	89 2b       	or	r24, r25
    204c:	11 f4       	brne	.+4      	; 0x2052 <voProcessData+0x120>
							/* TEMP */
							COMMAND.CMD=CMDI_TEMP;
    204e:	1a 82       	std	Y+2, r1	; 0x02
    2050:	c5 c0       	rjmp	.+394    	; 0x21dc <voProcessData+0x2aa>
						} else if(strcmp_P(cpreptr,PSTR("PRWA"))==0){
    2052:	67 e6       	ldi	r22, 0x67	; 103
    2054:	71 e0       	ldi	r23, 0x01	; 1
    2056:	c8 01       	movw	r24, r16
    2058:	0e 94 0e 26 	call	0x4c1c	; 0x4c1c <strcmp_P>
    205c:	89 2b       	or	r24, r25
    205e:	19 f4       	brne	.+6      	; 0x2066 <voProcessData+0x134>
							/* PRWA */
							COMMAND.CMD=CMDI_PREWATER;							
    2060:	81 e0       	ldi	r24, 0x01	; 1
    2062:	8a 83       	std	Y+2, r24	; 0x02
    2064:	bb c0       	rjmp	.+374    	; 0x21dc <voProcessData+0x2aa>
						} else if(strcmp_P(cpreptr,PSTR("WATER"))==0){
    2066:	61 e6       	ldi	r22, 0x61	; 97
    2068:	71 e0       	ldi	r23, 0x01	; 1
    206a:	c8 01       	movw	r24, r16
    206c:	0e 94 0e 26 	call	0x4c1c	; 0x4c1c <strcmp_P>
    2070:	89 2b       	or	r24, r25
    2072:	11 f4       	brne	.+4      	; 0x2078 <voProcessData+0x146>
							/* WATER */
							COMMAND.CMD=CMDI_WATER;						
    2074:	82 e0       	ldi	r24, 0x02	; 2
    2076:	f5 cf       	rjmp	.-22     	; 0x2062 <voProcessData+0x130>
						} else if(strcmp_P(cpreptr,PSTR("WAIT"))==0){
    2078:	6c e5       	ldi	r22, 0x5C	; 92
    207a:	71 e0       	ldi	r23, 0x01	; 1
    207c:	c8 01       	movw	r24, r16
    207e:	0e 94 0e 26 	call	0x4c1c	; 0x4c1c <strcmp_P>
    2082:	89 2b       	or	r24, r25
    2084:	11 f4       	brne	.+4      	; 0x208a <voProcessData+0x158>
							/* WAIT */
							COMMAND.CMD=CMDI_WAIT;
    2086:	83 e0       	ldi	r24, 0x03	; 3
    2088:	ec cf       	rjmp	.-40     	; 0x2062 <voProcessData+0x130>
						} else if(strcmp_P(cpreptr,PSTR("PRG"))==0){
    208a:	68 e5       	ldi	r22, 0x58	; 88
    208c:	71 e0       	ldi	r23, 0x01	; 1
    208e:	c8 01       	movw	r24, r16
    2090:	0e 94 0e 26 	call	0x4c1c	; 0x4c1c <strcmp_P>
    2094:	89 2b       	or	r24, r25
    2096:	11 f4       	brne	.+4      	; 0x209c <voProcessData+0x16a>
							/* PRG */
							COMMAND.CMD=CMDI_PRG;
    2098:	da 82       	std	Y+2, r13	; 0x02
    209a:	a0 c0       	rjmp	.+320    	; 0x21dc <voProcessData+0x2aa>
						} else if(strcmp_P(cpreptr,PSTR("CHPRG"))==0){
    209c:	62 e5       	ldi	r22, 0x52	; 82
    209e:	71 e0       	ldi	r23, 0x01	; 1
    20a0:	c8 01       	movw	r24, r16
    20a2:	0e 94 0e 26 	call	0x4c1c	; 0x4c1c <strcmp_P>
    20a6:	89 2b       	or	r24, r25
    20a8:	11 f4       	brne	.+4      	; 0x20ae <voProcessData+0x17c>
							/* SET Prog to Change */
							COMMAND.CMD=CMDI_CHPRG;
    20aa:	2a 82       	std	Y+2, r2	; 0x02
    20ac:	97 c0       	rjmp	.+302    	; 0x21dc <voProcessData+0x2aa>
						} else if(strcmp_P(cpreptr,PSTR("CURPWR"))==0){
    20ae:	6b e4       	ldi	r22, 0x4B	; 75
    20b0:	71 e0       	ldi	r23, 0x01	; 1
    20b2:	c8 01       	movw	r24, r16
    20b4:	0e 94 0e 26 	call	0x4c1c	; 0x4c1c <strcmp_P>
    20b8:	89 2b       	or	r24, r25
    20ba:	11 f4       	brne	.+4      	; 0x20c0 <voProcessData+0x18e>
							/* Ausgabe Leistungsmessung */
							COMMAND.CMD=CMDI_MES_POWER;
    20bc:	3a 82       	std	Y+2, r3	; 0x02
    20be:	8e c0       	rjmp	.+284    	; 0x21dc <voProcessData+0x2aa>
						} else if(strcmp_P(cpreptr,PSTR("BOILERTMP"))==0){
    20c0:	61 e4       	ldi	r22, 0x41	; 65
    20c2:	71 e0       	ldi	r23, 0x01	; 1
    20c4:	c8 01       	movw	r24, r16
    20c6:	0e 94 0e 26 	call	0x4c1c	; 0x4c1c <strcmp_P>
    20ca:	89 2b       	or	r24, r25
    20cc:	11 f4       	brne	.+4      	; 0x20d2 <voProcessData+0x1a0>
							/* Ausgabe Boiler Temp */
							COMMAND.CMD=CMDI_BOILERTEMP;
    20ce:	8a 82       	std	Y+2, r8	; 0x02
    20d0:	85 c0       	rjmp	.+266    	; 0x21dc <voProcessData+0x2aa>
						} else if(strcmp_P(cpreptr,PSTR("LEVEL"))==0){
    20d2:	6b e3       	ldi	r22, 0x3B	; 59
    20d4:	71 e0       	ldi	r23, 0x01	; 1
    20d6:	c8 01       	movw	r24, r16
    20d8:	0e 94 0e 26 	call	0x4c1c	; 0x4c1c <strcmp_P>
    20dc:	89 2b       	or	r24, r25
    20de:	11 f4       	brne	.+4      	; 0x20e4 <voProcessData+0x1b2>
							/* CUP Level */
							COMMAND.CMD=CMDI_CUP_LEVEL;
    20e0:	9a 82       	std	Y+2, r9	; 0x02
    20e2:	7c c0       	rjmp	.+248    	; 0x21dc <voProcessData+0x2aa>
						} else if(strcmp_P(cpreptr,PSTR("AUTOOFF"))==0){
    20e4:	63 e3       	ldi	r22, 0x33	; 51
    20e6:	71 e0       	ldi	r23, 0x01	; 1
    20e8:	c8 01       	movw	r24, r16
    20ea:	0e 94 0e 26 	call	0x4c1c	; 0x4c1c <strcmp_P>
    20ee:	89 2b       	or	r24, r25
    20f0:	11 f4       	brne	.+4      	; 0x20f6 <voProcessData+0x1c4>
							COMMAND.CMD=CMDI_AUTOPOWER;
    20f2:	aa 82       	std	Y+2, r10	; 0x02
    20f4:	73 c0       	rjmp	.+230    	; 0x21dc <voProcessData+0x2aa>
						}else if(strcmp_P(cpreptr,PSTR("STBYTEMP"))==0){
    20f6:	6a e2       	ldi	r22, 0x2A	; 42
    20f8:	71 e0       	ldi	r23, 0x01	; 1
    20fa:	c8 01       	movw	r24, r16
    20fc:	0e 94 0e 26 	call	0x4c1c	; 0x4c1c <strcmp_P>
    2100:	89 2b       	or	r24, r25
    2102:	11 f4       	brne	.+4      	; 0x2108 <voProcessData+0x1d6>
							COMMAND.CMD=CMDI_STBY_TEMP;
    2104:	8b e0       	ldi	r24, 0x0B	; 11
    2106:	ad cf       	rjmp	.-166    	; 0x2062 <voProcessData+0x130>
						}else if(strcmp_P(cpreptr,PSTR("ECHO"))==0){
    2108:	65 e2       	ldi	r22, 0x25	; 37
    210a:	71 e0       	ldi	r23, 0x01	; 1
    210c:	c8 01       	movw	r24, r16
    210e:	0e 94 0e 26 	call	0x4c1c	; 0x4c1c <strcmp_P>
    2112:	89 2b       	or	r24, r25
    2114:	11 f4       	brne	.+4      	; 0x211a <voProcessData+0x1e8>
							COMMAND.CMD=CMDI_ECHO;
    2116:	8d e0       	ldi	r24, 0x0D	; 13
    2118:	a4 cf       	rjmp	.-184    	; 0x2062 <voProcessData+0x130>
						} else if (strcmp_P(cpreptr,PSTR("GPIO"))==0){
    211a:	60 e2       	ldi	r22, 0x20	; 32
    211c:	71 e0       	ldi	r23, 0x01	; 1
    211e:	c8 01       	movw	r24, r16
    2120:	0e 94 0e 26 	call	0x4c1c	; 0x4c1c <strcmp_P>
    2124:	89 2b       	or	r24, r25
    2126:	21 f4       	brne	.+8      	; 0x2130 <voProcessData+0x1fe>
							COMMAND.CMD=CMDI_GPIO;
    2128:	8e e0       	ldi	r24, 0x0E	; 14
    212a:	9b cf       	rjmp	.-202    	; 0x2062 <voProcessData+0x130>
						} else {
							/* We don't know the command and need to prepare an error */
							COMMAND.CMD=CMDI_NONE;							
						}
					
					} else if (COMMAND.DIR==CMDI_CMD){ /* Specal commands that need to be called with CMD in front */
    212c:	82 30       	cpi	r24, 0x02	; 2
    212e:	11 f0       	breq	.+4      	; 0x2134 <voProcessData+0x202>
							COMMAND.CMD=CMDI_ECHO;
						} else if (strcmp_P(cpreptr,PSTR("GPIO"))==0){
							COMMAND.CMD=CMDI_GPIO;
						} else {
							/* We don't know the command and need to prepare an error */
							COMMAND.CMD=CMDI_NONE;							
    2130:	ea 82       	std	Y+2, r14	; 0x02
    2132:	54 c0       	rjmp	.+168    	; 0x21dc <voProcessData+0x2aa>
						}
					
					} else if (COMMAND.DIR==CMDI_CMD){ /* Specal commands that need to be called with CMD in front */
						if(strcmp_P(cpreptr,PSTR("MAKE"))==0){
    2134:	6b e1       	ldi	r22, 0x1B	; 27
    2136:	71 e0       	ldi	r23, 0x01	; 1
    2138:	c8 01       	movw	r24, r16
    213a:	0e 94 0e 26 	call	0x4c1c	; 0x4c1c <strcmp_P>
    213e:	89 2b       	or	r24, r25
    2140:	11 f4       	brne	.+4      	; 0x2146 <voProcessData+0x214>
							/* TEMP */
							COMMAND.CMD=CMDI_MAKE;
    2142:	8f e0       	ldi	r24, 0x0F	; 15
    2144:	8e cf       	rjmp	.-228    	; 0x2062 <voProcessData+0x130>
							
							} else if(strcmp_P(cpreptr,PSTR("POWER"))==0){
    2146:	65 e1       	ldi	r22, 0x15	; 21
    2148:	71 e0       	ldi	r23, 0x01	; 1
    214a:	c8 01       	movw	r24, r16
    214c:	0e 94 0e 26 	call	0x4c1c	; 0x4c1c <strcmp_P>
    2150:	89 2b       	or	r24, r25
    2152:	71 f7       	brne	.-36     	; 0x2130 <voProcessData+0x1fe>
							/* PRWA */
							COMMAND.CMD=CMDI_POWER;
    2154:	80 e1       	ldi	r24, 0x10	; 16
    2156:	85 cf       	rjmp	.-246    	; 0x2062 <voProcessData+0x130>
						COMMAND.CMD=CMDI_NONE;
					}
				} break;
				/* This is the third Token that some commands do expect */
				case 2:{
					if( (COMMAND.DIR==CMDI_SET) || (COMMAND.DIR == CMDI_GET) ){
    2158:	89 81       	ldd	r24, Y+1	; 0x01
    215a:	82 30       	cpi	r24, 0x02	; 2
    215c:	78 f4       	brcc	.+30     	; 0x217c <voProcessData+0x24a>
						if(COMMAND.DIR!=CMDI_GET){
    215e:	81 30       	cpi	r24, 0x01	; 1
    2160:	49 f0       	breq	.+18     	; 0x2174 <voProcessData+0x242>
							if(StringToUint(cpreptr,&COMMAND.u32CmdValue)==false){
    2162:	be 01       	movw	r22, r28
    2164:	6d 5f       	subi	r22, 0xFD	; 253
    2166:	7f 4f       	sbci	r23, 0xFF	; 255
    2168:	c8 01       	movw	r24, r16
    216a:	62 de       	rcall	.-828    	; 0x1e30 <StringToUint>
    216c:	88 23       	and	r24, r24
    216e:	31 f0       	breq	.+12     	; 0x217c <voProcessData+0x24a>
								//All good here
								} else {
								COMMAND.CMD=CMDI_NONE; //Parser Error
    2170:	ea 82       	std	Y+2, r14	; 0x02
    2172:	04 c0       	rjmp	.+8      	; 0x217c <voProcessData+0x24a>
							}
						} else {
							if( (CMDI_GET==COMMAND.DIR) && ( CMDI_GPIO == COMMAND.CMD) ){
    2174:	8a 81       	ldd	r24, Y+2	; 0x02
    2176:	8e 30       	cpi	r24, 0x0E	; 14
    2178:	d9 f7       	brne	.-10     	; 0x2170 <voProcessData+0x23e>
    217a:	f3 cf       	rjmp	.-26     	; 0x2162 <voProcessData+0x230>
							}
							
						}
					} //End of IF SET ot GET
					
					if(COMMAND.DIR==CMDI_CMD){ //If we have a CMD we may need to parse the third token
    217c:	89 81       	ldd	r24, Y+1	; 0x01
    217e:	82 30       	cpi	r24, 0x02	; 2
    2180:	69 f5       	brne	.+90     	; 0x21dc <voProcessData+0x2aa>
						
						if(COMMAND.CMD==CMDI_MAKE){ //If we need to make coffe 
    2182:	8a 81       	ldd	r24, Y+2	; 0x02
    2184:	8f 30       	cpi	r24, 0x0F	; 15
    2186:	c9 f4       	brne	.+50     	; 0x21ba <voProcessData+0x288>
							if(strcmp_P(cpreptr,PSTR("ONECUP"))==0){ 
    2188:	6e e0       	ldi	r22, 0x0E	; 14
    218a:	71 e0       	ldi	r23, 0x01	; 1
    218c:	c8 01       	movw	r24, r16
    218e:	0e 94 0e 26 	call	0x4c1c	; 0x4c1c <strcmp_P>
    2192:	89 2b       	or	r24, r25
    2194:	29 f4       	brne	.+10     	; 0x21a0 <voProcessData+0x26e>
								COMMAND.u32CmdValue=0;
    2196:	1b 82       	std	Y+3, r1	; 0x03
    2198:	1c 82       	std	Y+4, r1	; 0x04
    219a:	1d 82       	std	Y+5, r1	; 0x05
    219c:	1e 82       	std	Y+6, r1	; 0x06
    219e:	1e c0       	rjmp	.+60     	; 0x21dc <voProcessData+0x2aa>
								
							} else if(strcmp_P(cpreptr,PSTR("TWOCUP"))==0){
    21a0:	67 e0       	ldi	r22, 0x07	; 7
    21a2:	71 e0       	ldi	r23, 0x01	; 1
    21a4:	c8 01       	movw	r24, r16
    21a6:	0e 94 0e 26 	call	0x4c1c	; 0x4c1c <strcmp_P>
    21aa:	89 2b       	or	r24, r25
    21ac:	09 f0       	breq	.+2      	; 0x21b0 <voProcessData+0x27e>
    21ae:	c0 cf       	rjmp	.-128    	; 0x2130 <voProcessData+0x1fe>
								COMMAND.u32CmdValue=1;
    21b0:	4b 82       	std	Y+3, r4	; 0x03
    21b2:	5c 82       	std	Y+4, r5	; 0x04
    21b4:	6d 82       	std	Y+5, r6	; 0x05
    21b6:	7e 82       	std	Y+6, r7	; 0x06
    21b8:	11 c0       	rjmp	.+34     	; 0x21dc <voProcessData+0x2aa>
								
							} else {
								COMMAND.CMD=CMDI_NONE;
							}
						} else if(COMMAND.CMD==CMDI_POWER){
    21ba:	80 31       	cpi	r24, 0x10	; 16
    21bc:	79 f4       	brne	.+30     	; 0x21dc <voProcessData+0x2aa>
							if(strcmp_P(cpreptr,PSTR("ON"))==0){
    21be:	64 e0       	ldi	r22, 0x04	; 4
    21c0:	71 e0       	ldi	r23, 0x01	; 1
    21c2:	c8 01       	movw	r24, r16
    21c4:	0e 94 0e 26 	call	0x4c1c	; 0x4c1c <strcmp_P>
    21c8:	89 2b       	or	r24, r25
    21ca:	91 f3       	breq	.-28     	; 0x21b0 <voProcessData+0x27e>
								COMMAND.u32CmdValue=1;		
							} else if(strcmp_P(cpreptr,PSTR("OFF"))==0){
    21cc:	60 e0       	ldi	r22, 0x00	; 0
    21ce:	71 e0       	ldi	r23, 0x01	; 1
    21d0:	c8 01       	movw	r24, r16
    21d2:	0e 94 0e 26 	call	0x4c1c	; 0x4c1c <strcmp_P>
    21d6:	89 2b       	or	r24, r25
    21d8:	f1 f2       	breq	.-68     	; 0x2196 <voProcessData+0x264>
    21da:	aa cf       	rjmp	.-172    	; 0x2130 <voProcessData+0x1fe>
					
				} break;
				
			}
			//We now increase the number of tokens we found
			u8TokenNo++;
    21dc:	f3 94       	inc	r15
    21de:	0b 2d       	mov	r16, r11
    21e0:	1c 2d       	mov	r17, r12
    21e2:	e0 ce       	rjmp	.-576    	; 0x1fa4 <voProcessData+0x72>
		/* we move it to the next token */
		cpreptr=cptr;
	}
	
	/* Now we need to process the input and what we found now */
	switch(COMMAND.CMD){
    21e4:	5a 81       	ldd	r21, Y+2	; 0x02
    21e6:	58 30       	cpi	r21, 0x08	; 8
    21e8:	41 f4       	brne	.+16     	; 0x21fa <voProcessData+0x2c8>
		case CMDI_MES_POWER:{
			voCMDI_MES_POWER(COMMAND);
		} break;
		
		case CMDI_BOILERTEMP:{
			voCMDI_BOILERTEMP(COMMAND);
    21ea:	49 81       	ldd	r20, Y+1	; 0x01
    21ec:	58 e0       	ldi	r21, 0x08	; 8
    21ee:	6b 81       	ldd	r22, Y+3	; 0x03
    21f0:	7c 81       	ldd	r23, Y+4	; 0x04
    21f2:	8d 81       	ldd	r24, Y+5	; 0x05
    21f4:	9e 81       	ldd	r25, Y+6	; 0x06
    21f6:	2a d1       	rcall	.+596    	; 0x244c <voCMDI_BOILERTEMP>
		} break;
    21f8:	0c c0       	rjmp	.+24     	; 0x2212 <voProcessData+0x2e0>
		/* we move it to the next token */
		cpreptr=cptr;
	}
	
	/* Now we need to process the input and what we found now */
	switch(COMMAND.CMD){
    21fa:	59 30       	cpi	r21, 0x09	; 9
    21fc:	20 f1       	brcs	.+72     	; 0x2246 <voProcessData+0x314>
    21fe:	5c 30       	cpi	r21, 0x0C	; 12
    2200:	09 f0       	breq	.+2      	; 0x2204 <voProcessData+0x2d2>
    2202:	69 c0       	rjmp	.+210    	; 0x22d6 <voProcessData+0x3a4>
		
		case CMDI_SYS_HELP:{
			voCMDI_SYS_HELP(COMMAND);
    2204:	49 81       	ldd	r20, Y+1	; 0x01
    2206:	5c e0       	ldi	r21, 0x0C	; 12
    2208:	6b 81       	ldd	r22, Y+3	; 0x03
    220a:	7c 81       	ldd	r23, Y+4	; 0x04
    220c:	8d 81       	ldd	r24, Y+5	; 0x05
    220e:	9e 81       	ldd	r25, Y+6	; 0x06
			/* This will be an internal error */
		} break;
	}
	
	
	voCleanBuffer();
    2210:	d8 d5       	rcall	.+2992   	; 0x2dc2 <voCMDI_SYS_HELP>
    2212:	c3 dd       	rcall	.-1146   	; 0x1d9a <voCleanBuffer>
	
}
    2214:	27 96       	adiw	r28, 0x07	; 7
    2216:	0f b6       	in	r0, 0x3f	; 63
    2218:	f8 94       	cli
    221a:	de bf       	out	0x3e, r29	; 62
    221c:	0f be       	out	0x3f, r0	; 63
    221e:	cd bf       	out	0x3d, r28	; 61
    2220:	df 91       	pop	r29
    2222:	cf 91       	pop	r28
    2224:	1f 91       	pop	r17
    2226:	0f 91       	pop	r16
    2228:	ff 90       	pop	r15
    222a:	ef 90       	pop	r14
    222c:	df 90       	pop	r13
    222e:	cf 90       	pop	r12
    2230:	bf 90       	pop	r11
    2232:	af 90       	pop	r10
    2234:	9f 90       	pop	r9
    2236:	8f 90       	pop	r8
    2238:	7f 90       	pop	r7
    223a:	6f 90       	pop	r6
    223c:	5f 90       	pop	r5
    223e:	4f 90       	pop	r4
    2240:	3f 90       	pop	r3
    2242:	2f 90       	pop	r2
    2244:	08 95       	ret
		/* we move it to the next token */
		cpreptr=cptr;
	}
	
	/* Now we need to process the input and what we found now */
	switch(COMMAND.CMD){
    2246:	53 30       	cpi	r21, 0x03	; 3
    2248:	41 f4       	brne	.+16     	; 0x225a <voProcessData+0x328>
		case CMDI_WATER:{
			voCMDI_WATRER(COMMAND);
		} break;
		
		case CMDI_WAIT:{
			voCMDI_WAIT(COMMAND);
    224a:	49 81       	ldd	r20, Y+1	; 0x01
    224c:	53 e0       	ldi	r21, 0x03	; 3
    224e:	6b 81       	ldd	r22, Y+3	; 0x03
    2250:	7c 81       	ldd	r23, Y+4	; 0x04
    2252:	8d 81       	ldd	r24, Y+5	; 0x05
    2254:	9e 81       	ldd	r25, Y+6	; 0x06
    2256:	94 d6       	rcall	.+3368   	; 0x2f80 <voCMDI_WAIT>
		} break;
    2258:	dc cf       	rjmp	.-72     	; 0x2212 <voProcessData+0x2e0>
		/* we move it to the next token */
		cpreptr=cptr;
	}
	
	/* Now we need to process the input and what we found now */
	switch(COMMAND.CMD){
    225a:	54 30       	cpi	r21, 0x04	; 4
    225c:	d0 f4       	brcc	.+52     	; 0x2292 <voProcessData+0x360>
    225e:	51 30       	cpi	r21, 0x01	; 1
    2260:	41 f4       	brne	.+16     	; 0x2272 <voProcessData+0x340>
		case CMDI_TEMP:{
			voCMDI_TEMP(COMMAND);
		} break;
		
		case CMDI_PREWATER:{
			voCMDI_PREWATER(COMMAND);
    2262:	49 81       	ldd	r20, Y+1	; 0x01
    2264:	51 e0       	ldi	r21, 0x01	; 1
    2266:	6b 81       	ldd	r22, Y+3	; 0x03
    2268:	7c 81       	ldd	r23, Y+4	; 0x04
    226a:	8d 81       	ldd	r24, Y+5	; 0x05
    226c:	9e 81       	ldd	r25, Y+6	; 0x06
    226e:	6b d4       	rcall	.+2262   	; 0x2b46 <voCMDI_PREWATER>
		} break;
    2270:	d0 cf       	rjmp	.-96     	; 0x2212 <voProcessData+0x2e0>
		/* we move it to the next token */
		cpreptr=cptr;
	}
	
	/* Now we need to process the input and what we found now */
	switch(COMMAND.CMD){
    2272:	52 30       	cpi	r21, 0x02	; 2
		case CMDI_SYS_HELP:{
			voCMDI_SYS_HELP(COMMAND);
		} break;
		
		case CMDI_TEMP:{
			voCMDI_TEMP(COMMAND);
    2274:	38 f4       	brcc	.+14     	; 0x2284 <voProcessData+0x352>
    2276:	49 81       	ldd	r20, Y+1	; 0x01
    2278:	6b 81       	ldd	r22, Y+3	; 0x03
    227a:	7c 81       	ldd	r23, Y+4	; 0x04
    227c:	8d 81       	ldd	r24, Y+5	; 0x05
    227e:	9e 81       	ldd	r25, Y+6	; 0x06
		} break;
    2280:	11 d6       	rcall	.+3106   	; 0x2ea4 <voCMDI_TEMP>
		case CMDI_PREWATER:{
			voCMDI_PREWATER(COMMAND);
		} break;
		
		case CMDI_WATER:{
			voCMDI_WATRER(COMMAND);
    2282:	c7 cf       	rjmp	.-114    	; 0x2212 <voProcessData+0x2e0>
    2284:	49 81       	ldd	r20, Y+1	; 0x01
    2286:	6b 81       	ldd	r22, Y+3	; 0x03
    2288:	7c 81       	ldd	r23, Y+4	; 0x04
    228a:	8d 81       	ldd	r24, Y+5	; 0x05
    228c:	9e 81       	ldd	r25, Y+6	; 0x06
    228e:	e6 d6       	rcall	.+3532   	; 0x305c <voCMDI_WATRER>
		/* we move it to the next token */
		cpreptr=cptr;
	}
	
	/* Now we need to process the input and what we found now */
	switch(COMMAND.CMD){
    2290:	c0 cf       	rjmp	.-128    	; 0x2212 <voProcessData+0x2e0>
    2292:	55 30       	cpi	r21, 0x05	; 5
		case CMDI_PRG:{
			voCMDI_PRG(COMMAND);
		}break;
		
		case CMDI_CHPRG:{
			voCMDI_CHPRG(COMMAND);
    2294:	41 f4       	brne	.+16     	; 0x22a6 <voProcessData+0x374>
    2296:	49 81       	ldd	r20, Y+1	; 0x01
    2298:	55 e0       	ldi	r21, 0x05	; 5
    229a:	6b 81       	ldd	r22, Y+3	; 0x03
    229c:	7c 81       	ldd	r23, Y+4	; 0x04
    229e:	8d 81       	ldd	r24, Y+5	; 0x05
    22a0:	9e 81       	ldd	r25, Y+6	; 0x06
		}break;
    22a2:	24 d1       	rcall	.+584    	; 0x24ec <voCMDI_CHPRG>
		/* we move it to the next token */
		cpreptr=cptr;
	}
	
	/* Now we need to process the input and what we found now */
	switch(COMMAND.CMD){
    22a4:	b6 cf       	rjmp	.-148    	; 0x2212 <voProcessData+0x2e0>
		case CMDI_WAIT:{
			voCMDI_WAIT(COMMAND);
		} break;
		
		case CMDI_PRG:{
			voCMDI_PRG(COMMAND);
    22a6:	55 30       	cpi	r21, 0x05	; 5
    22a8:	38 f4       	brcc	.+14     	; 0x22b8 <voProcessData+0x386>
    22aa:	49 81       	ldd	r20, Y+1	; 0x01
    22ac:	6b 81       	ldd	r22, Y+3	; 0x03
    22ae:	7c 81       	ldd	r23, Y+4	; 0x04
    22b0:	8d 81       	ldd	r24, Y+5	; 0x05
    22b2:	9e 81       	ldd	r25, Y+6	; 0x06
		}break;
    22b4:	ba d4       	rcall	.+2420   	; 0x2c2a <voCMDI_PRG>
		/* we move it to the next token */
		cpreptr=cptr;
	}
	
	/* Now we need to process the input and what we found now */
	switch(COMMAND.CMD){
    22b6:	ad cf       	rjmp	.-166    	; 0x2212 <voProcessData+0x2e0>
    22b8:	56 30       	cpi	r21, 0x06	; 6
		case CMDI_ECHO:{
			voCMDI_ECHO(COMMAND);
		} break;
			
		case CMDI_NONE:{
			voResponseParserErr();
    22ba:	11 f4       	brne	.+4      	; 0x22c0 <voProcessData+0x38e>
		} break;
    22bc:	54 d7       	rcall	.+3752   	; 0x3166 <voResponseParserErr>
		/* we move it to the next token */
		cpreptr=cptr;
	}
	
	/* Now we need to process the input and what we found now */
	switch(COMMAND.CMD){
    22be:	a9 cf       	rjmp	.-174    	; 0x2212 <voProcessData+0x2e0>
    22c0:	57 30       	cpi	r21, 0x07	; 7
    22c2:	09 f0       	breq	.+2      	; 0x22c6 <voProcessData+0x394>
		case CMDI_CHPRG:{
			voCMDI_CHPRG(COMMAND);
		}break;
		
		case CMDI_MES_POWER:{
			voCMDI_MES_POWER(COMMAND);
    22c4:	a6 cf       	rjmp	.-180    	; 0x2212 <voProcessData+0x2e0>
    22c6:	49 81       	ldd	r20, Y+1	; 0x01
    22c8:	57 e0       	ldi	r21, 0x07	; 7
    22ca:	6b 81       	ldd	r22, Y+3	; 0x03
    22cc:	7c 81       	ldd	r23, Y+4	; 0x04
    22ce:	8d 81       	ldd	r24, Y+5	; 0x05
    22d0:	9e 81       	ldd	r25, Y+6	; 0x06
		} break;
    22d2:	96 d3       	rcall	.+1836   	; 0x2a00 <voCMDI_MES_POWER>
		/* we move it to the next token */
		cpreptr=cptr;
	}
	
	/* Now we need to process the input and what we found now */
	switch(COMMAND.CMD){
    22d4:	9e cf       	rjmp	.-196    	; 0x2212 <voProcessData+0x2e0>
    22d6:	5d 30       	cpi	r21, 0x0D	; 13
    22d8:	d0 f4       	brcc	.+52     	; 0x230e <voProcessData+0x3dc>
    22da:	5a 30       	cpi	r21, 0x0A	; 10
		case CMDI_CUP_LEVEL:{
			voCMDI_CUP_LEVEL(COMMAND);
		} break;
		
		case CMDI_AUTOPOWER:{
			voCMDI_AUTOPOWER(COMMAND);
    22dc:	41 f4       	brne	.+16     	; 0x22ee <voProcessData+0x3bc>
    22de:	49 81       	ldd	r20, Y+1	; 0x01
    22e0:	5a e0       	ldi	r21, 0x0A	; 10
    22e2:	6b 81       	ldd	r22, Y+3	; 0x03
    22e4:	7c 81       	ldd	r23, Y+4	; 0x04
    22e6:	8d 81       	ldd	r24, Y+5	; 0x05
    22e8:	9e 81       	ldd	r25, Y+6	; 0x06
		} break;
    22ea:	4f d0       	rcall	.+158    	; 0x238a <voCMDI_AUTOPOWER>
		/* we move it to the next token */
		cpreptr=cptr;
	}
	
	/* Now we need to process the input and what we found now */
	switch(COMMAND.CMD){
    22ec:	92 cf       	rjmp	.-220    	; 0x2212 <voProcessData+0x2e0>
		case CMDI_BOILERTEMP:{
			voCMDI_BOILERTEMP(COMMAND);
		} break;
		
		case CMDI_CUP_LEVEL:{
			voCMDI_CUP_LEVEL(COMMAND);
    22ee:	5b 30       	cpi	r21, 0x0B	; 11
    22f0:	38 f4       	brcc	.+14     	; 0x2300 <voProcessData+0x3ce>
    22f2:	49 81       	ldd	r20, Y+1	; 0x01
    22f4:	6b 81       	ldd	r22, Y+3	; 0x03
    22f6:	7c 81       	ldd	r23, Y+4	; 0x04
    22f8:	8d 81       	ldd	r24, Y+5	; 0x05
    22fa:	9e 81       	ldd	r25, Y+6	; 0x06
		} break;
    22fc:	67 d1       	rcall	.+718    	; 0x25cc <voCMDI_CUP_LEVEL>
		case CMDI_AUTOPOWER:{
			voCMDI_AUTOPOWER(COMMAND);
		} break;
		
		case CMDI_STBY_TEMP:{
			voCMDI_STBY_TEMP(COMMAND);
    22fe:	89 cf       	rjmp	.-238    	; 0x2212 <voProcessData+0x2e0>
    2300:	49 81       	ldd	r20, Y+1	; 0x01
    2302:	6b 81       	ldd	r22, Y+3	; 0x03
    2304:	7c 81       	ldd	r23, Y+4	; 0x04
    2306:	8d 81       	ldd	r24, Y+5	; 0x05
    2308:	9e 81       	ldd	r25, Y+6	; 0x06
				
		} break;
    230a:	fa d4       	rcall	.+2548   	; 0x2d00 <voCMDI_STBY_TEMP>
		/* we move it to the next token */
		cpreptr=cptr;
	}
	
	/* Now we need to process the input and what we found now */
	switch(COMMAND.CMD){
    230c:	82 cf       	rjmp	.-252    	; 0x2212 <voProcessData+0x2e0>
		case CMDI_POWER:{
			voCMDI_POWER(COMMAND);
		} break;
		
		case CMDI_GPIO:{
			voCMDI_GPIO(COMMAND);
    230e:	5e 30       	cpi	r21, 0x0E	; 14
    2310:	41 f4       	brne	.+16     	; 0x2322 <voProcessData+0x3f0>
    2312:	49 81       	ldd	r20, Y+1	; 0x01
    2314:	5e e0       	ldi	r21, 0x0E	; 14
    2316:	6b 81       	ldd	r22, Y+3	; 0x03
    2318:	7c 81       	ldd	r23, Y+4	; 0x04
    231a:	8d 81       	ldd	r24, Y+5	; 0x05
    231c:	9e 81       	ldd	r25, Y+6	; 0x06
		} break;//End of case
    231e:	24 d2       	rcall	.+1096   	; 0x2768 <voCMDI_GPIO>
		/* we move it to the next token */
		cpreptr=cptr;
	}
	
	/* Now we need to process the input and what we found now */
	switch(COMMAND.CMD){
    2320:	78 cf       	rjmp	.-272    	; 0x2212 <voProcessData+0x2e0>
			voCMDI_STBY_TEMP(COMMAND);
				
		} break;
			
		case CMDI_ECHO:{
			voCMDI_ECHO(COMMAND);
    2322:	5e 30       	cpi	r21, 0x0E	; 14
    2324:	38 f4       	brcc	.+14     	; 0x2334 <voProcessData+0x402>
    2326:	49 81       	ldd	r20, Y+1	; 0x01
    2328:	6b 81       	ldd	r22, Y+3	; 0x03
    232a:	7c 81       	ldd	r23, Y+4	; 0x04
    232c:	8d 81       	ldd	r24, Y+5	; 0x05
    232e:	9e 81       	ldd	r25, Y+6	; 0x06
		} break;
    2330:	ae d1       	rcall	.+860    	; 0x268e <voCMDI_ECHO>
		/* we move it to the next token */
		cpreptr=cptr;
	}
	
	/* Now we need to process the input and what we found now */
	switch(COMMAND.CMD){
    2332:	6f cf       	rjmp	.-290    	; 0x2212 <voProcessData+0x2e0>
		} break;//End of case
		
		

		case CMDI_MAKE:{
			voCMDI_MAKE(COMMAND);
    2334:	5f 30       	cpi	r21, 0x0F	; 15
    2336:	41 f4       	brne	.+16     	; 0x2348 <voProcessData+0x416>
    2338:	49 81       	ldd	r20, Y+1	; 0x01
    233a:	5f e0       	ldi	r21, 0x0F	; 15
    233c:	6b 81       	ldd	r22, Y+3	; 0x03
    233e:	7c 81       	ldd	r23, Y+4	; 0x04
    2340:	8d 81       	ldd	r24, Y+5	; 0x05
    2342:	9e 81       	ldd	r25, Y+6	; 0x06
		} break;
    2344:	f2 d2       	rcall	.+1508   	; 0x292a <voCMDI_MAKE>
		/* we move it to the next token */
		cpreptr=cptr;
	}
	
	/* Now we need to process the input and what we found now */
	switch(COMMAND.CMD){
    2346:	65 cf       	rjmp	.-310    	; 0x2212 <voProcessData+0x2e0>
    2348:	50 31       	cpi	r21, 0x10	; 16
    234a:	09 f0       	breq	.+2      	; 0x234e <voProcessData+0x41c>
		case CMDI_NONE:{
			voResponseParserErr();
		} break;
			
		case CMDI_POWER:{
			voCMDI_POWER(COMMAND);
    234c:	62 cf       	rjmp	.-316    	; 0x2212 <voProcessData+0x2e0>
    234e:	49 81       	ldd	r20, Y+1	; 0x01
    2350:	50 e1       	ldi	r21, 0x10	; 16
    2352:	6b 81       	ldd	r22, Y+3	; 0x03
    2354:	7c 81       	ldd	r23, Y+4	; 0x04
    2356:	8d 81       	ldd	r24, Y+5	; 0x05
    2358:	9e 81       	ldd	r25, Y+6	; 0x06
    235a:	a4 d3       	rcall	.+1864   	; 0x2aa4 <voCMDI_POWER>
		} break;
    235c:	5a cf       	rjmp	.-332    	; 0x2212 <voProcessData+0x2e0>

0000235e <CMDI_voTask>:
}


void CMDI_voTask(){
	/* This will check if we have a return in out buffer at the end */
	chInputBuffer[INPUTBUFFERSIZE]='\0';
    235e:	10 92 59 03 	sts	0x0359, r1	; 0x800359 <chInputBuffer+0x40>
	if(u8InputBufferWriteIdx>0){
    2362:	80 91 5a 03 	lds	r24, 0x035A	; 0x80035a <u8InputBufferWriteIdx>
    2366:	88 23       	and	r24, r24
    2368:	79 f0       	breq	.+30     	; 0x2388 <CMDI_voTask+0x2a>
		if(chInputBuffer[u8InputBufferWriteIdx-1]==LINE_END){
    236a:	e0 91 5a 03 	lds	r30, 0x035A	; 0x80035a <u8InputBufferWriteIdx>
    236e:	f0 e0       	ldi	r31, 0x00	; 0
    2370:	e8 5e       	subi	r30, 0xE8	; 232
    2372:	fc 4f       	sbci	r31, 0xFC	; 252
    2374:	80 81       	ld	r24, Z
    2376:	8d 30       	cpi	r24, 0x0D	; 13
    2378:	39 f4       	brne	.+14     	; 0x2388 <CMDI_voTask+0x2a>
			chInputBuffer[u8InputBufferWriteIdx-1]='\0';
    237a:	e0 91 5a 03 	lds	r30, 0x035A	; 0x80035a <u8InputBufferWriteIdx>
    237e:	f0 e0       	ldi	r31, 0x00	; 0
    2380:	e8 5e       	subi	r30, 0xE8	; 232
    2382:	fc 4f       	sbci	r31, 0xFC	; 252
    2384:	10 82       	st	Z, r1
			/* we need to process the data */
			/* we need to remove any \r in front of the data : TBD */
			voProcessData();
    2386:	d5 cd       	rjmp	.-1110   	; 0x1f32 <voProcessData>
    2388:	08 95       	ret

0000238a <voCMDI_AUTOPOWER>:
#include "../../services/usb_cdc_helper/usb_cdc_helper.h"
#include "PARSE_RESPONSE.h"
#include "CMDI_AUTOPOWER.h"


void voCMDI_AUTOPOWER(CMDI_CMD_DATA_t COMMAND){
    238a:	0f 93       	push	r16
    238c:	1f 93       	push	r17
    238e:	cf 93       	push	r28
    2390:	df 93       	push	r29
    2392:	00 d0       	rcall	.+0      	; 0x2394 <voCMDI_AUTOPOWER+0xa>
    2394:	00 d0       	rcall	.+0      	; 0x2396 <voCMDI_AUTOPOWER+0xc>
    2396:	00 d0       	rcall	.+0      	; 0x2398 <voCMDI_AUTOPOWER+0xe>
    2398:	cd b7       	in	r28, 0x3d	; 61
    239a:	de b7       	in	r29, 0x3e	; 62
    239c:	6b 83       	std	Y+3, r22	; 0x03
	if(COMMAND.DIR==CMDI_GET){
    239e:	41 30       	cpi	r20, 0x01	; 1
    23a0:	d9 f4       	brne	.+54     	; 0x23d8 <voCMDI_AUTOPOWER+0x4e>
		if(boGetConnected()==true){
    23a2:	0e 94 34 1e 	call	0x3c68	; 0x3c68 <boGetConnected>
    23a6:	88 23       	and	r24, r24
    23a8:	09 f4       	brne	.+2      	; 0x23ac <voCMDI_AUTOPOWER+0x22>
    23aa:	45 c0       	rjmp	.+138    	; 0x2436 <voCMDI_AUTOPOWER+0xac>
			FILE* USBSTREAM = (FILE*)GetUSBStream();
    23ac:	0e 94 3a 1e 	call	0x3c74	; 0x3c74 <GetUSBStream>
    23b0:	18 2f       	mov	r17, r24
    23b2:	09 2f       	mov	r16, r25
			

			fprintf(USBSTREAM,"OK:%i\n\r", u8GetAutoPowerOff());
    23b4:	d2 d9       	rcall	.-3164   	; 0x175a <u8GetAutoPowerOff>
    23b6:	1f 92       	push	r1
    23b8:	8f 93       	push	r24
    23ba:	82 e4       	ldi	r24, 0x42	; 66
    23bc:	91 e0       	ldi	r25, 0x01	; 1
    23be:	9f 93       	push	r25
    23c0:	8f 93       	push	r24
    23c2:	0f 93       	push	r16
    23c4:	1f 93       	push	r17
    23c6:	0e 94 17 26 	call	0x4c2e	; 0x4c2e <fprintf>
    23ca:	0f 90       	pop	r0
    23cc:	0f 90       	pop	r0
    23ce:	0f 90       	pop	r0
    23d0:	0f 90       	pop	r0
    23d2:	0f 90       	pop	r0
    23d4:	0f 90       	pop	r0
    23d6:	2f c0       	rjmp	.+94     	; 0x2436 <voCMDI_AUTOPOWER+0xac>
		}
		
		} else if(COMMAND.DIR==CMDI_SET) {
    23d8:	41 11       	cpse	r20, r1
    23da:	0d c0       	rjmp	.+26     	; 0x23f6 <voCMDI_AUTOPOWER+0x6c>
		voSetAutoPowerOff((uint8_t)COMMAND.u32CmdValue);
    23dc:	8b 81       	ldd	r24, Y+3	; 0x03
    23de:	b4 d9       	rcall	.-3224   	; 0x1748 <voSetAutoPowerOff>
		}
		} else {
		voResponseParserErr();
	}
	return;
    23e0:	26 96       	adiw	r28, 0x06	; 6
    23e2:	0f b6       	in	r0, 0x3f	; 63
    23e4:	f8 94       	cli
    23e6:	de bf       	out	0x3e, r29	; 62
    23e8:	0f be       	out	0x3f, r0	; 63
    23ea:	cd bf       	out	0x3d, r28	; 61
    23ec:	df 91       	pop	r29
    23ee:	cf 91       	pop	r28
    23f0:	1f 91       	pop	r17
			fprintf(USBSTREAM,"OK:%i\n\r", u8GetAutoPowerOff());
		}
		
		} else if(COMMAND.DIR==CMDI_SET) {
		voSetAutoPowerOff((uint8_t)COMMAND.u32CmdValue);
		voResponseOk();
    23f2:	0f 91       	pop	r16
    23f4:	c9 c6       	rjmp	.+3474   	; 0x3188 <voResponseOk>
		
		} else if(COMMAND.DIR == CMDI_HELP){
    23f6:	43 30       	cpi	r20, 0x03	; 3
    23f8:	99 f4       	brne	.+38     	; 0x2420 <voCMDI_AUTOPOWER+0x96>
		/* Print Help Text here */
		if(boGetConnected()==true){
    23fa:	0e 94 34 1e 	call	0x3c68	; 0x3c68 <boGetConnected>
    23fe:	88 23       	and	r24, r24
    2400:	d1 f0       	breq	.+52     	; 0x2436 <voCMDI_AUTOPOWER+0xac>
			FILE* USBSTREAM = (FILE*)GetUSBStream();
    2402:	0e 94 3a 1e 	call	0x3c74	; 0x3c74 <GetUSBStream>
			fprintf_P(USBSTREAM,PSTR("USAGE: 'SET AUTOOFF ON', 'SET AUTOOFF OFF' or 'SET AUTOOFF OFF' \n\r"));
    2406:	2a e8       	ldi	r18, 0x8A	; 138
    2408:	31 e0       	ldi	r19, 0x01	; 1
    240a:	3f 93       	push	r19
    240c:	2f 93       	push	r18
    240e:	9f 93       	push	r25
    2410:	8f 93       	push	r24
    2412:	0e 94 26 26 	call	0x4c4c	; 0x4c4c <fprintf_P>
    2416:	0f 90       	pop	r0
    2418:	0f 90       	pop	r0
    241a:	0f 90       	pop	r0
    241c:	0f 90       	pop	r0
    241e:	0b c0       	rjmp	.+22     	; 0x2436 <voCMDI_AUTOPOWER+0xac>
		}
		} else {
		voResponseParserErr();
	}
	return;
    2420:	26 96       	adiw	r28, 0x06	; 6
    2422:	0f b6       	in	r0, 0x3f	; 63
    2424:	f8 94       	cli
    2426:	de bf       	out	0x3e, r29	; 62
    2428:	0f be       	out	0x3f, r0	; 63
    242a:	cd bf       	out	0x3d, r28	; 61
    242c:	df 91       	pop	r29
    242e:	cf 91       	pop	r28
    2430:	1f 91       	pop	r17
		if(boGetConnected()==true){
			FILE* USBSTREAM = (FILE*)GetUSBStream();
			fprintf_P(USBSTREAM,PSTR("USAGE: 'SET AUTOOFF ON', 'SET AUTOOFF OFF' or 'SET AUTOOFF OFF' \n\r"));
		}
		} else {
		voResponseParserErr();
    2432:	0f 91       	pop	r16
    2434:	98 c6       	rjmp	.+3376   	; 0x3166 <voResponseParserErr>
	}
	return;
    2436:	26 96       	adiw	r28, 0x06	; 6
    2438:	0f b6       	in	r0, 0x3f	; 63
    243a:	f8 94       	cli
    243c:	de bf       	out	0x3e, r29	; 62
    243e:	0f be       	out	0x3f, r0	; 63
    2440:	cd bf       	out	0x3d, r28	; 61
    2442:	df 91       	pop	r29
    2444:	cf 91       	pop	r28
    2446:	1f 91       	pop	r17
    2448:	0f 91       	pop	r16
    244a:	08 95       	ret

0000244c <voCMDI_BOILERTEMP>:
#include "../../services/usb_cdc_helper/usb_cdc_helper.h"
#include "../../services/boilertempcontroller/boilertempcontroller.h"
#include "PARSE_RESPONSE.h"
#include "CMDI_BOILERTEMP.h"

void voCMDI_BOILERTEMP(CMDI_CMD_DATA_t COMMAND){
    244c:	0f 93       	push	r16
    244e:	1f 93       	push	r17
    2450:	cf 93       	push	r28
    2452:	df 93       	push	r29
    2454:	00 d0       	rcall	.+0      	; 0x2456 <voCMDI_BOILERTEMP+0xa>
    2456:	00 d0       	rcall	.+0      	; 0x2458 <voCMDI_BOILERTEMP+0xc>
    2458:	00 d0       	rcall	.+0      	; 0x245a <voCMDI_BOILERTEMP+0xe>
    245a:	cd b7       	in	r28, 0x3d	; 61
    245c:	de b7       	in	r29, 0x3e	; 62
	
	if(COMMAND.DIR==CMDI_GET){
    245e:	41 30       	cpi	r20, 0x01	; 1
    2460:	d9 f4       	brne	.+54     	; 0x2498 <voCMDI_BOILERTEMP+0x4c>
		if(boGetConnected()==true){
    2462:	0e 94 34 1e 	call	0x3c68	; 0x3c68 <boGetConnected>
    2466:	88 23       	and	r24, r24
    2468:	b1 f1       	breq	.+108    	; 0x24d6 <voCMDI_BOILERTEMP+0x8a>
			FILE* USBSTREAM = (FILE*)GetUSBStream();
    246a:	0e 94 3a 1e 	call	0x3c74	; 0x3c74 <GetUSBStream>
    246e:	18 2f       	mov	r17, r24
    2470:	09 2f       	mov	r16, r25
			fprintf_P(USBSTREAM,PSTR("OK:%i\n\r"), s16BTC_GetCurrentBoilerTemp());
    2472:	0e 94 22 0a 	call	0x1444	; 0x1444 <s16BTC_GetCurrentBoilerTemp>
    2476:	9f 93       	push	r25
    2478:	8f 93       	push	r24
    247a:	89 e1       	ldi	r24, 0x19	; 25
    247c:	92 e0       	ldi	r25, 0x02	; 2
    247e:	9f 93       	push	r25
    2480:	8f 93       	push	r24
    2482:	0f 93       	push	r16
    2484:	1f 93       	push	r17
    2486:	0e 94 26 26 	call	0x4c4c	; 0x4c4c <fprintf_P>
    248a:	0f 90       	pop	r0
    248c:	0f 90       	pop	r0
    248e:	0f 90       	pop	r0
    2490:	0f 90       	pop	r0
    2492:	0f 90       	pop	r0
    2494:	0f 90       	pop	r0
    2496:	1f c0       	rjmp	.+62     	; 0x24d6 <voCMDI_BOILERTEMP+0x8a>
		}
		
	} else if(COMMAND.DIR==CMDI_SET) {
    2498:	43 30       	cpi	r20, 0x03	; 3
    249a:	59 f0       	breq	.+22     	; 0x24b2 <voCMDI_BOILERTEMP+0x66>
		}
	} else {
		voResponseParserErr();
	}
	return;
    249c:	26 96       	adiw	r28, 0x06	; 6
    249e:	0f b6       	in	r0, 0x3f	; 63
    24a0:	f8 94       	cli
    24a2:	de bf       	out	0x3e, r29	; 62
    24a4:	0f be       	out	0x3f, r0	; 63
    24a6:	cd bf       	out	0x3d, r28	; 61
    24a8:	df 91       	pop	r29
    24aa:	cf 91       	pop	r28
    24ac:	1f 91       	pop	r17
    24ae:	0f 91       	pop	r16
			FILE* USBSTREAM = (FILE*)GetUSBStream();
			fprintf_P(USBSTREAM,PSTR("OK:%i\n\r"), s16BTC_GetCurrentBoilerTemp());
		}
		
	} else if(COMMAND.DIR==CMDI_SET) {
		voResponseParserErr();
    24b0:	5a c6       	rjmp	.+3252   	; 0x3166 <voResponseParserErr>
	} else if(COMMAND.DIR == CMDI_HELP){
		/* Print Help Text here */
		if(boGetConnected()==true){
    24b2:	0e 94 34 1e 	call	0x3c68	; 0x3c68 <boGetConnected>
    24b6:	88 23       	and	r24, r24
    24b8:	71 f0       	breq	.+28     	; 0x24d6 <voCMDI_BOILERTEMP+0x8a>
			FILE* USBSTREAM = (FILE*)GetUSBStream();
    24ba:	0e 94 3a 1e 	call	0x3c74	; 0x3c74 <GetUSBStream>
			fprintf_P(USBSTREAM,PSTR("USAGE: 'GET BOILERTMP' to read the current boiler temp in 1/100 degree C.\n\r"));
    24be:	2d ec       	ldi	r18, 0xCD	; 205
    24c0:	31 e0       	ldi	r19, 0x01	; 1
    24c2:	3f 93       	push	r19
    24c4:	2f 93       	push	r18
    24c6:	9f 93       	push	r25
    24c8:	8f 93       	push	r24
    24ca:	0e 94 26 26 	call	0x4c4c	; 0x4c4c <fprintf_P>
    24ce:	0f 90       	pop	r0
    24d0:	0f 90       	pop	r0
    24d2:	0f 90       	pop	r0
    24d4:	0f 90       	pop	r0
		}
	} else {
		voResponseParserErr();
	}
	return;
    24d6:	26 96       	adiw	r28, 0x06	; 6
    24d8:	0f b6       	in	r0, 0x3f	; 63
    24da:	f8 94       	cli
    24dc:	de bf       	out	0x3e, r29	; 62
    24de:	0f be       	out	0x3f, r0	; 63
    24e0:	cd bf       	out	0x3d, r28	; 61
    24e2:	df 91       	pop	r29
    24e4:	cf 91       	pop	r28
    24e6:	1f 91       	pop	r17
    24e8:	0f 91       	pop	r16
    24ea:	08 95       	ret

000024ec <voCMDI_CHPRG>:
#include "../../eepromFileSystem/eepromFileSystem.h"
#include "../../services/usb_cdc_helper/usb_cdc_helper.h"
#include "COMMON_VALUE_STORE.h"
#include "PARSE_RESPONSE.h"
#include "CMDI_CHPRG.h"
void voCMDI_CHPRG(CMDI_CMD_DATA_t COMMAND){
    24ec:	1f 93       	push	r17
    24ee:	cf 93       	push	r28
    24f0:	df 93       	push	r29
    24f2:	00 d0       	rcall	.+0      	; 0x24f4 <voCMDI_CHPRG+0x8>
    24f4:	00 d0       	rcall	.+0      	; 0x24f6 <voCMDI_CHPRG+0xa>
    24f6:	00 d0       	rcall	.+0      	; 0x24f8 <voCMDI_CHPRG+0xc>
    24f8:	cd b7       	in	r28, 0x3d	; 61
    24fa:	de b7       	in	r29, 0x3e	; 62
    24fc:	6b 83       	std	Y+3, r22	; 0x03
    24fe:	7c 83       	std	Y+4, r23	; 0x04
    2500:	8d 83       	std	Y+5, r24	; 0x05
    2502:	9e 83       	std	Y+6, r25	; 0x06
	/* Set the PRG to Change */
	if(COMMAND.DIR==CMDI_SET){
    2504:	41 11       	cpse	r20, r1
    2506:	1e c0       	rjmp	.+60     	; 0x2544 <voCMDI_CHPRG+0x58>
    2508:	8b 81       	ldd	r24, Y+3	; 0x03
    250a:	9c 81       	ldd	r25, Y+4	; 0x04
    250c:	ad 81       	ldd	r26, Y+5	; 0x05
    250e:	be 81       	ldd	r27, Y+6	; 0x06
		if(COMMAND.u32CmdValue<8){
    2510:	88 30       	cpi	r24, 0x08	; 8
    2512:	91 05       	cpc	r25, r1
    2514:	a1 05       	cpc	r26, r1
    2516:	b1 05       	cpc	r27, r1
    2518:	58 f4       	brcc	.+22     	; 0x2530 <voCMDI_CHPRG+0x44>
			uint8_t u8ProgToChange=COMMAND.u32CmdValue;
			voSetProgToChange(u8ProgToChange);
    251a:	11 d6       	rcall	.+3106   	; 0x313e <voSetProgToChange>
		}
	} else {
		voResponseParserErr();
	}
	return;
    251c:	26 96       	adiw	r28, 0x06	; 6
    251e:	0f b6       	in	r0, 0x3f	; 63
    2520:	f8 94       	cli
    2522:	de bf       	out	0x3e, r29	; 62
    2524:	0f be       	out	0x3f, r0	; 63
    2526:	cd bf       	out	0x3d, r28	; 61
    2528:	df 91       	pop	r29
    252a:	cf 91       	pop	r28
	/* Set the PRG to Change */
	if(COMMAND.DIR==CMDI_SET){
		if(COMMAND.u32CmdValue<8){
			uint8_t u8ProgToChange=COMMAND.u32CmdValue;
			voSetProgToChange(u8ProgToChange);
			voResponseOk();
    252c:	1f 91       	pop	r17
    252e:	2c c6       	rjmp	.+3160   	; 0x3188 <voResponseOk>
		}
	} else {
		voResponseParserErr();
	}
	return;
    2530:	26 96       	adiw	r28, 0x06	; 6
    2532:	0f b6       	in	r0, 0x3f	; 63
    2534:	f8 94       	cli
    2536:	de bf       	out	0x3e, r29	; 62
    2538:	0f be       	out	0x3f, r0	; 63
    253a:	cd bf       	out	0x3d, r28	; 61
    253c:	df 91       	pop	r29
    253e:	cf 91       	pop	r28
		if(COMMAND.u32CmdValue<8){
			uint8_t u8ProgToChange=COMMAND.u32CmdValue;
			voSetProgToChange(u8ProgToChange);
			voResponseOk();
			} else {
			voResponseParamErr();
    2540:	1f 91       	pop	r17
    2542:	00 c6       	rjmp	.+3072   	; 0x3144 <voResponseParamErr>
		}
	} else if(COMMAND.DIR==CMDI_GET) {
    2544:	41 30       	cpi	r20, 0x01	; 1
    2546:	c9 f4       	brne	.+50     	; 0x257a <voCMDI_CHPRG+0x8e>
		if(boGetConnected()==true){
    2548:	0e 94 34 1e 	call	0x3c68	; 0x3c68 <boGetConnected>
    254c:	88 23       	and	r24, r24
			uint8_t u8ProgToChange = u8GetProgToChange();
    254e:	a1 f1       	breq	.+104    	; 0x25b8 <voCMDI_CHPRG+0xcc>
    2550:	f3 d5       	rcall	.+3046   	; 0x3138 <u8GetProgToChange>
    2552:	18 2f       	mov	r17, r24
			FILE* USBSTREAM = GetUSBStream();
    2554:	0e 94 3a 1e 	call	0x3c74	; 0x3c74 <GetUSBStream>
			fprintf_P(USBSTREAM,PSTR("OK:%i\n\r"),u8ProgToChange);
    2558:	1f 92       	push	r1
    255a:	1f 93       	push	r17
    255c:	2f e5       	ldi	r18, 0x5F	; 95
    255e:	32 e0       	ldi	r19, 0x02	; 2
    2560:	3f 93       	push	r19
    2562:	2f 93       	push	r18
    2564:	9f 93       	push	r25
    2566:	8f 93       	push	r24
    2568:	0e 94 26 26 	call	0x4c4c	; 0x4c4c <fprintf_P>
    256c:	0f 90       	pop	r0
    256e:	0f 90       	pop	r0
    2570:	0f 90       	pop	r0
    2572:	0f 90       	pop	r0
    2574:	0f 90       	pop	r0
    2576:	0f 90       	pop	r0
    2578:	1f c0       	rjmp	.+62     	; 0x25b8 <voCMDI_CHPRG+0xcc>
		}
		
	} else if(COMMAND.DIR == CMDI_HELP){
    257a:	43 30       	cpi	r20, 0x03	; 3
    257c:	99 f4       	brne	.+38     	; 0x25a4 <voCMDI_CHPRG+0xb8>
		/* Print Help Text here */
		if(boGetConnected()==true){
    257e:	0e 94 34 1e 	call	0x3c68	; 0x3c68 <boGetConnected>
    2582:	88 23       	and	r24, r24
    2584:	c9 f0       	breq	.+50     	; 0x25b8 <voCMDI_CHPRG+0xcc>
			FILE* USBSTREAM = GetUSBStream();
    2586:	0e 94 3a 1e 	call	0x3c74	; 0x3c74 <GetUSBStream>
			fprintf_P(USBSTREAM,PSTR("USAGE: 'GET CHPRG' or 'SET CHPRG XXXX' with range of 0 to 7\n\r"));
    258a:	21 e2       	ldi	r18, 0x21	; 33
    258c:	32 e0       	ldi	r19, 0x02	; 2
    258e:	3f 93       	push	r19
    2590:	2f 93       	push	r18
    2592:	9f 93       	push	r25
    2594:	8f 93       	push	r24
    2596:	0e 94 26 26 	call	0x4c4c	; 0x4c4c <fprintf_P>
    259a:	0f 90       	pop	r0
    259c:	0f 90       	pop	r0
    259e:	0f 90       	pop	r0
    25a0:	0f 90       	pop	r0
    25a2:	0a c0       	rjmp	.+20     	; 0x25b8 <voCMDI_CHPRG+0xcc>
		}
	} else {
		voResponseParserErr();
	}
	return;
    25a4:	26 96       	adiw	r28, 0x06	; 6
    25a6:	0f b6       	in	r0, 0x3f	; 63
    25a8:	f8 94       	cli
    25aa:	de bf       	out	0x3e, r29	; 62
    25ac:	0f be       	out	0x3f, r0	; 63
    25ae:	cd bf       	out	0x3d, r28	; 61
    25b0:	df 91       	pop	r29
    25b2:	cf 91       	pop	r28
		if(boGetConnected()==true){
			FILE* USBSTREAM = GetUSBStream();
			fprintf_P(USBSTREAM,PSTR("USAGE: 'GET CHPRG' or 'SET CHPRG XXXX' with range of 0 to 7\n\r"));
		}
	} else {
		voResponseParserErr();
    25b4:	1f 91       	pop	r17
    25b6:	d7 c5       	rjmp	.+2990   	; 0x3166 <voResponseParserErr>
	}
	return;
    25b8:	26 96       	adiw	r28, 0x06	; 6
    25ba:	0f b6       	in	r0, 0x3f	; 63
    25bc:	f8 94       	cli
    25be:	de bf       	out	0x3e, r29	; 62
    25c0:	0f be       	out	0x3f, r0	; 63
    25c2:	cd bf       	out	0x3d, r28	; 61
    25c4:	df 91       	pop	r29
    25c6:	cf 91       	pop	r28
    25c8:	1f 91       	pop	r17
    25ca:	08 95       	ret

000025cc <voCMDI_CUP_LEVEL>:
#include "../../services/usb_cdc_helper/usb_cdc_helper.h"
#include "../../services/coffee_fsm/coffee_fsm.h"
#include "PARSE_RESPONSE.h"
#include "CMDI_CUP_LEVEL.h"

void voCMDI_CUP_LEVEL(CMDI_CMD_DATA_t COMMAND){
    25cc:	0f 93       	push	r16
    25ce:	1f 93       	push	r17
    25d0:	cf 93       	push	r28
    25d2:	df 93       	push	r29
    25d4:	00 d0       	rcall	.+0      	; 0x25d6 <voCMDI_CUP_LEVEL+0xa>
    25d6:	00 d0       	rcall	.+0      	; 0x25d8 <voCMDI_CUP_LEVEL+0xc>
    25d8:	00 d0       	rcall	.+0      	; 0x25da <voCMDI_CUP_LEVEL+0xe>
    25da:	cd b7       	in	r28, 0x3d	; 61
    25dc:	de b7       	in	r29, 0x3e	; 62
    25de:	6b 83       	std	Y+3, r22	; 0x03
		if(COMMAND.DIR==CMDI_GET){
    25e0:	41 30       	cpi	r20, 0x01	; 1
    25e2:	d9 f4       	brne	.+54     	; 0x261a <voCMDI_CUP_LEVEL+0x4e>
			if(boGetConnected()==true){
    25e4:	0e 94 34 1e 	call	0x3c68	; 0x3c68 <boGetConnected>
    25e8:	88 23       	and	r24, r24
    25ea:	09 f4       	brne	.+2      	; 0x25ee <voCMDI_CUP_LEVEL+0x22>
    25ec:	45 c0       	rjmp	.+138    	; 0x2678 <voCMDI_CUP_LEVEL+0xac>
				FILE* USBSTREAM = GetUSBStream();
    25ee:	0e 94 3a 1e 	call	0x3c74	; 0x3c74 <GetUSBStream>
    25f2:	18 2f       	mov	r17, r24
    25f4:	09 2f       	mov	r16, r25
				fprintf(USBSTREAM,"OK:%i\n\r", u8GetCupLevel());
    25f6:	a5 d8       	rcall	.-3766   	; 0x1742 <u8GetCupLevel>
    25f8:	1f 92       	push	r1
    25fa:	8f 93       	push	r24
    25fc:	82 e4       	ldi	r24, 0x42	; 66
    25fe:	91 e0       	ldi	r25, 0x01	; 1
    2600:	9f 93       	push	r25
    2602:	8f 93       	push	r24
    2604:	0f 93       	push	r16
    2606:	1f 93       	push	r17
    2608:	0e 94 17 26 	call	0x4c2e	; 0x4c2e <fprintf>
    260c:	0f 90       	pop	r0
    260e:	0f 90       	pop	r0
    2610:	0f 90       	pop	r0
    2612:	0f 90       	pop	r0
    2614:	0f 90       	pop	r0
    2616:	0f 90       	pop	r0
    2618:	2f c0       	rjmp	.+94     	; 0x2678 <voCMDI_CUP_LEVEL+0xac>
			}
			
		} else if(COMMAND.DIR==CMDI_SET) {
    261a:	41 11       	cpse	r20, r1
    261c:	0d c0       	rjmp	.+26     	; 0x2638 <voCMDI_CUP_LEVEL+0x6c>
			voSetCupLevel((uint8_t)COMMAND.u32CmdValue);
    261e:	8b 81       	ldd	r24, Y+3	; 0x03
    2620:	7e d8       	rcall	.-3844   	; 0x171e <voSetCupLevel>
			}
		} else {
			voResponseParserErr();
		}
		return;
    2622:	26 96       	adiw	r28, 0x06	; 6
    2624:	0f b6       	in	r0, 0x3f	; 63
    2626:	f8 94       	cli
    2628:	de bf       	out	0x3e, r29	; 62
    262a:	0f be       	out	0x3f, r0	; 63
    262c:	cd bf       	out	0x3d, r28	; 61
    262e:	df 91       	pop	r29
    2630:	cf 91       	pop	r28
    2632:	1f 91       	pop	r17
				fprintf(USBSTREAM,"OK:%i\n\r", u8GetCupLevel());
			}
			
		} else if(COMMAND.DIR==CMDI_SET) {
			voSetCupLevel((uint8_t)COMMAND.u32CmdValue);
			voResponseOk();
    2634:	0f 91       	pop	r16
    2636:	a8 c5       	rjmp	.+2896   	; 0x3188 <voResponseOk>
			
		} else if(COMMAND.DIR == CMDI_HELP){
    2638:	43 30       	cpi	r20, 0x03	; 3
    263a:	99 f4       	brne	.+38     	; 0x2662 <voCMDI_CUP_LEVEL+0x96>
			/* Print Help Text here */
			if(boGetConnected()==true){
    263c:	0e 94 34 1e 	call	0x3c68	; 0x3c68 <boGetConnected>
    2640:	88 23       	and	r24, r24
    2642:	d1 f0       	breq	.+52     	; 0x2678 <voCMDI_CUP_LEVEL+0xac>
				FILE* USBSTREAM = GetUSBStream();
    2644:	0e 94 3a 1e 	call	0x3c74	; 0x3c74 <GetUSBStream>
				fprintf_P(USBSTREAM,PSTR("USAGE: 'GET LEVLE' or 'SET LEVEL XXXX' with range of 0 to 2\n\r"));
    2648:	27 e6       	ldi	r18, 0x67	; 103
    264a:	32 e0       	ldi	r19, 0x02	; 2
    264c:	3f 93       	push	r19
    264e:	2f 93       	push	r18
    2650:	9f 93       	push	r25
    2652:	8f 93       	push	r24
    2654:	0e 94 26 26 	call	0x4c4c	; 0x4c4c <fprintf_P>
    2658:	0f 90       	pop	r0
    265a:	0f 90       	pop	r0
    265c:	0f 90       	pop	r0
    265e:	0f 90       	pop	r0
    2660:	0b c0       	rjmp	.+22     	; 0x2678 <voCMDI_CUP_LEVEL+0xac>
			}
		} else {
			voResponseParserErr();
		}
		return;
    2662:	26 96       	adiw	r28, 0x06	; 6
    2664:	0f b6       	in	r0, 0x3f	; 63
    2666:	f8 94       	cli
    2668:	de bf       	out	0x3e, r29	; 62
    266a:	0f be       	out	0x3f, r0	; 63
    266c:	cd bf       	out	0x3d, r28	; 61
    266e:	df 91       	pop	r29
    2670:	cf 91       	pop	r28
    2672:	1f 91       	pop	r17
			if(boGetConnected()==true){
				FILE* USBSTREAM = GetUSBStream();
				fprintf_P(USBSTREAM,PSTR("USAGE: 'GET LEVLE' or 'SET LEVEL XXXX' with range of 0 to 2\n\r"));
			}
		} else {
			voResponseParserErr();
    2674:	0f 91       	pop	r16
    2676:	77 c5       	rjmp	.+2798   	; 0x3166 <voResponseParserErr>
		}
		return;
    2678:	26 96       	adiw	r28, 0x06	; 6
    267a:	0f b6       	in	r0, 0x3f	; 63
    267c:	f8 94       	cli
    267e:	de bf       	out	0x3e, r29	; 62
    2680:	0f be       	out	0x3f, r0	; 63
    2682:	cd bf       	out	0x3d, r28	; 61
    2684:	df 91       	pop	r29
    2686:	cf 91       	pop	r28
    2688:	1f 91       	pop	r17
    268a:	0f 91       	pop	r16
    268c:	08 95       	ret

0000268e <voCMDI_ECHO>:
#include "../../services/usb_cdc_helper/usb_cdc_helper.h"
#include "PARSE_RESPONSE.h"
#include "CMDI_ECHO.h"
#include "../CommandInterpreterInternalVars.h"

void voCMDI_ECHO(CMDI_CMD_DATA_t COMMAND){
    268e:	cf 93       	push	r28
    2690:	df 93       	push	r29
    2692:	00 d0       	rcall	.+0      	; 0x2694 <voCMDI_ECHO+0x6>
    2694:	00 d0       	rcall	.+0      	; 0x2696 <voCMDI_ECHO+0x8>
    2696:	00 d0       	rcall	.+0      	; 0x2698 <voCMDI_ECHO+0xa>
    2698:	cd b7       	in	r28, 0x3d	; 61
    269a:	de b7       	in	r29, 0x3e	; 62
    269c:	49 83       	std	Y+1, r20	; 0x01
    269e:	5a 83       	std	Y+2, r21	; 0x02
    26a0:	6b 83       	std	Y+3, r22	; 0x03
    26a2:	7c 83       	std	Y+4, r23	; 0x04
    26a4:	8d 83       	std	Y+5, r24	; 0x05
    26a6:	9e 83       	std	Y+6, r25	; 0x06
	if(COMMAND.DIR==CMDI_GET){
    26a8:	41 30       	cpi	r20, 0x01	; 1
    26aa:	d9 f4       	brne	.+54     	; 0x26e2 <voCMDI_ECHO+0x54>
		if(boGetConnected()==true){
    26ac:	0e 94 34 1e 	call	0x3c68	; 0x3c68 <boGetConnected>
    26b0:	88 23       	and	r24, r24
    26b2:	09 f4       	brne	.+2      	; 0x26b6 <voCMDI_ECHO+0x28>
    26b4:	50 c0       	rjmp	.+160    	; 0x2756 <voCMDI_ECHO+0xc8>
			FILE* USBSTREAM = GetUSBStream();
    26b6:	0e 94 3a 1e 	call	0x3c74	; 0x3c74 <GetUSBStream>
			fprintf(USBSTREAM,"OK:%i\n\r", CmdConfig.bfEcho);
    26ba:	20 91 18 03 	lds	r18, 0x0318	; 0x800318 <CmdConfig>
    26be:	21 70       	andi	r18, 0x01	; 1
    26c0:	1f 92       	push	r1
    26c2:	2f 93       	push	r18
    26c4:	22 e4       	ldi	r18, 0x42	; 66
    26c6:	31 e0       	ldi	r19, 0x01	; 1
    26c8:	3f 93       	push	r19
    26ca:	2f 93       	push	r18
    26cc:	9f 93       	push	r25
    26ce:	8f 93       	push	r24
    26d0:	0e 94 17 26 	call	0x4c2e	; 0x4c2e <fprintf>
    26d4:	0f 90       	pop	r0
    26d6:	0f 90       	pop	r0
    26d8:	0f 90       	pop	r0
    26da:	0f 90       	pop	r0
    26dc:	0f 90       	pop	r0
    26de:	0f 90       	pop	r0
    26e0:	3a c0       	rjmp	.+116    	; 0x2756 <voCMDI_ECHO+0xc8>
		}
	
	} else if(COMMAND.DIR==CMDI_SET) {
    26e2:	41 11       	cpse	r20, r1
    26e4:	1a c0       	rjmp	.+52     	; 0x271a <voCMDI_ECHO+0x8c>
		if(COMMAND.u32CmdValue>0){
    26e6:	8b 81       	ldd	r24, Y+3	; 0x03
    26e8:	9c 81       	ldd	r25, Y+4	; 0x04
    26ea:	ad 81       	ldd	r26, Y+5	; 0x05
    26ec:	be 81       	ldd	r27, Y+6	; 0x06
    26ee:	89 2b       	or	r24, r25
    26f0:	8a 2b       	or	r24, r26
    26f2:	8b 2b       	or	r24, r27
    26f4:	21 f0       	breq	.+8      	; 0x26fe <voCMDI_ECHO+0x70>
			CmdConfig.bfEcho=1;
    26f6:	80 91 18 03 	lds	r24, 0x0318	; 0x800318 <CmdConfig>
    26fa:	81 60       	ori	r24, 0x01	; 1
    26fc:	03 c0       	rjmp	.+6      	; 0x2704 <voCMDI_ECHO+0x76>
			} else {
			CmdConfig.bfEcho=0;
    26fe:	80 91 18 03 	lds	r24, 0x0318	; 0x800318 <CmdConfig>
    2702:	8e 7f       	andi	r24, 0xFE	; 254
    2704:	80 93 18 03 	sts	0x0318, r24	; 0x800318 <CmdConfig>
		}
	} else {
		voResponseParserErr();
	}
	return;
}
    2708:	26 96       	adiw	r28, 0x06	; 6
    270a:	0f b6       	in	r0, 0x3f	; 63
    270c:	f8 94       	cli
    270e:	de bf       	out	0x3e, r29	; 62
    2710:	0f be       	out	0x3f, r0	; 63
    2712:	cd bf       	out	0x3d, r28	; 61
    2714:	df 91       	pop	r29
    2716:	cf 91       	pop	r28
		if(COMMAND.u32CmdValue>0){
			CmdConfig.bfEcho=1;
			} else {
			CmdConfig.bfEcho=0;
		}
		voResponseOk();
    2718:	37 c5       	rjmp	.+2670   	; 0x3188 <voResponseOk>
	} else if(COMMAND.DIR == CMDI_HELP){
    271a:	43 30       	cpi	r20, 0x03	; 3
    271c:	99 f4       	brne	.+38     	; 0x2744 <voCMDI_ECHO+0xb6>
		/* Print Help Text here */
		if(boGetConnected()==true){
    271e:	0e 94 34 1e 	call	0x3c68	; 0x3c68 <boGetConnected>
    2722:	88 23       	and	r24, r24
    2724:	c1 f0       	breq	.+48     	; 0x2756 <voCMDI_ECHO+0xc8>
			FILE* USBSTREAM = GetUSBStream();
    2726:	0e 94 3a 1e 	call	0x3c74	; 0x3c74 <GetUSBStream>
			fprintf_P(USBSTREAM,PSTR("USAGE: 'GET ECHO', 'SET ECHO XXXX' with 0 = OFF and else ON\n\r"));
    272a:	25 ea       	ldi	r18, 0xA5	; 165
    272c:	32 e0       	ldi	r19, 0x02	; 2
    272e:	3f 93       	push	r19
    2730:	2f 93       	push	r18
    2732:	9f 93       	push	r25
    2734:	8f 93       	push	r24
    2736:	0e 94 26 26 	call	0x4c4c	; 0x4c4c <fprintf_P>
    273a:	0f 90       	pop	r0
    273c:	0f 90       	pop	r0
    273e:	0f 90       	pop	r0
    2740:	0f 90       	pop	r0
    2742:	09 c0       	rjmp	.+18     	; 0x2756 <voCMDI_ECHO+0xc8>
		}
	} else {
		voResponseParserErr();
	}
	return;
}
    2744:	26 96       	adiw	r28, 0x06	; 6
    2746:	0f b6       	in	r0, 0x3f	; 63
    2748:	f8 94       	cli
    274a:	de bf       	out	0x3e, r29	; 62
    274c:	0f be       	out	0x3f, r0	; 63
    274e:	cd bf       	out	0x3d, r28	; 61
    2750:	df 91       	pop	r29
		if(boGetConnected()==true){
			FILE* USBSTREAM = GetUSBStream();
			fprintf_P(USBSTREAM,PSTR("USAGE: 'GET ECHO', 'SET ECHO XXXX' with 0 = OFF and else ON\n\r"));
		}
	} else {
		voResponseParserErr();
    2752:	cf 91       	pop	r28
    2754:	08 c5       	rjmp	.+2576   	; 0x3166 <voResponseParserErr>
	}
	return;
}
    2756:	26 96       	adiw	r28, 0x06	; 6
    2758:	0f b6       	in	r0, 0x3f	; 63
    275a:	f8 94       	cli
    275c:	de bf       	out	0x3e, r29	; 62
    275e:	0f be       	out	0x3f, r0	; 63
    2760:	cd bf       	out	0x3d, r28	; 61
    2762:	df 91       	pop	r29
    2764:	cf 91       	pop	r28
    2766:	08 95       	ret

00002768 <voCMDI_GPIO>:
#include "../../driver/senseo_button/senseo_button.h"
#include "../../driver/gpio/gpio_typedef.h"
#include "PARSE_RESPONSE.h"
#include "CMDI_GPIO.h"

void voCMDI_GPIO(CMDI_CMD_DATA_t COMMAND){
    2768:	cf 92       	push	r12
    276a:	df 92       	push	r13
    276c:	ef 92       	push	r14
    276e:	ff 92       	push	r15
    2770:	1f 93       	push	r17
    2772:	cf 93       	push	r28
    2774:	df 93       	push	r29
    2776:	00 d0       	rcall	.+0      	; 0x2778 <voCMDI_GPIO+0x10>
    2778:	00 d0       	rcall	.+0      	; 0x277a <voCMDI_GPIO+0x12>
    277a:	00 d0       	rcall	.+0      	; 0x277c <voCMDI_GPIO+0x14>
    277c:	cd b7       	in	r28, 0x3d	; 61
    277e:	de b7       	in	r29, 0x3e	; 62
    2780:	6b 83       	std	Y+3, r22	; 0x03
    2782:	7c 83       	std	Y+4, r23	; 0x04
    2784:	8d 83       	std	Y+5, r24	; 0x05
    2786:	9e 83       	std	Y+6, r25	; 0x06
	if(COMMAND.DIR==CMDI_GET){
    2788:	41 30       	cpi	r20, 0x01	; 1
    278a:	09 f0       	breq	.+2      	; 0x278e <voCMDI_GPIO+0x26>
    278c:	92 c0       	rjmp	.+292    	; 0x28b2 <voCMDI_GPIO+0x14a>
    278e:	cb 80       	ldd	r12, Y+3	; 0x03
    2790:	dc 80       	ldd	r13, Y+4	; 0x04
    2792:	ed 80       	ldd	r14, Y+5	; 0x05
    2794:	fe 80       	ldd	r15, Y+6	; 0x06
		switch(COMMAND.u32CmdValue){
    2796:	83 e0       	ldi	r24, 0x03	; 3
    2798:	c8 16       	cp	r12, r24
    279a:	d1 04       	cpc	r13, r1
    279c:	e1 04       	cpc	r14, r1
    279e:	f1 04       	cpc	r15, r1
    27a0:	b1 f1       	breq	.+108    	; 0x280e <voCMDI_GPIO+0xa6>
    27a2:	78 f0       	brcs	.+30     	; 0x27c2 <voCMDI_GPIO+0x5a>
    27a4:	84 e0       	ldi	r24, 0x04	; 4
    27a6:	c8 16       	cp	r12, r24
    27a8:	d1 04       	cpc	r13, r1
    27aa:	e1 04       	cpc	r14, r1
    27ac:	f1 04       	cpc	r15, r1
    27ae:	09 f4       	brne	.+2      	; 0x27b2 <voCMDI_GPIO+0x4a>
    27b0:	4f c0       	rjmp	.+158    	; 0x2850 <voCMDI_GPIO+0xe8>
    27b2:	95 e0       	ldi	r25, 0x05	; 5
    27b4:	c9 16       	cp	r12, r25
    27b6:	d1 04       	cpc	r13, r1
    27b8:	e1 04       	cpc	r14, r1
    27ba:	f1 04       	cpc	r15, r1
    27bc:	09 f4       	brne	.+2      	; 0x27c0 <voCMDI_GPIO+0x58>
    27be:	5c c0       	rjmp	.+184    	; 0x2878 <voCMDI_GPIO+0x110>
    27c0:	6f c0       	rjmp	.+222    	; 0x28a0 <voCMDI_GPIO+0x138>
			case 0:
			case 1:
			case 2:{
				if(boGetConnected()==true){
    27c2:	0e 94 34 1e 	call	0x3c68	; 0x3c68 <boGetConnected>
    27c6:	88 23       	and	r24, r24
    27c8:	09 f4       	brne	.+2      	; 0x27cc <voCMDI_GPIO+0x64>
    27ca:	a1 c0       	rjmp	.+322    	; 0x290e <voCMDI_GPIO+0x1a6>
					emSWITCHSTATE emReturnValue=SWITCH_RELEASED;
					emReturnValue = emGetSwitchState( COMMAND.u32CmdValue );
    27cc:	8c 2d       	mov	r24, r12
    27ce:	0e 94 c2 07 	call	0xf84	; 0xf84 <emGetSwitchState>
    27d2:	18 2f       	mov	r17, r24
					FILE* USBSTREAM = GetUSBStream();
    27d4:	0e 94 3a 1e 	call	0x3c74	; 0x3c74 <GetUSBStream>
					if(SWITCH_RELEASED == emReturnValue){
    27d8:	11 30       	cpi	r17, 0x01	; 1
    27da:	39 f4       	brne	.+14     	; 0x27ea <voCMDI_GPIO+0x82>
						fprintf(USBSTREAM,"SWITCH %lu RELEASED\n\r",COMMAND.u32CmdValue);
    27dc:	ff 92       	push	r15
    27de:	ef 92       	push	r14
    27e0:	df 92       	push	r13
    27e2:	cf 92       	push	r12
    27e4:	2a e4       	ldi	r18, 0x4A	; 74
    27e6:	31 e0       	ldi	r19, 0x01	; 1
    27e8:	06 c0       	rjmp	.+12     	; 0x27f6 <voCMDI_GPIO+0x8e>
						} else {
						fprintf(USBSTREAM,"SWITCH %lu PRESSED\n\r",COMMAND.u32CmdValue);
    27ea:	ff 92       	push	r15
    27ec:	ef 92       	push	r14
    27ee:	df 92       	push	r13
    27f0:	cf 92       	push	r12
    27f2:	20 e6       	ldi	r18, 0x60	; 96
    27f4:	31 e0       	ldi	r19, 0x01	; 1
    27f6:	3f 93       	push	r19
    27f8:	2f 93       	push	r18
    27fa:	9f 93       	push	r25
    27fc:	8f 93       	push	r24
    27fe:	0e 94 17 26 	call	0x4c2e	; 0x4c2e <fprintf>
    2802:	0f b6       	in	r0, 0x3f	; 63
    2804:	f8 94       	cli
    2806:	de bf       	out	0x3e, r29	; 62
    2808:	0f be       	out	0x3f, r0	; 63
    280a:	cd bf       	out	0x3d, r28	; 61
    280c:	80 c0       	rjmp	.+256    	; 0x290e <voCMDI_GPIO+0x1a6>
					}
				}
			}break;
					
			case 3:{
				if(boGetConnected()==true){
    280e:	0e 94 34 1e 	call	0x3c68	; 0x3c68 <boGetConnected>
    2812:	88 23       	and	r24, r24
    2814:	09 f4       	brne	.+2      	; 0x2818 <voCMDI_GPIO+0xb0>
    2816:	7b c0       	rjmp	.+246    	; 0x290e <voCMDI_GPIO+0x1a6>
					emSWITCHSTATE emReturnValue=SWITCH_RELEASED;
					emReturnValue = SBNT_emGetState();
    2818:	0e 94 21 08 	call	0x1042	; 0x1042 <SBNT_emGetState>
    281c:	18 2f       	mov	r17, r24
					FILE* USBSTREAM = GetUSBStream();
    281e:	0e 94 3a 1e 	call	0x3c74	; 0x3c74 <GetUSBStream>
    2822:	bc 01       	movw	r22, r24
					if(SWITCH_RELEASED == emReturnValue){
    2824:	11 30       	cpi	r17, 0x01	; 1
    2826:	19 f4       	brne	.+6      	; 0x282e <voCMDI_GPIO+0xc6>
						fprintf(USBSTREAM,"DISPLAY BTN RELEASED\n\r");
    2828:	85 e7       	ldi	r24, 0x75	; 117
    282a:	91 e0       	ldi	r25, 0x01	; 1
    282c:	02 c0       	rjmp	.+4      	; 0x2832 <voCMDI_GPIO+0xca>
						} else {
						fprintf(USBSTREAM,"DISPLAY BTN PRESSED\n\r");
    282e:	8c e8       	ldi	r24, 0x8C	; 140
    2830:	91 e0       	ldi	r25, 0x01	; 1
		}
	} else {
		voResponseParamErr();
	}
	return;
    2832:	26 96       	adiw	r28, 0x06	; 6
    2834:	0f b6       	in	r0, 0x3f	; 63
    2836:	f8 94       	cli
    2838:	de bf       	out	0x3e, r29	; 62
    283a:	0f be       	out	0x3f, r0	; 63
    283c:	cd bf       	out	0x3d, r28	; 61
    283e:	df 91       	pop	r29
    2840:	cf 91       	pop	r28
    2842:	1f 91       	pop	r17
    2844:	ff 90       	pop	r15
    2846:	ef 90       	pop	r14
    2848:	df 90       	pop	r13
    284a:	cf 90       	pop	r12
					emReturnValue = SBNT_emGetState();
					FILE* USBSTREAM = GetUSBStream();
					if(SWITCH_RELEASED == emReturnValue){
						fprintf(USBSTREAM,"DISPLAY BTN RELEASED\n\r");
						} else {
						fprintf(USBSTREAM,"DISPLAY BTN PRESSED\n\r");
    284c:	0c 94 3e 26 	jmp	0x4c7c	; 0x4c7c <fputs>
				/*
				#define LOW_LEVEL_SENSOR ( 0 )
				#define HIGH_LEVEL_SENSOR ( 1 )
				*/
			case 4:{
				if(boGetConnected()==true){
    2850:	0e 94 34 1e 	call	0x3c68	; 0x3c68 <boGetConnected>
    2854:	88 23       	and	r24, r24
    2856:	09 f4       	brne	.+2      	; 0x285a <voCMDI_GPIO+0xf2>
    2858:	5a c0       	rjmp	.+180    	; 0x290e <voCMDI_GPIO+0x1a6>
					emSWITCHSTATE SwitchState=SWITCH_RELEASED;
					SwitchState = emGetHallSwitchState( 0 );
    285a:	80 e0       	ldi	r24, 0x00	; 0
    285c:	0e 94 d6 07 	call	0xfac	; 0xfac <emGetHallSwitchState>
    2860:	18 2f       	mov	r17, r24
					FILE* USBSTREAM = GetUSBStream();
    2862:	0e 94 3a 1e 	call	0x3c74	; 0x3c74 <GetUSBStream>
    2866:	bc 01       	movw	r22, r24
					if(SWITCH_RELEASED == SwitchState){
    2868:	11 30       	cpi	r17, 0x01	; 1
    286a:	19 f4       	brne	.+6      	; 0x2872 <voCMDI_GPIO+0x10a>
						fprintf(USBSTREAM,"WATER LOW LEVEL LOW \n\r");
    286c:	82 ea       	ldi	r24, 0xA2	; 162
    286e:	91 e0       	ldi	r25, 0x01	; 1
    2870:	e0 cf       	rjmp	.-64     	; 0x2832 <voCMDI_GPIO+0xca>
						} else {
						fprintf(USBSTREAM,"WATER LOW LEVEL HIGH\n\r");
    2872:	89 eb       	ldi	r24, 0xB9	; 185
    2874:	91 e0       	ldi	r25, 0x01	; 1
    2876:	dd cf       	rjmp	.-70     	; 0x2832 <voCMDI_GPIO+0xca>
						
						
			}break;
					
			case 5:{
				if(boGetConnected()==true){
    2878:	0e 94 34 1e 	call	0x3c68	; 0x3c68 <boGetConnected>
    287c:	88 23       	and	r24, r24
    287e:	09 f4       	brne	.+2      	; 0x2882 <voCMDI_GPIO+0x11a>
    2880:	46 c0       	rjmp	.+140    	; 0x290e <voCMDI_GPIO+0x1a6>
					emSWITCHSTATE SwitchState=SWITCH_RELEASED;
					SwitchState = emGetHallSwitchState( 1 );
    2882:	81 e0       	ldi	r24, 0x01	; 1
    2884:	0e 94 d6 07 	call	0xfac	; 0xfac <emGetHallSwitchState>
    2888:	18 2f       	mov	r17, r24
					FILE* USBSTREAM = GetUSBStream();
    288a:	0e 94 3a 1e 	call	0x3c74	; 0x3c74 <GetUSBStream>
    288e:	bc 01       	movw	r22, r24
					if(SWITCH_RELEASED == SwitchState){
    2890:	11 30       	cpi	r17, 0x01	; 1
    2892:	19 f4       	brne	.+6      	; 0x289a <voCMDI_GPIO+0x132>
						fprintf(USBSTREAM,"WATER HIGH LEVEL LOW\n\r");
    2894:	80 ed       	ldi	r24, 0xD0	; 208
    2896:	91 e0       	ldi	r25, 0x01	; 1
    2898:	cc cf       	rjmp	.-104    	; 0x2832 <voCMDI_GPIO+0xca>
						} else {
						fprintf(USBSTREAM,"WATER HIGH LEVEL HIGH\n\r");
    289a:	87 ee       	ldi	r24, 0xE7	; 231
    289c:	91 e0       	ldi	r25, 0x01	; 1
    289e:	c9 cf       	rjmp	.-110    	; 0x2832 <voCMDI_GPIO+0xca>
					}
				}
			}break;
					
			default:{
				if(boGetConnected()==true){
    28a0:	0e 94 34 1e 	call	0x3c68	; 0x3c68 <boGetConnected>
    28a4:	88 23       	and	r24, r24
    28a6:	99 f1       	breq	.+102    	; 0x290e <voCMDI_GPIO+0x1a6>
					FILE* USBSTREAM = GetUSBStream();
    28a8:	0e 94 3a 1e 	call	0x3c74	; 0x3c74 <GetUSBStream>
					fprintf_P(USBSTREAM,PSTR(	"GPIO - Help\n\r"
    28ac:	2a e9       	ldi	r18, 0x9A	; 154
    28ae:	35 e0       	ldi	r19, 0x05	; 5
    28b0:	15 c0       	rjmp	.+42     	; 0x28dc <voCMDI_GPIO+0x174>
					));
				}
			} break;
		} //END Switch
			
	} else if(COMMAND.DIR==CMDI_SET){
    28b2:	41 11       	cpse	r20, r1
    28b4:	09 c0       	rjmp	.+18     	; 0x28c8 <voCMDI_GPIO+0x160>
			if(boGetConnected()==true){
    28b6:	0e 94 34 1e 	call	0x3c68	; 0x3c68 <boGetConnected>
    28ba:	88 23       	and	r24, r24
    28bc:	41 f1       	breq	.+80     	; 0x290e <voCMDI_GPIO+0x1a6>
				FILE* USBSTREAM = GetUSBStream();
    28be:	0e 94 3a 1e 	call	0x3c74	; 0x3c74 <GetUSBStream>
				fprintf_P(USBSTREAM,PSTR(	"GPIO - Help\n\r"
    28c2:	27 e9       	ldi	r18, 0x97	; 151
    28c4:	34 e0       	ldi	r19, 0x04	; 4
    28c6:	0a c0       	rjmp	.+20     	; 0x28dc <voCMDI_GPIO+0x174>
				"------------------------------------------------------------------------------------------\n\r"
				"Only GET is supported for GPIO , see HELP GPIO for more info"
				"-------------------------------------------------------------------------------------------\n\r"
				));
			}
	} else if (COMMAND.DIR==CMDI_HELP) {
    28c8:	43 30       	cpi	r20, 0x03	; 3
    28ca:	99 f4       	brne	.+38     	; 0x28f2 <voCMDI_GPIO+0x18a>
		if(boGetConnected()==true){
    28cc:	0e 94 34 1e 	call	0x3c68	; 0x3c68 <boGetConnected>
    28d0:	88 23       	and	r24, r24
    28d2:	e9 f0       	breq	.+58     	; 0x290e <voCMDI_GPIO+0x1a6>
			FILE* USBSTREAM = GetUSBStream();
    28d4:	0e 94 3a 1e 	call	0x3c74	; 0x3c74 <GetUSBStream>
			fprintf_P(USBSTREAM,PSTR(	"GPIO - Help\n\r"
    28d8:	23 ee       	ldi	r18, 0xE3	; 227
    28da:	32 e0       	ldi	r19, 0x02	; 2
    28dc:	3f 93       	push	r19
    28de:	2f 93       	push	r18
    28e0:	9f 93       	push	r25
    28e2:	8f 93       	push	r24
    28e4:	0e 94 26 26 	call	0x4c4c	; 0x4c4c <fprintf_P>
    28e8:	0f 90       	pop	r0
    28ea:	0f 90       	pop	r0
    28ec:	0f 90       	pop	r0
    28ee:	0f 90       	pop	r0
    28f0:	0e c0       	rjmp	.+28     	; 0x290e <voCMDI_GPIO+0x1a6>
		}
	} else {
		voResponseParamErr();
	}
	return;
    28f2:	26 96       	adiw	r28, 0x06	; 6
    28f4:	0f b6       	in	r0, 0x3f	; 63
    28f6:	f8 94       	cli
    28f8:	de bf       	out	0x3e, r29	; 62
    28fa:	0f be       	out	0x3f, r0	; 63
    28fc:	cd bf       	out	0x3d, r28	; 61
    28fe:	df 91       	pop	r29
    2900:	cf 91       	pop	r28
    2902:	1f 91       	pop	r17
    2904:	ff 90       	pop	r15
    2906:	ef 90       	pop	r14
    2908:	df 90       	pop	r13
    290a:	cf 90       	pop	r12
			"Example: 'GET GPIO 0' will return the current level of SWITCH 0"
			"-------------------------------------------------------------------------------------------\n\r"
			));
		}
	} else {
		voResponseParamErr();
    290c:	1b c4       	rjmp	.+2102   	; 0x3144 <voResponseParamErr>
	}
	return;
    290e:	26 96       	adiw	r28, 0x06	; 6
    2910:	0f b6       	in	r0, 0x3f	; 63
    2912:	f8 94       	cli
    2914:	de bf       	out	0x3e, r29	; 62
    2916:	0f be       	out	0x3f, r0	; 63
    2918:	cd bf       	out	0x3d, r28	; 61
    291a:	df 91       	pop	r29
    291c:	cf 91       	pop	r28
    291e:	1f 91       	pop	r17
    2920:	ff 90       	pop	r15
    2922:	ef 90       	pop	r14
    2924:	df 90       	pop	r13
    2926:	cf 90       	pop	r12
    2928:	08 95       	ret

0000292a <voCMDI_MAKE>:
#include "../../services/usb_cdc_helper/usb_cdc_helper.h"
#include "../../coffee_fsm/coffee_fsm.h"
#include "PARSE_RESPONSE.h"
#include "CMDI_MAKE.h"

void voCMDI_MAKE(CMDI_CMD_DATA_t COMMAND){
    292a:	cf 93       	push	r28
    292c:	df 93       	push	r29
    292e:	00 d0       	rcall	.+0      	; 0x2930 <voCMDI_MAKE+0x6>
    2930:	00 d0       	rcall	.+0      	; 0x2932 <voCMDI_MAKE+0x8>
    2932:	00 d0       	rcall	.+0      	; 0x2934 <voCMDI_MAKE+0xa>
    2934:	cd b7       	in	r28, 0x3d	; 61
    2936:	de b7       	in	r29, 0x3e	; 62
    2938:	6b 83       	std	Y+3, r22	; 0x03
    293a:	7c 83       	std	Y+4, r23	; 0x04
    293c:	8d 83       	std	Y+5, r24	; 0x05
    293e:	9e 83       	std	Y+6, r25	; 0x06
	
	if(COMMAND.DIR==CMDI_CMD) {
    2940:	42 30       	cpi	r20, 0x02	; 2
    2942:	09 f0       	breq	.+2      	; 0x2946 <voCMDI_MAKE+0x1c>
    2944:	3f c0       	rjmp	.+126    	; 0x29c4 <voCMDI_MAKE+0x9a>
		switch(COMMAND.u32CmdValue){
    2946:	8b 81       	ldd	r24, Y+3	; 0x03
    2948:	9c 81       	ldd	r25, Y+4	; 0x04
    294a:	ad 81       	ldd	r26, Y+5	; 0x05
    294c:	be 81       	ldd	r27, Y+6	; 0x06
    294e:	00 97       	sbiw	r24, 0x00	; 0
    2950:	a1 05       	cpc	r26, r1
    2952:	b1 05       	cpc	r27, r1
    2954:	29 f0       	breq	.+10     	; 0x2960 <voCMDI_MAKE+0x36>
    2956:	01 97       	sbiw	r24, 0x01	; 1
    2958:	a1 05       	cpc	r26, r1
    295a:	b1 05       	cpc	r27, r1
    295c:	81 f0       	breq	.+32     	; 0x297e <voCMDI_MAKE+0x54>
    295e:	28 c0       	rjmp	.+80     	; 0x29b0 <voCMDI_MAKE+0x86>
			case 0:{
				if(boCoffeeFSM_MakeCoffee(1)==true){
    2960:	81 e0       	ldi	r24, 0x01	; 1
    2962:	0e 94 68 0b 	call	0x16d0	; 0x16d0 <boCoffeeFSM_MakeCoffee>
    2966:	88 23       	and	r24, r24
    2968:	c9 f0       	breq	.+50     	; 0x299c <voCMDI_MAKE+0x72>
					if(boGetConnected()==true){
    296a:	0e 94 34 1e 	call	0x3c68	; 0x3c68 <boGetConnected>
    296e:	88 23       	and	r24, r24
    2970:	f1 f1       	breq	.+124    	; 0x29ee <voCMDI_MAKE+0xc4>
						FILE* USBSTREAM = GetUSBStream();
    2972:	0e 94 3a 1e 	call	0x3c74	; 0x3c74 <GetUSBStream>
						fprintf(USBSTREAM,"OK:BREWONE\n\r");
    2976:	bc 01       	movw	r22, r24
    2978:	8f ef       	ldi	r24, 0xFF	; 255
    297a:	91 e0       	ldi	r25, 0x01	; 1
    297c:	2e c0       	rjmp	.+92     	; 0x29da <voCMDI_MAKE+0xb0>
				}
			} break;
				
			case 1:{
				/* Power On */
				if(boCoffeeFSM_MakeCoffee(2)==true){
    297e:	82 e0       	ldi	r24, 0x02	; 2
    2980:	0e 94 68 0b 	call	0x16d0	; 0x16d0 <boCoffeeFSM_MakeCoffee>
    2984:	88 23       	and	r24, r24
    2986:	51 f0       	breq	.+20     	; 0x299c <voCMDI_MAKE+0x72>
					if(boGetConnected()==true){
    2988:	0e 94 34 1e 	call	0x3c68	; 0x3c68 <boGetConnected>
    298c:	88 23       	and	r24, r24
    298e:	79 f1       	breq	.+94     	; 0x29ee <voCMDI_MAKE+0xc4>
						FILE* USBSTREAM = GetUSBStream();
    2990:	0e 94 3a 1e 	call	0x3c74	; 0x3c74 <GetUSBStream>
						fprintf(USBSTREAM,"OK:BREWTWO\n\r");
    2994:	bc 01       	movw	r22, r24
    2996:	8a e1       	ldi	r24, 0x1A	; 26
    2998:	92 e0       	ldi	r25, 0x02	; 2
    299a:	1f c0       	rjmp	.+62     	; 0x29da <voCMDI_MAKE+0xb0>
					}
				} else {
					if(boGetConnected()==true){
    299c:	0e 94 34 1e 	call	0x3c68	; 0x3c68 <boGetConnected>
    29a0:	88 23       	and	r24, r24
    29a2:	29 f1       	breq	.+74     	; 0x29ee <voCMDI_MAKE+0xc4>
						FILE* USBSTREAM = GetUSBStream();
    29a4:	0e 94 3a 1e 	call	0x3c74	; 0x3c74 <GetUSBStream>
						fprintf(USBSTREAM,"ERR:BREWERR\n\r");
    29a8:	bc 01       	movw	r22, r24
    29aa:	8c e0       	ldi	r24, 0x0C	; 12
    29ac:	92 e0       	ldi	r25, 0x02	; 2
    29ae:	15 c0       	rjmp	.+42     	; 0x29da <voCMDI_MAKE+0xb0>
					}
				}
			} break;
			
			default:{
				if(boGetConnected()==true){
    29b0:	0e 94 34 1e 	call	0x3c68	; 0x3c68 <boGetConnected>
    29b4:	88 23       	and	r24, r24
    29b6:	d9 f0       	breq	.+54     	; 0x29ee <voCMDI_MAKE+0xc4>
					FILE* USBSTREAM = GetUSBStream();
    29b8:	0e 94 3a 1e 	call	0x3c74	; 0x3c74 <GetUSBStream>
					fprintf(USBSTREAM,"ERR:BREWERR CNT\n\r");
    29bc:	bc 01       	movw	r22, r24
    29be:	87 e2       	ldi	r24, 0x27	; 39
    29c0:	92 e0       	ldi	r25, 0x02	; 2
    29c2:	0b c0       	rjmp	.+22     	; 0x29da <voCMDI_MAKE+0xb0>
				}
			} break;
		}
			
	} else if(COMMAND.DIR==CMDI_HELP){
    29c4:	43 30       	cpi	r20, 0x03	; 3
    29c6:	99 f4       	brne	.+38     	; 0x29ee <voCMDI_MAKE+0xc4>
		if(boGetConnected()==true){
    29c8:	0e 94 34 1e 	call	0x3c68	; 0x3c68 <boGetConnected>
    29cc:	88 23       	and	r24, r24
    29ce:	79 f0       	breq	.+30     	; 0x29ee <voCMDI_MAKE+0xc4>
			FILE* USBSTREAM = GetUSBStream();
    29d0:	0e 94 3a 1e 	call	0x3c74	; 0x3c74 <GetUSBStream>
			fprintf(USBSTREAM,"USAGE: 'MAKE ONECUP', 'MAKE TWOCUP' for one or two cups\n\r");
    29d4:	bc 01       	movw	r22, r24
    29d6:	89 e3       	ldi	r24, 0x39	; 57
    29d8:	92 e0       	ldi	r25, 0x02	; 2
		}
			
	}
	return;
}
    29da:	26 96       	adiw	r28, 0x06	; 6
    29dc:	0f b6       	in	r0, 0x3f	; 63
    29de:	f8 94       	cli
    29e0:	de bf       	out	0x3e, r29	; 62
    29e2:	0f be       	out	0x3f, r0	; 63
    29e4:	cd bf       	out	0x3d, r28	; 61
    29e6:	df 91       	pop	r29
    29e8:	cf 91       	pop	r28
		}
			
	} else if(COMMAND.DIR==CMDI_HELP){
		if(boGetConnected()==true){
			FILE* USBSTREAM = GetUSBStream();
			fprintf(USBSTREAM,"USAGE: 'MAKE ONECUP', 'MAKE TWOCUP' for one or two cups\n\r");
    29ea:	0c 94 3e 26 	jmp	0x4c7c	; 0x4c7c <fputs>
		}
			
	}
	return;
}
    29ee:	26 96       	adiw	r28, 0x06	; 6
    29f0:	0f b6       	in	r0, 0x3f	; 63
    29f2:	f8 94       	cli
    29f4:	de bf       	out	0x3e, r29	; 62
    29f6:	0f be       	out	0x3f, r0	; 63
    29f8:	cd bf       	out	0x3d, r28	; 61
    29fa:	df 91       	pop	r29
    29fc:	cf 91       	pop	r28
    29fe:	08 95       	ret

00002a00 <voCMDI_MES_POWER>:
#include "../../services/usb_cdc_helper/usb_cdc_helper.h"
#include "../../powermeter/powermeter.h"
#include "PARSE_RESPONSE.h"
#include "CMDI_MES_POWER.h"

void voCMDI_MES_POWER(CMDI_CMD_DATA_t COMMAND){
    2a00:	0f 93       	push	r16
    2a02:	1f 93       	push	r17
    2a04:	cf 93       	push	r28
    2a06:	df 93       	push	r29
    2a08:	00 d0       	rcall	.+0      	; 0x2a0a <voCMDI_MES_POWER+0xa>
    2a0a:	00 d0       	rcall	.+0      	; 0x2a0c <voCMDI_MES_POWER+0xc>
    2a0c:	00 d0       	rcall	.+0      	; 0x2a0e <voCMDI_MES_POWER+0xe>
    2a0e:	cd b7       	in	r28, 0x3d	; 61
    2a10:	de b7       	in	r29, 0x3e	; 62
	if(COMMAND.DIR==CMDI_GET){
    2a12:	41 30       	cpi	r20, 0x01	; 1
    2a14:	e1 f4       	brne	.+56     	; 0x2a4e <voCMDI_MES_POWER+0x4e>
		if(boGetConnected()==true){
    2a16:	0e 94 34 1e 	call	0x3c68	; 0x3c68 <boGetConnected>
    2a1a:	88 23       	and	r24, r24
    2a1c:	c1 f1       	breq	.+112    	; 0x2a8e <voCMDI_MES_POWER+0x8e>
			FILE* USBSTREAM = GetUSBStream();
    2a1e:	0e 94 3a 1e 	call	0x3c74	; 0x3c74 <GetUSBStream>
    2a22:	18 2f       	mov	r17, r24
    2a24:	09 2f       	mov	r16, r25
			fprintf_P(USBSTREAM,PSTR("OK:%lu\n\r"), u32PWRMTR_GetmAmp());
    2a26:	0e 94 92 1d 	call	0x3b24	; 0x3b24 <u32PWRMTR_GetmAmp>
    2a2a:	9f 93       	push	r25
    2a2c:	8f 93       	push	r24
    2a2e:	7f 93       	push	r23
    2a30:	6f 93       	push	r22
    2a32:	80 ed       	ldi	r24, 0xD0	; 208
    2a34:	96 e0       	ldi	r25, 0x06	; 6
    2a36:	9f 93       	push	r25
    2a38:	8f 93       	push	r24
    2a3a:	0f 93       	push	r16
    2a3c:	1f 93       	push	r17
    2a3e:	0e 94 26 26 	call	0x4c4c	; 0x4c4c <fprintf_P>
    2a42:	0f b6       	in	r0, 0x3f	; 63
    2a44:	f8 94       	cli
    2a46:	de bf       	out	0x3e, r29	; 62
    2a48:	0f be       	out	0x3f, r0	; 63
    2a4a:	cd bf       	out	0x3d, r28	; 61
    2a4c:	20 c0       	rjmp	.+64     	; 0x2a8e <voCMDI_MES_POWER+0x8e>
		}			
	}else if(COMMAND.DIR == CMDI_HELP){
    2a4e:	43 30       	cpi	r20, 0x03	; 3
    2a50:	99 f4       	brne	.+38     	; 0x2a78 <voCMDI_MES_POWER+0x78>
		/* Print Help Text here */
		if(boGetConnected()==true){
    2a52:	0e 94 34 1e 	call	0x3c68	; 0x3c68 <boGetConnected>
    2a56:	88 23       	and	r24, r24
    2a58:	d1 f0       	breq	.+52     	; 0x2a8e <voCMDI_MES_POWER+0x8e>
			FILE* USBSTREAM = GetUSBStream();
    2a5a:	0e 94 3a 1e 	call	0x3c74	; 0x3c74 <GetUSBStream>
			fprintf_P(USBSTREAM,PSTR("USAGE: 'GET CURPWR' to read the current power used in mA\n\r"));
    2a5e:	25 e9       	ldi	r18, 0x95	; 149
    2a60:	36 e0       	ldi	r19, 0x06	; 6
    2a62:	3f 93       	push	r19
    2a64:	2f 93       	push	r18
    2a66:	9f 93       	push	r25
    2a68:	8f 93       	push	r24
    2a6a:	0e 94 26 26 	call	0x4c4c	; 0x4c4c <fprintf_P>
    2a6e:	0f 90       	pop	r0
    2a70:	0f 90       	pop	r0
    2a72:	0f 90       	pop	r0
    2a74:	0f 90       	pop	r0
    2a76:	0b c0       	rjmp	.+22     	; 0x2a8e <voCMDI_MES_POWER+0x8e>
		}
	} else {
		voResponseParserErr();
	}
	return;			
    2a78:	26 96       	adiw	r28, 0x06	; 6
    2a7a:	0f b6       	in	r0, 0x3f	; 63
    2a7c:	f8 94       	cli
    2a7e:	de bf       	out	0x3e, r29	; 62
    2a80:	0f be       	out	0x3f, r0	; 63
    2a82:	cd bf       	out	0x3d, r28	; 61
    2a84:	df 91       	pop	r29
    2a86:	cf 91       	pop	r28
    2a88:	1f 91       	pop	r17
    2a8a:	0f 91       	pop	r16
		if(boGetConnected()==true){
			FILE* USBSTREAM = GetUSBStream();
			fprintf_P(USBSTREAM,PSTR("USAGE: 'GET CURPWR' to read the current power used in mA\n\r"));
		}
	} else {
		voResponseParserErr();
    2a8c:	6c c3       	rjmp	.+1752   	; 0x3166 <voResponseParserErr>
	}
	return;			
    2a8e:	26 96       	adiw	r28, 0x06	; 6
    2a90:	0f b6       	in	r0, 0x3f	; 63
    2a92:	f8 94       	cli
    2a94:	de bf       	out	0x3e, r29	; 62
    2a96:	0f be       	out	0x3f, r0	; 63
    2a98:	cd bf       	out	0x3d, r28	; 61
    2a9a:	df 91       	pop	r29
    2a9c:	cf 91       	pop	r28
    2a9e:	1f 91       	pop	r17
    2aa0:	0f 91       	pop	r16
    2aa2:	08 95       	ret

00002aa4 <voCMDI_POWER>:
#include "../../services/usb_cdc_helper/usb_cdc_helper.h"
#include "../../coffee_fsm/coffee_fsm.h"
#include "PARSE_RESPONSE.h"
#include "CMDI_POWER.h"

void voCMDI_POWER(CMDI_CMD_DATA_t COMMAND){
    2aa4:	cf 93       	push	r28
    2aa6:	df 93       	push	r29
    2aa8:	00 d0       	rcall	.+0      	; 0x2aaa <voCMDI_POWER+0x6>
    2aaa:	00 d0       	rcall	.+0      	; 0x2aac <voCMDI_POWER+0x8>
    2aac:	00 d0       	rcall	.+0      	; 0x2aae <voCMDI_POWER+0xa>
    2aae:	cd b7       	in	r28, 0x3d	; 61
    2ab0:	de b7       	in	r29, 0x3e	; 62
    2ab2:	6b 83       	std	Y+3, r22	; 0x03
    2ab4:	7c 83       	std	Y+4, r23	; 0x04
    2ab6:	8d 83       	std	Y+5, r24	; 0x05
    2ab8:	9e 83       	std	Y+6, r25	; 0x06
	if(COMMAND.DIR==CMDI_CMD) {
    2aba:	42 30       	cpi	r20, 0x02	; 2
    2abc:	81 f5       	brne	.+96     	; 0x2b1e <voCMDI_POWER+0x7a>
		switch(COMMAND.u32CmdValue){
    2abe:	8b 81       	ldd	r24, Y+3	; 0x03
    2ac0:	9c 81       	ldd	r25, Y+4	; 0x04
    2ac2:	ad 81       	ldd	r26, Y+5	; 0x05
    2ac4:	be 81       	ldd	r27, Y+6	; 0x06
    2ac6:	00 97       	sbiw	r24, 0x00	; 0
    2ac8:	a1 05       	cpc	r26, r1
    2aca:	b1 05       	cpc	r27, r1
    2acc:	29 f0       	breq	.+10     	; 0x2ad8 <voCMDI_POWER+0x34>
    2ace:	01 97       	sbiw	r24, 0x01	; 1
    2ad0:	a1 05       	cpc	r26, r1
    2ad2:	b1 05       	cpc	r27, r1
    2ad4:	71 f0       	breq	.+28     	; 0x2af2 <voCMDI_POWER+0x4e>
    2ad6:	25 c0       	rjmp	.+74     	; 0x2b22 <voCMDI_POWER+0x7e>
			case 0:{
				/* Power Off */
				if(boGetConnected()==true){
    2ad8:	0e 94 34 1e 	call	0x3c68	; 0x3c68 <boGetConnected>
    2adc:	88 23       	and	r24, r24
    2ade:	51 f1       	breq	.+84     	; 0x2b34 <voCMDI_POWER+0x90>
					FILE* USBSTREAM = GetUSBStream();
    2ae0:	0e 94 3a 1e 	call	0x3c74	; 0x3c74 <GetUSBStream>
					fprintf(USBSTREAM,"OK:POWERDOWN\n\r");
    2ae4:	bc 01       	movw	r22, r24
    2ae6:	83 e7       	ldi	r24, 0x73	; 115
    2ae8:	92 e0       	ldi	r25, 0x02	; 2
    2aea:	0e 94 3e 26 	call	0x4c7c	; 0x4c7c <fputs>
					voCoffeeFSM_SetPower(false);
    2aee:	80 e0       	ldi	r24, 0x00	; 0
    2af0:	0c c0       	rjmp	.+24     	; 0x2b0a <voCMDI_POWER+0x66>
				}
			} break;
					
			case 1:{
				/* Power On */
				if(boGetConnected()==true){
    2af2:	0e 94 34 1e 	call	0x3c68	; 0x3c68 <boGetConnected>
    2af6:	88 23       	and	r24, r24
    2af8:	e9 f0       	breq	.+58     	; 0x2b34 <voCMDI_POWER+0x90>
					FILE* USBSTREAM = GetUSBStream();
    2afa:	0e 94 3a 1e 	call	0x3c74	; 0x3c74 <GetUSBStream>
					fprintf(USBSTREAM,"OK:POWERON\n\r");
    2afe:	bc 01       	movw	r22, r24
    2b00:	82 e8       	ldi	r24, 0x82	; 130
    2b02:	92 e0       	ldi	r25, 0x02	; 2
    2b04:	0e 94 3e 26 	call	0x4c7c	; 0x4c7c <fputs>
					voCoffeeFSM_SetPower(true);
    2b08:	81 e0       	ldi	r24, 0x01	; 1
		}//End Switch
	} else if(COMMAND.DIR==CMDI_HELP) {
		voResponseParamErr();
	}
	return;		
    2b0a:	26 96       	adiw	r28, 0x06	; 6
    2b0c:	0f b6       	in	r0, 0x3f	; 63
    2b0e:	f8 94       	cli
    2b10:	de bf       	out	0x3e, r29	; 62
    2b12:	0f be       	out	0x3f, r0	; 63
    2b14:	cd bf       	out	0x3d, r28	; 61
    2b16:	df 91       	pop	r29
    2b18:	cf 91       	pop	r28
			case 1:{
				/* Power On */
				if(boGetConnected()==true){
					FILE* USBSTREAM = GetUSBStream();
					fprintf(USBSTREAM,"OK:POWERON\n\r");
					voCoffeeFSM_SetPower(true);
    2b1a:	0c 94 82 0b 	jmp	0x1704	; 0x1704 <voCoffeeFSM_SetPower>
					
			default:{
				voResponseParamErr();
			} break;
		}//End Switch
	} else if(COMMAND.DIR==CMDI_HELP) {
    2b1e:	43 30       	cpi	r20, 0x03	; 3
    2b20:	49 f4       	brne	.+18     	; 0x2b34 <voCMDI_POWER+0x90>
		voResponseParamErr();
	}
	return;		
    2b22:	26 96       	adiw	r28, 0x06	; 6
    2b24:	0f b6       	in	r0, 0x3f	; 63
    2b26:	f8 94       	cli
    2b28:	de bf       	out	0x3e, r29	; 62
    2b2a:	0f be       	out	0x3f, r0	; 63
    2b2c:	cd bf       	out	0x3d, r28	; 61
    2b2e:	df 91       	pop	r29
    2b30:	cf 91       	pop	r28
			default:{
				voResponseParamErr();
			} break;
		}//End Switch
	} else if(COMMAND.DIR==CMDI_HELP) {
		voResponseParamErr();
    2b32:	08 c3       	rjmp	.+1552   	; 0x3144 <voResponseParamErr>
	}
	return;		
    2b34:	26 96       	adiw	r28, 0x06	; 6
    2b36:	0f b6       	in	r0, 0x3f	; 63
    2b38:	f8 94       	cli
    2b3a:	de bf       	out	0x3e, r29	; 62
    2b3c:	0f be       	out	0x3f, r0	; 63
    2b3e:	cd bf       	out	0x3d, r28	; 61
    2b40:	df 91       	pop	r29
    2b42:	cf 91       	pop	r28
    2b44:	08 95       	ret

00002b46 <voCMDI_PREWATER>:
#include "../../eepromFileSystem/eepromFileSystem.h"
#include "COMMON_VALUE_STORE.h"
#include "PARSE_RESPONSE.h"
#include "CMDI_PREWATER.h"

void voCMDI_PREWATER(CMDI_CMD_DATA_t COMMAND){
    2b46:	ff 92       	push	r15
    2b48:	0f 93       	push	r16
    2b4a:	1f 93       	push	r17
    2b4c:	cf 93       	push	r28
    2b4e:	df 93       	push	r29
    2b50:	00 d0       	rcall	.+0      	; 0x2b52 <voCMDI_PREWATER+0xc>
    2b52:	00 d0       	rcall	.+0      	; 0x2b54 <voCMDI_PREWATER+0xe>
    2b54:	00 d0       	rcall	.+0      	; 0x2b56 <voCMDI_PREWATER+0x10>
    2b56:	cd b7       	in	r28, 0x3d	; 61
    2b58:	de b7       	in	r29, 0x3e	; 62
    2b5a:	6b 83       	std	Y+3, r22	; 0x03
    2b5c:	7c 83       	std	Y+4, r23	; 0x04
    2b5e:	8d 83       	std	Y+5, r24	; 0x05
    2b60:	9e 83       	std	Y+6, r25	; 0x06
	/* Change PreWater Time */
	if(COMMAND.DIR==CMDI_SET){
    2b62:	41 11       	cpse	r20, r1
    2b64:	13 c0       	rjmp	.+38     	; 0x2b8c <voCMDI_PREWATER+0x46>
		uint8_t u8ProgToChange = u8GetProgToChange();
    2b66:	e8 d2       	rcall	.+1488   	; 0x3138 <u8GetProgToChange>
		boEEFS_UpdateUserProgramm(u8ProgToChange,USRPRG_PREWATERLEVEL,COMMAND.u32CmdValue);
    2b68:	2b 81       	ldd	r18, Y+3	; 0x03
    2b6a:	3c 81       	ldd	r19, Y+4	; 0x04
    2b6c:	4d 81       	ldd	r20, Y+5	; 0x05
    2b6e:	5e 81       	ldd	r21, Y+6	; 0x06
    2b70:	62 e0       	ldi	r22, 0x02	; 2
    2b72:	7c d5       	rcall	.+2808   	; 0x366c <boEEFS_UpdateUserProgramm>
		}
	} else {
		voResponseParserErr();
	}
	return;
    2b74:	26 96       	adiw	r28, 0x06	; 6
    2b76:	0f b6       	in	r0, 0x3f	; 63
    2b78:	f8 94       	cli
    2b7a:	de bf       	out	0x3e, r29	; 62
    2b7c:	0f be       	out	0x3f, r0	; 63
    2b7e:	cd bf       	out	0x3d, r28	; 61
    2b80:	df 91       	pop	r29
    2b82:	cf 91       	pop	r28
    2b84:	1f 91       	pop	r17
    2b86:	0f 91       	pop	r16
void voCMDI_PREWATER(CMDI_CMD_DATA_t COMMAND){
	/* Change PreWater Time */
	if(COMMAND.DIR==CMDI_SET){
		uint8_t u8ProgToChange = u8GetProgToChange();
		boEEFS_UpdateUserProgramm(u8ProgToChange,USRPRG_PREWATERLEVEL,COMMAND.u32CmdValue);
		voResponseOk();
    2b88:	ff 90       	pop	r15
    2b8a:	fe c2       	rjmp	.+1532   	; 0x3188 <voResponseOk>
	} else if(COMMAND.DIR==CMDI_GET) {
    2b8c:	41 30       	cpi	r20, 0x01	; 1
    2b8e:	01 f5       	brne	.+64     	; 0x2bd0 <voCMDI_PREWATER+0x8a>
		if(boGetConnected()==true){
    2b90:	0e 94 34 1e 	call	0x3c68	; 0x3c68 <boGetConnected>
    2b94:	88 23       	and	r24, r24
    2b96:	09 f4       	brne	.+2      	; 0x2b9a <voCMDI_PREWATER+0x54>
			uint8_t u8ProgToChange = u8GetProgToChange();
    2b98:	3c c0       	rjmp	.+120    	; 0x2c12 <voCMDI_PREWATER+0xcc>
    2b9a:	ce d2       	rcall	.+1436   	; 0x3138 <u8GetProgToChange>
    2b9c:	f8 2e       	mov	r15, r24
			FILE* USBSTREAM = GetUSBStream();
    2b9e:	0e 94 3a 1e 	call	0x3c74	; 0x3c74 <GetUSBStream>
    2ba2:	18 2f       	mov	r17, r24
			fprintf(USBSTREAM,"OK:%ld\n\r",boEEFS_ReadUserProgrammParam(u8ProgToChange,USRPRG_PREWATERLEVEL));
    2ba4:	09 2f       	mov	r16, r25
    2ba6:	62 e0       	ldi	r22, 0x02	; 2
    2ba8:	8f 2d       	mov	r24, r15
    2baa:	b7 d5       	rcall	.+2926   	; 0x371a <boEEFS_ReadUserProgrammParam>
    2bac:	9f 93       	push	r25
    2bae:	8f 93       	push	r24
    2bb0:	7f 93       	push	r23
    2bb2:	6f 93       	push	r22
    2bb4:	8f e8       	ldi	r24, 0x8F	; 143
    2bb6:	92 e0       	ldi	r25, 0x02	; 2
    2bb8:	9f 93       	push	r25
    2bba:	8f 93       	push	r24
    2bbc:	0f 93       	push	r16
    2bbe:	1f 93       	push	r17
    2bc0:	0e 94 17 26 	call	0x4c2e	; 0x4c2e <fprintf>
    2bc4:	0f b6       	in	r0, 0x3f	; 63
    2bc6:	f8 94       	cli
    2bc8:	de bf       	out	0x3e, r29	; 62
    2bca:	0f be       	out	0x3f, r0	; 63
    2bcc:	cd bf       	out	0x3d, r28	; 61
    2bce:	21 c0       	rjmp	.+66     	; 0x2c12 <voCMDI_PREWATER+0xcc>
		}
	} else if(COMMAND.DIR == CMDI_HELP){
    2bd0:	43 30       	cpi	r20, 0x03	; 3
    2bd2:	99 f4       	brne	.+38     	; 0x2bfa <voCMDI_PREWATER+0xb4>
		/* Print Help Text here */
		if(boGetConnected()==true){
    2bd4:	0e 94 34 1e 	call	0x3c68	; 0x3c68 <boGetConnected>
    2bd8:	88 23       	and	r24, r24
    2bda:	d9 f0       	breq	.+54     	; 0x2c12 <voCMDI_PREWATER+0xcc>
			FILE* USBSTREAM = GetUSBStream();
    2bdc:	0e 94 3a 1e 	call	0x3c74	; 0x3c74 <GetUSBStream>
			fprintf_P(USBSTREAM,PSTR("USAGE: 'GET PRWA' or 'SET PRWA XXXX' with range of 0 to 65535\n\r"));
    2be0:	29 ed       	ldi	r18, 0xD9	; 217
    2be2:	36 e0       	ldi	r19, 0x06	; 6
    2be4:	3f 93       	push	r19
    2be6:	2f 93       	push	r18
    2be8:	9f 93       	push	r25
    2bea:	8f 93       	push	r24
    2bec:	0e 94 26 26 	call	0x4c4c	; 0x4c4c <fprintf_P>
    2bf0:	0f 90       	pop	r0
    2bf2:	0f 90       	pop	r0
    2bf4:	0f 90       	pop	r0
    2bf6:	0f 90       	pop	r0
    2bf8:	0c c0       	rjmp	.+24     	; 0x2c12 <voCMDI_PREWATER+0xcc>
		}
	} else {
		voResponseParserErr();
	}
	return;
    2bfa:	26 96       	adiw	r28, 0x06	; 6
    2bfc:	0f b6       	in	r0, 0x3f	; 63
    2bfe:	f8 94       	cli
    2c00:	de bf       	out	0x3e, r29	; 62
    2c02:	0f be       	out	0x3f, r0	; 63
    2c04:	cd bf       	out	0x3d, r28	; 61
    2c06:	df 91       	pop	r29
    2c08:	cf 91       	pop	r28
    2c0a:	1f 91       	pop	r17
    2c0c:	0f 91       	pop	r16
		if(boGetConnected()==true){
			FILE* USBSTREAM = GetUSBStream();
			fprintf_P(USBSTREAM,PSTR("USAGE: 'GET PRWA' or 'SET PRWA XXXX' with range of 0 to 65535\n\r"));
		}
	} else {
		voResponseParserErr();
    2c0e:	ff 90       	pop	r15
    2c10:	aa c2       	rjmp	.+1364   	; 0x3166 <voResponseParserErr>
	}
	return;
    2c12:	26 96       	adiw	r28, 0x06	; 6
    2c14:	0f b6       	in	r0, 0x3f	; 63
    2c16:	f8 94       	cli
    2c18:	de bf       	out	0x3e, r29	; 62
    2c1a:	0f be       	out	0x3f, r0	; 63
    2c1c:	cd bf       	out	0x3d, r28	; 61
    2c1e:	df 91       	pop	r29
    2c20:	cf 91       	pop	r28
    2c22:	1f 91       	pop	r17
    2c24:	0f 91       	pop	r16
    2c26:	ff 90       	pop	r15
    2c28:	08 95       	ret

00002c2a <voCMDI_PRG>:
#include "PARSE_RESPONSE.h"
#include "CMDI_TEMP.h"



void voCMDI_PRG( CMDI_CMD_DATA_t COMMAND ){
    2c2a:	0f 93       	push	r16
    2c2c:	1f 93       	push	r17
    2c2e:	cf 93       	push	r28
    2c30:	df 93       	push	r29
    2c32:	00 d0       	rcall	.+0      	; 0x2c34 <voCMDI_PRG+0xa>
    2c34:	00 d0       	rcall	.+0      	; 0x2c36 <voCMDI_PRG+0xc>
    2c36:	00 d0       	rcall	.+0      	; 0x2c38 <voCMDI_PRG+0xe>
    2c38:	cd b7       	in	r28, 0x3d	; 61
    2c3a:	de b7       	in	r29, 0x3e	; 62
    2c3c:	6b 83       	std	Y+3, r22	; 0x03
		/* Change PRG to Load */
		if(COMMAND.DIR==CMDI_SET){
    2c3e:	41 11       	cpse	r20, r1
    2c40:	1b c0       	rjmp	.+54     	; 0x2c78 <voCMDI_PRG+0x4e>
			
			if(boCoffeeFSM_LoadProgramm(COMMAND.u32CmdValue)==true){
    2c42:	86 2f       	mov	r24, r22
    2c44:	0e 94 07 0b 	call	0x160e	; 0x160e <boCoffeeFSM_LoadProgramm>
    2c48:	88 23       	and	r24, r24
    2c4a:	59 f0       	breq	.+22     	; 0x2c62 <voCMDI_PRG+0x38>
			}
		} else {
			voResponseParserErr();
		}
	return;
    2c4c:	26 96       	adiw	r28, 0x06	; 6
    2c4e:	0f b6       	in	r0, 0x3f	; 63
    2c50:	f8 94       	cli
    2c52:	de bf       	out	0x3e, r29	; 62
    2c54:	0f be       	out	0x3f, r0	; 63
    2c56:	cd bf       	out	0x3d, r28	; 61
    2c58:	df 91       	pop	r29
    2c5a:	cf 91       	pop	r28
    2c5c:	1f 91       	pop	r17
    2c5e:	0f 91       	pop	r16
void voCMDI_PRG( CMDI_CMD_DATA_t COMMAND ){
		/* Change PRG to Load */
		if(COMMAND.DIR==CMDI_SET){
			
			if(boCoffeeFSM_LoadProgramm(COMMAND.u32CmdValue)==true){
				voResponseOk();
    2c60:	93 c2       	rjmp	.+1318   	; 0x3188 <voResponseOk>
			}
		} else {
			voResponseParserErr();
		}
	return;
    2c62:	26 96       	adiw	r28, 0x06	; 6
    2c64:	0f b6       	in	r0, 0x3f	; 63
    2c66:	f8 94       	cli
    2c68:	de bf       	out	0x3e, r29	; 62
    2c6a:	0f be       	out	0x3f, r0	; 63
    2c6c:	cd bf       	out	0x3d, r28	; 61
    2c6e:	df 91       	pop	r29
    2c70:	cf 91       	pop	r28
    2c72:	1f 91       	pop	r17
		if(COMMAND.DIR==CMDI_SET){
			
			if(boCoffeeFSM_LoadProgramm(COMMAND.u32CmdValue)==true){
				voResponseOk();
			} else {
				voResponseParamErr();
    2c74:	0f 91       	pop	r16
    2c76:	66 c2       	rjmp	.+1228   	; 0x3144 <voResponseParamErr>
			}
		} else if (COMMAND.DIR==CMDI_GET){
    2c78:	41 30       	cpi	r20, 0x01	; 1
			/* We shall return the curren Programm */
			if(boGetConnected()==true){
    2c7a:	c9 f4       	brne	.+50     	; 0x2cae <voCMDI_PRG+0x84>
    2c7c:	f5 d7       	rcall	.+4074   	; 0x3c68 <boGetConnected>
    2c7e:	88 23       	and	r24, r24
				FILE* USBSTREAM = GetUSBStream();
    2c80:	a1 f1       	breq	.+104    	; 0x2cea <voCMDI_PRG+0xc0>
    2c82:	f8 d7       	rcall	.+4080   	; 0x3c74 <GetUSBStream>
    2c84:	18 2f       	mov	r17, r24
    2c86:	09 2f       	mov	r16, r25
				fprintf_P(USBSTREAM,PSTR("OK:%i\n\r"),u8GetCurrenProgrammIdx());
    2c88:	0e 94 3c 0b 	call	0x1678	; 0x1678 <u8GetCurrenProgrammIdx>
    2c8c:	1f 92       	push	r1
    2c8e:	8f 93       	push	r24
    2c90:	83 e5       	ldi	r24, 0x53	; 83
    2c92:	97 e0       	ldi	r25, 0x07	; 7
    2c94:	9f 93       	push	r25
    2c96:	8f 93       	push	r24
    2c98:	0f 93       	push	r16
    2c9a:	1f 93       	push	r17
    2c9c:	0e 94 26 26 	call	0x4c4c	; 0x4c4c <fprintf_P>
    2ca0:	0f 90       	pop	r0
    2ca2:	0f 90       	pop	r0
    2ca4:	0f 90       	pop	r0
    2ca6:	0f 90       	pop	r0
    2ca8:	0f 90       	pop	r0
    2caa:	0f 90       	pop	r0
			}
			
		} else if(COMMAND.DIR == CMDI_HELP){
    2cac:	1e c0       	rjmp	.+60     	; 0x2cea <voCMDI_PRG+0xc0>
			/* Print Help Text here */
			if(boGetConnected()==true){
    2cae:	43 30       	cpi	r20, 0x03	; 3
    2cb0:	89 f4       	brne	.+34     	; 0x2cd4 <voCMDI_PRG+0xaa>
    2cb2:	da d7       	rcall	.+4020   	; 0x3c68 <boGetConnected>
    2cb4:	88 23       	and	r24, r24
				FILE* USBSTREAM = GetUSBStream();
    2cb6:	c9 f0       	breq	.+50     	; 0x2cea <voCMDI_PRG+0xc0>
    2cb8:	dd d7       	rcall	.+4026   	; 0x3c74 <GetUSBStream>
				fprintf_P(USBSTREAM,PSTR("USAGE: 'GET PRG' or 'SET PRG XXXX' with range of 0 to 7\n\r"));
    2cba:	29 e1       	ldi	r18, 0x19	; 25
    2cbc:	37 e0       	ldi	r19, 0x07	; 7
    2cbe:	3f 93       	push	r19
    2cc0:	2f 93       	push	r18
    2cc2:	9f 93       	push	r25
    2cc4:	8f 93       	push	r24
    2cc6:	0e 94 26 26 	call	0x4c4c	; 0x4c4c <fprintf_P>
    2cca:	0f 90       	pop	r0
    2ccc:	0f 90       	pop	r0
    2cce:	0f 90       	pop	r0
    2cd0:	0f 90       	pop	r0
    2cd2:	0b c0       	rjmp	.+22     	; 0x2cea <voCMDI_PRG+0xc0>
			}
		} else {
			voResponseParserErr();
		}
	return;
    2cd4:	26 96       	adiw	r28, 0x06	; 6
    2cd6:	0f b6       	in	r0, 0x3f	; 63
    2cd8:	f8 94       	cli
    2cda:	de bf       	out	0x3e, r29	; 62
    2cdc:	0f be       	out	0x3f, r0	; 63
    2cde:	cd bf       	out	0x3d, r28	; 61
    2ce0:	df 91       	pop	r29
    2ce2:	cf 91       	pop	r28
    2ce4:	1f 91       	pop	r17
			if(boGetConnected()==true){
				FILE* USBSTREAM = GetUSBStream();
				fprintf_P(USBSTREAM,PSTR("USAGE: 'GET PRG' or 'SET PRG XXXX' with range of 0 to 7\n\r"));
			}
		} else {
			voResponseParserErr();
    2ce6:	0f 91       	pop	r16
    2ce8:	3e c2       	rjmp	.+1148   	; 0x3166 <voResponseParserErr>
		}
	return;
    2cea:	26 96       	adiw	r28, 0x06	; 6
    2cec:	0f b6       	in	r0, 0x3f	; 63
    2cee:	f8 94       	cli
    2cf0:	de bf       	out	0x3e, r29	; 62
    2cf2:	0f be       	out	0x3f, r0	; 63
    2cf4:	cd bf       	out	0x3d, r28	; 61
    2cf6:	df 91       	pop	r29
    2cf8:	cf 91       	pop	r28
    2cfa:	1f 91       	pop	r17
    2cfc:	0f 91       	pop	r16
    2cfe:	08 95       	ret

00002d00 <voCMDI_STBY_TEMP>:
#include "../../coffee_fsm/coffee_fsm.h"
#include "PARSE_RESPONSE.h"
#include "CMDI_STBY_TEMP.h"


void voCMDI_STBY_TEMP(CMDI_CMD_DATA_t COMMAND){
    2d00:	0f 93       	push	r16
    2d02:	1f 93       	push	r17
    2d04:	cf 93       	push	r28
    2d06:	df 93       	push	r29
    2d08:	00 d0       	rcall	.+0      	; 0x2d0a <voCMDI_STBY_TEMP+0xa>
    2d0a:	00 d0       	rcall	.+0      	; 0x2d0c <voCMDI_STBY_TEMP+0xc>
    2d0c:	00 d0       	rcall	.+0      	; 0x2d0e <voCMDI_STBY_TEMP+0xe>
    2d0e:	cd b7       	in	r28, 0x3d	; 61
    2d10:	de b7       	in	r29, 0x3e	; 62
    2d12:	6b 83       	std	Y+3, r22	; 0x03
    2d14:	7c 83       	std	Y+4, r23	; 0x04
	
		if(COMMAND.DIR==CMDI_GET){
    2d16:	41 30       	cpi	r20, 0x01	; 1
    2d18:	d1 f4       	brne	.+52     	; 0x2d4e <voCMDI_STBY_TEMP+0x4e>
			if(boGetConnected()==true){
    2d1a:	a6 d7       	rcall	.+3916   	; 0x3c68 <boGetConnected>
    2d1c:	88 23       	and	r24, r24
    2d1e:	09 f4       	brne	.+2      	; 0x2d22 <voCMDI_STBY_TEMP+0x22>
    2d20:	45 c0       	rjmp	.+138    	; 0x2dac <voCMDI_STBY_TEMP+0xac>
				FILE* USBSTREAM = GetUSBStream();
    2d22:	a8 d7       	rcall	.+3920   	; 0x3c74 <GetUSBStream>
    2d24:	18 2f       	mov	r17, r24
    2d26:	09 2f       	mov	r16, r25
    2d28:	0e 94 f1 0a 	call	0x15e2	; 0x15e2 <u16GetStandbyTemp>
				fprintf(USBSTREAM,"OK:%i\n\r", u16GetStandbyTemp());
    2d2c:	9f 93       	push	r25
    2d2e:	8f 93       	push	r24
    2d30:	82 e4       	ldi	r24, 0x42	; 66
    2d32:	91 e0       	ldi	r25, 0x01	; 1
    2d34:	9f 93       	push	r25
    2d36:	8f 93       	push	r24
    2d38:	0f 93       	push	r16
    2d3a:	1f 93       	push	r17
    2d3c:	0e 94 17 26 	call	0x4c2e	; 0x4c2e <fprintf>
    2d40:	0f 90       	pop	r0
    2d42:	0f 90       	pop	r0
    2d44:	0f 90       	pop	r0
    2d46:	0f 90       	pop	r0
    2d48:	0f 90       	pop	r0
    2d4a:	0f 90       	pop	r0
    2d4c:	2f c0       	rjmp	.+94     	; 0x2dac <voCMDI_STBY_TEMP+0xac>
    2d4e:	41 11       	cpse	r20, r1
			}
		} else if(COMMAND.DIR==CMDI_SET) {
    2d50:	0f c0       	rjmp	.+30     	; 0x2d70 <voCMDI_STBY_TEMP+0x70>
    2d52:	8b 81       	ldd	r24, Y+3	; 0x03
			voSetStandbyTemp((uint16_t)COMMAND.u32CmdValue);
    2d54:	9c 81       	ldd	r25, Y+4	; 0x04
    2d56:	0e 94 f6 0a 	call	0x15ec	; 0x15ec <voSetStandbyTemp>
    2d5a:	26 96       	adiw	r28, 0x06	; 6
			}
		} else {
			voResponseParserErr();
		}
	return;
    2d5c:	0f b6       	in	r0, 0x3f	; 63
    2d5e:	f8 94       	cli
    2d60:	de bf       	out	0x3e, r29	; 62
    2d62:	0f be       	out	0x3f, r0	; 63
    2d64:	cd bf       	out	0x3d, r28	; 61
    2d66:	df 91       	pop	r29
    2d68:	cf 91       	pop	r28
    2d6a:	1f 91       	pop	r17
    2d6c:	0f 91       	pop	r16
				FILE* USBSTREAM = GetUSBStream();
				fprintf(USBSTREAM,"OK:%i\n\r", u16GetStandbyTemp());
			}
		} else if(COMMAND.DIR==CMDI_SET) {
			voSetStandbyTemp((uint16_t)COMMAND.u32CmdValue);
			voResponseOk();
    2d6e:	0c c2       	rjmp	.+1048   	; 0x3188 <voResponseOk>
		} else if(COMMAND.DIR == CMDI_HELP){
    2d70:	43 30       	cpi	r20, 0x03	; 3
    2d72:	89 f4       	brne	.+34     	; 0x2d96 <voCMDI_STBY_TEMP+0x96>
			/* Print Help Text here */
			if(boGetConnected()==true){
    2d74:	79 d7       	rcall	.+3826   	; 0x3c68 <boGetConnected>
    2d76:	88 23       	and	r24, r24
    2d78:	c9 f0       	breq	.+50     	; 0x2dac <voCMDI_STBY_TEMP+0xac>
				FILE* USBSTREAM = GetUSBStream();
    2d7a:	7c d7       	rcall	.+3832   	; 0x3c74 <GetUSBStream>
    2d7c:	2b e5       	ldi	r18, 0x5B	; 91
				fprintf_P(USBSTREAM,PSTR("USAGE: 'GET STBYTMP', 'SET STBYTMP XXXX\n\r"));
    2d7e:	37 e0       	ldi	r19, 0x07	; 7
    2d80:	3f 93       	push	r19
    2d82:	2f 93       	push	r18
    2d84:	9f 93       	push	r25
    2d86:	8f 93       	push	r24
    2d88:	0e 94 26 26 	call	0x4c4c	; 0x4c4c <fprintf_P>
    2d8c:	0f 90       	pop	r0
    2d8e:	0f 90       	pop	r0
    2d90:	0f 90       	pop	r0
    2d92:	0f 90       	pop	r0
    2d94:	0b c0       	rjmp	.+22     	; 0x2dac <voCMDI_STBY_TEMP+0xac>
    2d96:	26 96       	adiw	r28, 0x06	; 6
			}
		} else {
			voResponseParserErr();
		}
	return;
    2d98:	0f b6       	in	r0, 0x3f	; 63
    2d9a:	f8 94       	cli
    2d9c:	de bf       	out	0x3e, r29	; 62
    2d9e:	0f be       	out	0x3f, r0	; 63
    2da0:	cd bf       	out	0x3d, r28	; 61
    2da2:	df 91       	pop	r29
    2da4:	cf 91       	pop	r28
    2da6:	1f 91       	pop	r17
    2da8:	0f 91       	pop	r16
			if(boGetConnected()==true){
				FILE* USBSTREAM = GetUSBStream();
				fprintf_P(USBSTREAM,PSTR("USAGE: 'GET STBYTMP', 'SET STBYTMP XXXX\n\r"));
			}
		} else {
			voResponseParserErr();
    2daa:	dd c1       	rjmp	.+954    	; 0x3166 <voResponseParserErr>
    2dac:	26 96       	adiw	r28, 0x06	; 6
		}
	return;
    2dae:	0f b6       	in	r0, 0x3f	; 63
    2db0:	f8 94       	cli
    2db2:	de bf       	out	0x3e, r29	; 62
    2db4:	0f be       	out	0x3f, r0	; 63
    2db6:	cd bf       	out	0x3d, r28	; 61
    2db8:	df 91       	pop	r29
    2dba:	cf 91       	pop	r28
    2dbc:	1f 91       	pop	r17
    2dbe:	0f 91       	pop	r16
    2dc0:	08 95       	ret

00002dc2 <voCMDI_SYS_HELP>:
    2dc2:	cf 93       	push	r28
#include "stdbool.h"
#include "../../services/usb_cdc_helper/usb_cdc_helper.h"
#include "CMDI_SYS_HELP.h"
#include "PARSE_RESPONSE.h"

void voCMDI_SYS_HELP( CMDI_CMD_DATA_t COMMAND ){
    2dc4:	df 93       	push	r29
    2dc6:	00 d0       	rcall	.+0      	; 0x2dc8 <voCMDI_SYS_HELP+0x6>
    2dc8:	00 d0       	rcall	.+0      	; 0x2dca <voCMDI_SYS_HELP+0x8>
    2dca:	00 d0       	rcall	.+0      	; 0x2dcc <voCMDI_SYS_HELP+0xa>
    2dcc:	cd b7       	in	r28, 0x3d	; 61
    2dce:	de b7       	in	r29, 0x3e	; 62
    2dd0:	49 83       	std	Y+1, r20	; 0x01
    2dd2:	5a 83       	std	Y+2, r21	; 0x02
    2dd4:	6b 83       	std	Y+3, r22	; 0x03
    2dd6:	7c 83       	std	Y+4, r23	; 0x04
    2dd8:	8d 83       	std	Y+5, r24	; 0x05
    2dda:	9e 83       	std	Y+6, r25	; 0x06
	static volatile uint8_t u8BottelsOfBeer=99;
	if(COMMAND.DIR==CMDI_HELP){
    2ddc:	43 30       	cpi	r20, 0x03	; 3
    2dde:	71 f4       	brne	.+28     	; 0x2dfc <voCMDI_SYS_HELP+0x3a>
		/* We print Out the Help here */
		if(boGetConnected()==true){
    2de0:	43 d7       	rcall	.+3718   	; 0x3c68 <boGetConnected>
    2de2:	88 23       	and	r24, r24
    2de4:	09 f4       	brne	.+2      	; 0x2de8 <voCMDI_SYS_HELP+0x26>
    2de6:	55 c0       	rjmp	.+170    	; 0x2e92 <voCMDI_SYS_HELP+0xd0>
			FILE* USBSTREAM = GetUSBStream();
    2de8:	45 d7       	rcall	.+3722   	; 0x3c74 <GetUSBStream>
    2dea:	26 e9       	ldi	r18, 0x96	; 150
			fprintf_P(USBSTREAM,PSTR(	"SenseHaJo - Help\n\r"
    2dec:	38 e0       	ldi	r19, 0x08	; 8
    2dee:	3f 93       	push	r19
    2df0:	2f 93       	push	r18
    2df2:	9f 93       	push	r25
    2df4:	8f 93       	push	r24
    2df6:	0e 94 26 26 	call	0x4c4c	; 0x4c4c <fprintf_P>
    2dfa:	3d c0       	rjmp	.+122    	; 0x2e76 <voCMDI_SYS_HELP+0xb4>
    2dfc:	44 30       	cpi	r20, 0x04	; 4
			"After changes to the Program reload with CHPRG"
			"For more Help type HELP <COMMAND>\n\r"
			"-------------------------------------------------------------------------------------------\n\r"
			));
		}
	} else if(COMMAND.DIR==CMDI_BEER){
    2dfe:	09 f0       	breq	.+2      	; 0x2e02 <voCMDI_SYS_HELP+0x40>
    2e00:	3f c0       	rjmp	.+126    	; 0x2e80 <voCMDI_SYS_HELP+0xbe>
    2e02:	80 91 00 01 	lds	r24, 0x0100	; 0x800100 <__data_start>
		if(u8BottelsOfBeer>0){
    2e06:	88 23       	and	r24, r24
    2e08:	39 f1       	breq	.+78     	; 0x2e58 <voCMDI_SYS_HELP+0x96>
			if(boGetConnected()==true){
    2e0a:	2e d7       	rcall	.+3676   	; 0x3c68 <boGetConnected>
    2e0c:	88 23       	and	r24, r24
    2e0e:	09 f4       	brne	.+2      	; 0x2e12 <voCMDI_SYS_HELP+0x50>
    2e10:	40 c0       	rjmp	.+128    	; 0x2e92 <voCMDI_SYS_HELP+0xd0>
				FILE* USBSTREAM = GetUSBStream();
    2e12:	30 d7       	rcall	.+3680   	; 0x3c74 <GetUSBStream>
    2e14:	20 91 00 01 	lds	r18, 0x0100	; 0x800100 <__data_start>
				fprintf_P(USBSTREAM,PSTR("%i Bottle(s) of beer on the wall, %i bottle(s) of beer\n\r"
    2e18:	50 91 00 01 	lds	r21, 0x0100	; 0x800100 <__data_start>
    2e1c:	40 91 00 01 	lds	r20, 0x0100	; 0x800100 <__data_start>
    2e20:	30 e0       	ldi	r19, 0x00	; 0
    2e22:	21 50       	subi	r18, 0x01	; 1
    2e24:	31 09       	sbc	r19, r1
    2e26:	3f 93       	push	r19
    2e28:	2f 93       	push	r18
    2e2a:	1f 92       	push	r1
    2e2c:	5f 93       	push	r21
    2e2e:	1f 92       	push	r1
    2e30:	4f 93       	push	r20
    2e32:	28 e1       	ldi	r18, 0x18	; 24
    2e34:	38 e0       	ldi	r19, 0x08	; 8
    2e36:	3f 93       	push	r19
    2e38:	2f 93       	push	r18
    2e3a:	9f 93       	push	r25
    2e3c:	8f 93       	push	r24
    2e3e:	0e 94 26 26 	call	0x4c4c	; 0x4c4c <fprintf_P>
    2e42:	80 91 00 01 	lds	r24, 0x0100	; 0x800100 <__data_start>
				"Take one down and pass it around,\n\r"
				"%i bottle(s) of beer on the wall\n\r"),u8BottelsOfBeer,u8BottelsOfBeer,u8BottelsOfBeer-1);
				u8BottelsOfBeer--;	
    2e46:	81 50       	subi	r24, 0x01	; 1
    2e48:	80 93 00 01 	sts	0x0100, r24	; 0x800100 <__data_start>
    2e4c:	0f b6       	in	r0, 0x3f	; 63
    2e4e:	f8 94       	cli
    2e50:	de bf       	out	0x3e, r29	; 62
    2e52:	0f be       	out	0x3f, r0	; 63
    2e54:	cd bf       	out	0x3d, r28	; 61
    2e56:	1d c0       	rjmp	.+58     	; 0x2e92 <voCMDI_SYS_HELP+0xd0>
			}
		} else { /* Bottels are empty */
			if(boGetConnected()==true){
    2e58:	07 d7       	rcall	.+3598   	; 0x3c68 <boGetConnected>
    2e5a:	88 23       	and	r24, r24
    2e5c:	d1 f0       	breq	.+52     	; 0x2e92 <voCMDI_SYS_HELP+0xd0>
    2e5e:	0a d7       	rcall	.+3604   	; 0x3c74 <GetUSBStream>
				FILE* USBSTREAM = GetUSBStream();
    2e60:	25 e8       	ldi	r18, 0x85	; 133
    2e62:	37 e0       	ldi	r19, 0x07	; 7
				fprintf_P(USBSTREAM,PSTR("No (more) bottles of beer on the wall,\n\r"
    2e64:	3f 93       	push	r19
    2e66:	2f 93       	push	r18
    2e68:	9f 93       	push	r25
    2e6a:	8f 93       	push	r24
    2e6c:	0e 94 26 26 	call	0x4c4c	; 0x4c4c <fprintf_P>
    2e70:	83 e6       	ldi	r24, 0x63	; 99
    2e72:	80 93 00 01 	sts	0x0100, r24	; 0x800100 <__data_start>
				"No (more) bottles of beer.\n\r"
				"Go to the store and buy some more,\n\r"
				"Ninety-nine bottles of beer on the wall.\n\r")
				);
				u8BottelsOfBeer=99;			
    2e76:	0f 90       	pop	r0
    2e78:	0f 90       	pop	r0
    2e7a:	0f 90       	pop	r0
    2e7c:	0f 90       	pop	r0
    2e7e:	09 c0       	rjmp	.+18     	; 0x2e92 <voCMDI_SYS_HELP+0xd0>
    2e80:	26 96       	adiw	r28, 0x06	; 6
    2e82:	0f b6       	in	r0, 0x3f	; 63
		}
	} else {
		voResponseParserErr();
	}
	return;	
    2e84:	f8 94       	cli
    2e86:	de bf       	out	0x3e, r29	; 62
    2e88:	0f be       	out	0x3f, r0	; 63
    2e8a:	cd bf       	out	0x3d, r28	; 61
    2e8c:	df 91       	pop	r29
    2e8e:	cf 91       	pop	r28
    2e90:	6a c1       	rjmp	.+724    	; 0x3166 <voResponseParserErr>
				);
				u8BottelsOfBeer=99;			
			}
		}
	} else {
		voResponseParserErr();
    2e92:	26 96       	adiw	r28, 0x06	; 6
    2e94:	0f b6       	in	r0, 0x3f	; 63
	}
	return;	
    2e96:	f8 94       	cli
    2e98:	de bf       	out	0x3e, r29	; 62
    2e9a:	0f be       	out	0x3f, r0	; 63
    2e9c:	cd bf       	out	0x3d, r28	; 61
    2e9e:	df 91       	pop	r29
    2ea0:	cf 91       	pop	r28
    2ea2:	08 95       	ret

00002ea4 <voCMDI_TEMP>:
#include "../../eepromFileSystem/eepromFileSystem.h"
#include "COMMON_VALUE_STORE.h"
#include "PARSE_RESPONSE.h"
#include "CMDI_TEMP.h"

void voCMDI_TEMP( CMDI_CMD_DATA_t COMMAND ){
    2ea4:	ff 92       	push	r15
    2ea6:	0f 93       	push	r16
    2ea8:	1f 93       	push	r17
    2eaa:	cf 93       	push	r28
    2eac:	df 93       	push	r29
    2eae:	00 d0       	rcall	.+0      	; 0x2eb0 <voCMDI_TEMP+0xc>
    2eb0:	00 d0       	rcall	.+0      	; 0x2eb2 <voCMDI_TEMP+0xe>
    2eb2:	00 d0       	rcall	.+0      	; 0x2eb4 <voCMDI_TEMP+0x10>
    2eb4:	cd b7       	in	r28, 0x3d	; 61
    2eb6:	de b7       	in	r29, 0x3e	; 62
    2eb8:	6b 83       	std	Y+3, r22	; 0x03
    2eba:	7c 83       	std	Y+4, r23	; 0x04
    2ebc:	8d 83       	std	Y+5, r24	; 0x05
    2ebe:	9e 83       	std	Y+6, r25	; 0x06
	/* Change Temp */
	if(COMMAND.DIR==CMDI_SET){
    2ec0:	41 11       	cpse	r20, r1
    2ec2:	13 c0       	rjmp	.+38     	; 0x2eea <voCMDI_TEMP+0x46>
		uint8_t u8ProgToChange = u8GetProgToChange();
    2ec4:	39 d1       	rcall	.+626    	; 0x3138 <u8GetProgToChange>
		boEEFS_UpdateUserProgramm(u8ProgToChange,USRPRG_HEATERTEMP,COMMAND.u32CmdValue);
    2ec6:	2b 81       	ldd	r18, Y+3	; 0x03
    2ec8:	3c 81       	ldd	r19, Y+4	; 0x04
    2eca:	4d 81       	ldd	r20, Y+5	; 0x05
    2ecc:	5e 81       	ldd	r21, Y+6	; 0x06
    2ece:	60 e0       	ldi	r22, 0x00	; 0
    2ed0:	cd d3       	rcall	.+1946   	; 0x366c <boEEFS_UpdateUserProgramm>
	
	} else {
		voResponseParserErr();
	}
	return;
    2ed2:	26 96       	adiw	r28, 0x06	; 6
    2ed4:	0f b6       	in	r0, 0x3f	; 63
    2ed6:	f8 94       	cli
    2ed8:	de bf       	out	0x3e, r29	; 62
    2eda:	0f be       	out	0x3f, r0	; 63
    2edc:	cd bf       	out	0x3d, r28	; 61
    2ede:	df 91       	pop	r29
    2ee0:	cf 91       	pop	r28
    2ee2:	1f 91       	pop	r17
    2ee4:	0f 91       	pop	r16
void voCMDI_TEMP( CMDI_CMD_DATA_t COMMAND ){
	/* Change Temp */
	if(COMMAND.DIR==CMDI_SET){
		uint8_t u8ProgToChange = u8GetProgToChange();
		boEEFS_UpdateUserProgramm(u8ProgToChange,USRPRG_HEATERTEMP,COMMAND.u32CmdValue);
		voResponseOk();
    2ee6:	ff 90       	pop	r15
	} else if(COMMAND.DIR==CMDI_GET) {
    2ee8:	4f c1       	rjmp	.+670    	; 0x3188 <voResponseOk>
    2eea:	41 30       	cpi	r20, 0x01	; 1
		if(boGetConnected()==true){
    2eec:	f1 f4       	brne	.+60     	; 0x2f2a <voCMDI_TEMP+0x86>
    2eee:	bc d6       	rcall	.+3448   	; 0x3c68 <boGetConnected>
    2ef0:	88 23       	and	r24, r24
			uint8_t u8ProgToChange = u8GetProgToChange();
    2ef2:	09 f4       	brne	.+2      	; 0x2ef6 <voCMDI_TEMP+0x52>
    2ef4:	39 c0       	rjmp	.+114    	; 0x2f68 <voCMDI_TEMP+0xc4>
    2ef6:	20 d1       	rcall	.+576    	; 0x3138 <u8GetProgToChange>
			FILE* USBSTREAM = GetUSBStream();
    2ef8:	f8 2e       	mov	r15, r24
    2efa:	bc d6       	rcall	.+3448   	; 0x3c74 <GetUSBStream>
    2efc:	18 2f       	mov	r17, r24
			fprintf_P(USBSTREAM,PSTR("OK:%i\n\r"),boEEFS_ReadUserProgrammParam(u8ProgToChange,USRPRG_HEATERTEMP));
    2efe:	09 2f       	mov	r16, r25
    2f00:	60 e0       	ldi	r22, 0x00	; 0
    2f02:	8f 2d       	mov	r24, r15
    2f04:	0a d4       	rcall	.+2068   	; 0x371a <boEEFS_ReadUserProgrammParam>
    2f06:	9f 93       	push	r25
    2f08:	8f 93       	push	r24
    2f0a:	7f 93       	push	r23
    2f0c:	6f 93       	push	r22
    2f0e:	8f eb       	ldi	r24, 0xBF	; 191
    2f10:	9c e0       	ldi	r25, 0x0C	; 12
    2f12:	9f 93       	push	r25
    2f14:	8f 93       	push	r24
    2f16:	0f 93       	push	r16
    2f18:	1f 93       	push	r17
    2f1a:	0e 94 26 26 	call	0x4c4c	; 0x4c4c <fprintf_P>
    2f1e:	0f b6       	in	r0, 0x3f	; 63
    2f20:	f8 94       	cli
    2f22:	de bf       	out	0x3e, r29	; 62
    2f24:	0f be       	out	0x3f, r0	; 63
		}
	} else if(COMMAND.DIR == CMDI_HELP){
    2f26:	cd bf       	out	0x3d, r28	; 61
    2f28:	1f c0       	rjmp	.+62     	; 0x2f68 <voCMDI_TEMP+0xc4>
		/* Print Help Text here */
		if(boGetConnected()==true){
    2f2a:	43 30       	cpi	r20, 0x03	; 3
    2f2c:	89 f4       	brne	.+34     	; 0x2f50 <voCMDI_TEMP+0xac>
    2f2e:	9c d6       	rcall	.+3384   	; 0x3c68 <boGetConnected>
    2f30:	88 23       	and	r24, r24
			FILE* USBSTREAM = GetUSBStream();
    2f32:	d1 f0       	breq	.+52     	; 0x2f68 <voCMDI_TEMP+0xc4>
    2f34:	9f d6       	rcall	.+3390   	; 0x3c74 <GetUSBStream>
			fprintf_P(USBSTREAM,PSTR("USAGE: 'GET TEMP' or 'SET TEMP XXXX' with range of 0 to 9999\n\r"));
    2f36:	20 e8       	ldi	r18, 0x80	; 128
    2f38:	3c e0       	ldi	r19, 0x0C	; 12
    2f3a:	3f 93       	push	r19
    2f3c:	2f 93       	push	r18
    2f3e:	9f 93       	push	r25
    2f40:	8f 93       	push	r24
    2f42:	0e 94 26 26 	call	0x4c4c	; 0x4c4c <fprintf_P>
    2f46:	0f 90       	pop	r0
    2f48:	0f 90       	pop	r0
    2f4a:	0f 90       	pop	r0
    2f4c:	0f 90       	pop	r0
    2f4e:	0c c0       	rjmp	.+24     	; 0x2f68 <voCMDI_TEMP+0xc4>
	
	} else {
		voResponseParserErr();
	}
	return;
    2f50:	26 96       	adiw	r28, 0x06	; 6
    2f52:	0f b6       	in	r0, 0x3f	; 63
    2f54:	f8 94       	cli
    2f56:	de bf       	out	0x3e, r29	; 62
    2f58:	0f be       	out	0x3f, r0	; 63
    2f5a:	cd bf       	out	0x3d, r28	; 61
    2f5c:	df 91       	pop	r29
    2f5e:	cf 91       	pop	r28
    2f60:	1f 91       	pop	r17
    2f62:	0f 91       	pop	r16
			fprintf_P(USBSTREAM,PSTR("USAGE: 'GET TEMP' or 'SET TEMP XXXX' with range of 0 to 9999\n\r"));
		}
	
	
	} else {
		voResponseParserErr();
    2f64:	ff 90       	pop	r15
    2f66:	ff c0       	rjmp	.+510    	; 0x3166 <voResponseParserErr>
	}
	return;
    2f68:	26 96       	adiw	r28, 0x06	; 6
    2f6a:	0f b6       	in	r0, 0x3f	; 63
    2f6c:	f8 94       	cli
    2f6e:	de bf       	out	0x3e, r29	; 62
    2f70:	0f be       	out	0x3f, r0	; 63
    2f72:	cd bf       	out	0x3d, r28	; 61
    2f74:	df 91       	pop	r29
    2f76:	cf 91       	pop	r28
    2f78:	1f 91       	pop	r17
    2f7a:	0f 91       	pop	r16
    2f7c:	ff 90       	pop	r15
    2f7e:	08 95       	ret

00002f80 <voCMDI_WAIT>:
#include "PARSE_RESPONSE.h"
#include "COMMON_VALUE_STORE.h"
#include "CMDI_WAIT.h"


void voCMDI_WAIT( CMDI_CMD_DATA_t COMMAND ){
    2f80:	ff 92       	push	r15
    2f82:	0f 93       	push	r16
    2f84:	1f 93       	push	r17
    2f86:	cf 93       	push	r28
    2f88:	df 93       	push	r29
    2f8a:	00 d0       	rcall	.+0      	; 0x2f8c <voCMDI_WAIT+0xc>
    2f8c:	00 d0       	rcall	.+0      	; 0x2f8e <voCMDI_WAIT+0xe>
    2f8e:	00 d0       	rcall	.+0      	; 0x2f90 <voCMDI_WAIT+0x10>
    2f90:	cd b7       	in	r28, 0x3d	; 61
    2f92:	de b7       	in	r29, 0x3e	; 62
    2f94:	6b 83       	std	Y+3, r22	; 0x03
    2f96:	7c 83       	std	Y+4, r23	; 0x04
    2f98:	8d 83       	std	Y+5, r24	; 0x05
    2f9a:	9e 83       	std	Y+6, r25	; 0x06
	/* Change Wait time */
	if(COMMAND.DIR==CMDI_SET){
    2f9c:	41 11       	cpse	r20, r1
    2f9e:	13 c0       	rjmp	.+38     	; 0x2fc6 <voCMDI_WAIT+0x46>
		uint8_t u8ProgToChange = u8GetProgToChange();
    2fa0:	cb d0       	rcall	.+406    	; 0x3138 <u8GetProgToChange>
		boEEFS_UpdateUserProgramm(u8ProgToChange,USRPRG_PREWATERWAIT,COMMAND.u32CmdValue);
    2fa2:	2b 81       	ldd	r18, Y+3	; 0x03
    2fa4:	3c 81       	ldd	r19, Y+4	; 0x04
    2fa6:	4d 81       	ldd	r20, Y+5	; 0x05
    2fa8:	5e 81       	ldd	r21, Y+6	; 0x06
    2faa:	63 e0       	ldi	r22, 0x03	; 3
    2fac:	5f d3       	rcall	.+1726   	; 0x366c <boEEFS_UpdateUserProgramm>
		}
	} else {
		voResponseParserErr();
	}
	return;
    2fae:	26 96       	adiw	r28, 0x06	; 6
    2fb0:	0f b6       	in	r0, 0x3f	; 63
    2fb2:	f8 94       	cli
    2fb4:	de bf       	out	0x3e, r29	; 62
    2fb6:	0f be       	out	0x3f, r0	; 63
    2fb8:	cd bf       	out	0x3d, r28	; 61
    2fba:	df 91       	pop	r29
    2fbc:	cf 91       	pop	r28
    2fbe:	1f 91       	pop	r17
    2fc0:	0f 91       	pop	r16
void voCMDI_WAIT( CMDI_CMD_DATA_t COMMAND ){
	/* Change Wait time */
	if(COMMAND.DIR==CMDI_SET){
		uint8_t u8ProgToChange = u8GetProgToChange();
		boEEFS_UpdateUserProgramm(u8ProgToChange,USRPRG_PREWATERWAIT,COMMAND.u32CmdValue);
		voResponseOk();
    2fc2:	ff 90       	pop	r15
	} else if(COMMAND.DIR==CMDI_GET) {
    2fc4:	e1 c0       	rjmp	.+450    	; 0x3188 <voResponseOk>
    2fc6:	41 30       	cpi	r20, 0x01	; 1
		if(boGetConnected()==true){
    2fc8:	f1 f4       	brne	.+60     	; 0x3006 <voCMDI_WAIT+0x86>
    2fca:	4e d6       	rcall	.+3228   	; 0x3c68 <boGetConnected>
    2fcc:	88 23       	and	r24, r24
			uint8_t u8ProgToChange = u8GetProgToChange();
    2fce:	09 f4       	brne	.+2      	; 0x2fd2 <voCMDI_WAIT+0x52>
    2fd0:	39 c0       	rjmp	.+114    	; 0x3044 <voCMDI_WAIT+0xc4>
    2fd2:	b2 d0       	rcall	.+356    	; 0x3138 <u8GetProgToChange>
			FILE* USBSTREAM = GetUSBStream();
    2fd4:	f8 2e       	mov	r15, r24
    2fd6:	4e d6       	rcall	.+3228   	; 0x3c74 <GetUSBStream>
    2fd8:	18 2f       	mov	r17, r24
			fprintf_P(USBSTREAM,PSTR("OK:%i\n\r"),boEEFS_ReadUserProgrammParam(u8ProgToChange,USRPRG_PREWATERWAIT));
    2fda:	09 2f       	mov	r16, r25
    2fdc:	63 e0       	ldi	r22, 0x03	; 3
    2fde:	8f 2d       	mov	r24, r15
    2fe0:	9c d3       	rcall	.+1848   	; 0x371a <boEEFS_ReadUserProgrammParam>
    2fe2:	9f 93       	push	r25
    2fe4:	8f 93       	push	r24
    2fe6:	7f 93       	push	r23
    2fe8:	6f 93       	push	r22
    2fea:	87 e0       	ldi	r24, 0x07	; 7
    2fec:	9d e0       	ldi	r25, 0x0D	; 13
    2fee:	9f 93       	push	r25
    2ff0:	8f 93       	push	r24
    2ff2:	0f 93       	push	r16
    2ff4:	1f 93       	push	r17
    2ff6:	0e 94 26 26 	call	0x4c4c	; 0x4c4c <fprintf_P>
    2ffa:	0f b6       	in	r0, 0x3f	; 63
    2ffc:	f8 94       	cli
    2ffe:	de bf       	out	0x3e, r29	; 62
    3000:	0f be       	out	0x3f, r0	; 63
		}
	} else if(COMMAND.DIR == CMDI_HELP){
    3002:	cd bf       	out	0x3d, r28	; 61
    3004:	1f c0       	rjmp	.+62     	; 0x3044 <voCMDI_WAIT+0xc4>
		/* Print Help Text here */
		if(boGetConnected()==true){
    3006:	43 30       	cpi	r20, 0x03	; 3
    3008:	89 f4       	brne	.+34     	; 0x302c <voCMDI_WAIT+0xac>
    300a:	2e d6       	rcall	.+3164   	; 0x3c68 <boGetConnected>
    300c:	88 23       	and	r24, r24
			FILE* USBSTREAM = GetUSBStream();
    300e:	d1 f0       	breq	.+52     	; 0x3044 <voCMDI_WAIT+0xc4>
    3010:	31 d6       	rcall	.+3170   	; 0x3c74 <GetUSBStream>
			fprintf_P(USBSTREAM,PSTR("USAGE: 'GET WAIT' or 'SET WAIT XXXX' with range of 0 to 65535\n\r"));
    3012:	27 ec       	ldi	r18, 0xC7	; 199
    3014:	3c e0       	ldi	r19, 0x0C	; 12
    3016:	3f 93       	push	r19
    3018:	2f 93       	push	r18
    301a:	9f 93       	push	r25
    301c:	8f 93       	push	r24
    301e:	0e 94 26 26 	call	0x4c4c	; 0x4c4c <fprintf_P>
    3022:	0f 90       	pop	r0
    3024:	0f 90       	pop	r0
    3026:	0f 90       	pop	r0
    3028:	0f 90       	pop	r0
    302a:	0c c0       	rjmp	.+24     	; 0x3044 <voCMDI_WAIT+0xc4>
		}
	} else {
		voResponseParserErr();
	}
	return;
    302c:	26 96       	adiw	r28, 0x06	; 6
    302e:	0f b6       	in	r0, 0x3f	; 63
    3030:	f8 94       	cli
    3032:	de bf       	out	0x3e, r29	; 62
    3034:	0f be       	out	0x3f, r0	; 63
    3036:	cd bf       	out	0x3d, r28	; 61
    3038:	df 91       	pop	r29
    303a:	cf 91       	pop	r28
    303c:	1f 91       	pop	r17
    303e:	0f 91       	pop	r16
		if(boGetConnected()==true){
			FILE* USBSTREAM = GetUSBStream();
			fprintf_P(USBSTREAM,PSTR("USAGE: 'GET WAIT' or 'SET WAIT XXXX' with range of 0 to 65535\n\r"));
		}
	} else {
		voResponseParserErr();
    3040:	ff 90       	pop	r15
    3042:	91 c0       	rjmp	.+290    	; 0x3166 <voResponseParserErr>
	}
	return;
    3044:	26 96       	adiw	r28, 0x06	; 6
    3046:	0f b6       	in	r0, 0x3f	; 63
    3048:	f8 94       	cli
    304a:	de bf       	out	0x3e, r29	; 62
    304c:	0f be       	out	0x3f, r0	; 63
    304e:	cd bf       	out	0x3d, r28	; 61
    3050:	df 91       	pop	r29
    3052:	cf 91       	pop	r28
    3054:	1f 91       	pop	r17
    3056:	0f 91       	pop	r16
    3058:	ff 90       	pop	r15
    305a:	08 95       	ret

0000305c <voCMDI_WATRER>:
#include "COMMON_VALUE_STORE.h"
#include "PARSE_RESPONSE.h"
#include "CMDI_WATER.h"

/* Change Water time */
void voCMDI_WATRER(CMDI_CMD_DATA_t COMMAND){
    305c:	ff 92       	push	r15
    305e:	0f 93       	push	r16
    3060:	1f 93       	push	r17
    3062:	cf 93       	push	r28
    3064:	df 93       	push	r29
    3066:	00 d0       	rcall	.+0      	; 0x3068 <voCMDI_WATRER+0xc>
    3068:	00 d0       	rcall	.+0      	; 0x306a <voCMDI_WATRER+0xe>
    306a:	00 d0       	rcall	.+0      	; 0x306c <voCMDI_WATRER+0x10>
    306c:	cd b7       	in	r28, 0x3d	; 61
    306e:	de b7       	in	r29, 0x3e	; 62
    3070:	6b 83       	std	Y+3, r22	; 0x03
    3072:	7c 83       	std	Y+4, r23	; 0x04
    3074:	8d 83       	std	Y+5, r24	; 0x05
    3076:	9e 83       	std	Y+6, r25	; 0x06
	if(COMMAND.DIR==CMDI_SET){
    3078:	41 11       	cpse	r20, r1
    307a:	13 c0       	rjmp	.+38     	; 0x30a2 <voCMDI_WATRER+0x46>
		uint8_t u8ProgToChange = u8GetProgToChange();
    307c:	5d d0       	rcall	.+186    	; 0x3138 <u8GetProgToChange>
		boEEFS_UpdateUserProgramm(u8ProgToChange,USRPRG_WATERLEVELFULL,COMMAND.u32CmdValue);
    307e:	2b 81       	ldd	r18, Y+3	; 0x03
    3080:	3c 81       	ldd	r19, Y+4	; 0x04
    3082:	4d 81       	ldd	r20, Y+5	; 0x05
    3084:	5e 81       	ldd	r21, Y+6	; 0x06
    3086:	61 e0       	ldi	r22, 0x01	; 1
    3088:	f1 d2       	rcall	.+1506   	; 0x366c <boEEFS_UpdateUserProgramm>
		}
	} else {
		voResponseParserErr();
	}
	return;
    308a:	26 96       	adiw	r28, 0x06	; 6
    308c:	0f b6       	in	r0, 0x3f	; 63
    308e:	f8 94       	cli
    3090:	de bf       	out	0x3e, r29	; 62
    3092:	0f be       	out	0x3f, r0	; 63
    3094:	cd bf       	out	0x3d, r28	; 61
    3096:	df 91       	pop	r29
    3098:	cf 91       	pop	r28
    309a:	1f 91       	pop	r17
    309c:	0f 91       	pop	r16
/* Change Water time */
void voCMDI_WATRER(CMDI_CMD_DATA_t COMMAND){
	if(COMMAND.DIR==CMDI_SET){
		uint8_t u8ProgToChange = u8GetProgToChange();
		boEEFS_UpdateUserProgramm(u8ProgToChange,USRPRG_WATERLEVELFULL,COMMAND.u32CmdValue);
		voResponseOk();
    309e:	ff 90       	pop	r15
	} else if(COMMAND.DIR==CMDI_GET) {
    30a0:	73 c0       	rjmp	.+230    	; 0x3188 <voResponseOk>
    30a2:	41 30       	cpi	r20, 0x01	; 1
		if(boGetConnected()==true){
    30a4:	f1 f4       	brne	.+60     	; 0x30e2 <voCMDI_WATRER+0x86>
    30a6:	e0 d5       	rcall	.+3008   	; 0x3c68 <boGetConnected>
    30a8:	88 23       	and	r24, r24
			uint8_t u8ProgToChange = u8GetProgToChange();
    30aa:	09 f4       	brne	.+2      	; 0x30ae <voCMDI_WATRER+0x52>
    30ac:	39 c0       	rjmp	.+114    	; 0x3120 <voCMDI_WATRER+0xc4>
    30ae:	44 d0       	rcall	.+136    	; 0x3138 <u8GetProgToChange>
			FILE* USBSTREAM = GetUSBStream();
    30b0:	f8 2e       	mov	r15, r24
    30b2:	e0 d5       	rcall	.+3008   	; 0x3c74 <GetUSBStream>
    30b4:	18 2f       	mov	r17, r24
			fprintf_P(USBSTREAM,PSTR("OK:%i\n\r"),boEEFS_ReadUserProgrammParam(u8ProgToChange,USRPRG_WATERLEVELFULL));
    30b6:	09 2f       	mov	r16, r25
    30b8:	61 e0       	ldi	r22, 0x01	; 1
    30ba:	8f 2d       	mov	r24, r15
    30bc:	2e d3       	rcall	.+1628   	; 0x371a <boEEFS_ReadUserProgrammParam>
    30be:	9f 93       	push	r25
    30c0:	8f 93       	push	r24
    30c2:	7f 93       	push	r23
    30c4:	6f 93       	push	r22
    30c6:	81 e5       	ldi	r24, 0x51	; 81
    30c8:	9d e0       	ldi	r25, 0x0D	; 13
    30ca:	9f 93       	push	r25
    30cc:	8f 93       	push	r24
    30ce:	0f 93       	push	r16
    30d0:	1f 93       	push	r17
    30d2:	0e 94 26 26 	call	0x4c4c	; 0x4c4c <fprintf_P>
    30d6:	0f b6       	in	r0, 0x3f	; 63
    30d8:	f8 94       	cli
    30da:	de bf       	out	0x3e, r29	; 62
    30dc:	0f be       	out	0x3f, r0	; 63
		
		}
	} else if(COMMAND.DIR == CMDI_HELP){
    30de:	cd bf       	out	0x3d, r28	; 61
    30e0:	1f c0       	rjmp	.+62     	; 0x3120 <voCMDI_WATRER+0xc4>
		/* Print Help Text here */
		if(boGetConnected()==true){
    30e2:	43 30       	cpi	r20, 0x03	; 3
    30e4:	89 f4       	brne	.+34     	; 0x3108 <voCMDI_WATRER+0xac>
    30e6:	c0 d5       	rcall	.+2944   	; 0x3c68 <boGetConnected>
    30e8:	88 23       	and	r24, r24
			FILE* USBSTREAM = GetUSBStream();
    30ea:	d1 f0       	breq	.+52     	; 0x3120 <voCMDI_WATRER+0xc4>
    30ec:	c3 d5       	rcall	.+2950   	; 0x3c74 <GetUSBStream>
			fprintf_P(USBSTREAM,PSTR("USAGE: 'GET WATER' or 'SET WATER XXXX' with range of 0 to 65535\n\r"));
    30ee:	2f e0       	ldi	r18, 0x0F	; 15
    30f0:	3d e0       	ldi	r19, 0x0D	; 13
    30f2:	3f 93       	push	r19
    30f4:	2f 93       	push	r18
    30f6:	9f 93       	push	r25
    30f8:	8f 93       	push	r24
    30fa:	0e 94 26 26 	call	0x4c4c	; 0x4c4c <fprintf_P>
    30fe:	0f 90       	pop	r0
    3100:	0f 90       	pop	r0
    3102:	0f 90       	pop	r0
    3104:	0f 90       	pop	r0
    3106:	0c c0       	rjmp	.+24     	; 0x3120 <voCMDI_WATRER+0xc4>
		}
	} else {
		voResponseParserErr();
	}
	return;
    3108:	26 96       	adiw	r28, 0x06	; 6
    310a:	0f b6       	in	r0, 0x3f	; 63
    310c:	f8 94       	cli
    310e:	de bf       	out	0x3e, r29	; 62
    3110:	0f be       	out	0x3f, r0	; 63
    3112:	cd bf       	out	0x3d, r28	; 61
    3114:	df 91       	pop	r29
    3116:	cf 91       	pop	r28
    3118:	1f 91       	pop	r17
    311a:	0f 91       	pop	r16
		if(boGetConnected()==true){
			FILE* USBSTREAM = GetUSBStream();
			fprintf_P(USBSTREAM,PSTR("USAGE: 'GET WATER' or 'SET WATER XXXX' with range of 0 to 65535\n\r"));
		}
	} else {
		voResponseParserErr();
    311c:	ff 90       	pop	r15
    311e:	23 c0       	rjmp	.+70     	; 0x3166 <voResponseParserErr>
	}
	return;
    3120:	26 96       	adiw	r28, 0x06	; 6
    3122:	0f b6       	in	r0, 0x3f	; 63
    3124:	f8 94       	cli
    3126:	de bf       	out	0x3e, r29	; 62
    3128:	0f be       	out	0x3f, r0	; 63
    312a:	cd bf       	out	0x3d, r28	; 61
    312c:	df 91       	pop	r29
    312e:	cf 91       	pop	r28
    3130:	1f 91       	pop	r17
    3132:	0f 91       	pop	r16
    3134:	ff 90       	pop	r15
    3136:	08 95       	ret

00003138 <u8GetProgToChange>:
#include "COMMON_VALUE_STORE.h"

volatile uint8_t u8ProgToChange;

uint8_t u8GetProgToChange(void){
	return u8ProgToChange;
    3138:	80 91 5b 03 	lds	r24, 0x035B	; 0x80035b <u8ProgToChange>
}
    313c:	08 95       	ret

0000313e <voSetProgToChange>:

void voSetProgToChange(uint8_t value){
	u8ProgToChange=value;
    313e:	80 93 5b 03 	sts	0x035B, r24	; 0x80035b <u8ProgToChange>
    3142:	08 95       	ret

00003144 <voResponseParamErr>:
#include "../../usb_cdc_helper/usb_cdc_helper.h"

#include "PARSE_RESPONSE.h"

void voResponseParamErr(){
	if(boGetConnected()==true){
    3144:	91 d5       	rcall	.+2850   	; 0x3c68 <boGetConnected>
    3146:	88 23       	and	r24, r24
    3148:	69 f0       	breq	.+26     	; 0x3164 <voResponseParamErr+0x20>
		FILE* USBSTREAM = GetUSBStream();
    314a:	94 d5       	rcall	.+2856   	; 0x3c74 <GetUSBStream>
    314c:	2b e6       	ldi	r18, 0x6B	; 107
		fprintf_P(USBSTREAM,PSTR("ERR:PARAM\n\r"));
    314e:	3d e0       	ldi	r19, 0x0D	; 13
    3150:	3f 93       	push	r19
    3152:	2f 93       	push	r18
    3154:	9f 93       	push	r25
    3156:	8f 93       	push	r24
    3158:	0e 94 26 26 	call	0x4c4c	; 0x4c4c <fprintf_P>
    315c:	0f 90       	pop	r0
    315e:	0f 90       	pop	r0
    3160:	0f 90       	pop	r0
    3162:	0f 90       	pop	r0
    3164:	08 95       	ret

00003166 <voResponseParserErr>:
    3166:	80 d5       	rcall	.+2816   	; 0x3c68 <boGetConnected>
	}
}

void voResponseParserErr(){
	if(boGetConnected()==true){
    3168:	88 23       	and	r24, r24
    316a:	69 f0       	breq	.+26     	; 0x3186 <voResponseParserErr+0x20>
		FILE* USBSTREAM = GetUSBStream();
    316c:	83 d5       	rcall	.+2822   	; 0x3c74 <GetUSBStream>
    316e:	2e e5       	ldi	r18, 0x5E	; 94
		fprintf_P(USBSTREAM,PSTR("ERR:PARSER\n\r"));
    3170:	3d e0       	ldi	r19, 0x0D	; 13
    3172:	3f 93       	push	r19
    3174:	2f 93       	push	r18
    3176:	9f 93       	push	r25
    3178:	8f 93       	push	r24
    317a:	0e 94 26 26 	call	0x4c4c	; 0x4c4c <fprintf_P>
    317e:	0f 90       	pop	r0
    3180:	0f 90       	pop	r0
    3182:	0f 90       	pop	r0
    3184:	0f 90       	pop	r0
    3186:	08 95       	ret

00003188 <voResponseOk>:
    3188:	6f d5       	rcall	.+2782   	; 0x3c68 <boGetConnected>
	}
}

void voResponseOk( ){
	if(boGetConnected()==true){
    318a:	88 23       	and	r24, r24
    318c:	69 f0       	breq	.+26     	; 0x31a8 <voResponseOk+0x20>
		FILE* USBSTREAM = GetUSBStream();
    318e:	72 d5       	rcall	.+2788   	; 0x3c74 <GetUSBStream>
    3190:	29 e5       	ldi	r18, 0x59	; 89
		fprintf_P(USBSTREAM,PSTR("OK\n\r"));
    3192:	3d e0       	ldi	r19, 0x0D	; 13
    3194:	3f 93       	push	r19
    3196:	2f 93       	push	r18
    3198:	9f 93       	push	r25
    319a:	8f 93       	push	r24
    319c:	0e 94 26 26 	call	0x4c4c	; 0x4c4c <fprintf_P>
    31a0:	0f 90       	pop	r0
    31a2:	0f 90       	pop	r0
    31a4:	0f 90       	pop	r0
    31a6:	0f 90       	pop	r0
    31a8:	08 95       	ret

000031aa <DPS_SetDisplayOff>:
    31aa:	ef 92       	push	r14
	}
	/* Write to Display */
	SDP_voRefreshDisplay();
}

void DPS_SetDisplayOff( void ){
    31ac:	ff 92       	push	r15
    31ae:	0f 93       	push	r16
    31b0:	1f 93       	push	r17
    31b2:	cf 93       	push	r28
    31b4:	df 93       	push	r29
    31b6:	8a ef       	ldi	r24, 0xFA	; 250
    31b8:	e8 2e       	mov	r14, r24
    31ba:	82 e0       	ldi	r24, 0x02	; 2
    31bc:	f8 2e       	mov	r15, r24
    31be:	01 ef       	ldi	r16, 0xF1	; 241
    31c0:	12 e0       	ldi	r17, 0x02	; 2
	/* Set ALL variables to a default state */
	for(uint8_t i=0;i<NO_OF_ICONS;i++){
    31c2:	c0 e0       	ldi	r28, 0x00	; 0
		emIconBlinkFreq[i]=BLINK_OFF;
    31c4:	d4 e0       	ldi	r29, 0x04	; 4
    31c6:	f7 01       	movw	r30, r14
    31c8:	d1 93       	st	Z+, r29
    31ca:	7f 01       	movw	r14, r30
		emIconBlinkFreqPrevious[i]=BLINK_OFF;
    31cc:	f8 01       	movw	r30, r16
    31ce:	d1 93       	st	Z+, r29
    31d0:	8f 01       	movw	r16, r30
		SDP_voSetIconVisibility(i,INVISIBLE);
    31d2:	61 e0       	ldi	r22, 0x01	; 1
    31d4:	8c 2f       	mov	r24, r28
    31d6:	0e 94 25 08 	call	0x104a	; 0x104a <SDP_voSetIconVisibility>
	SDP_voRefreshDisplay();
}

void DPS_SetDisplayOff( void ){
	/* Set ALL variables to a default state */
	for(uint8_t i=0;i<NO_OF_ICONS;i++){
    31da:	cf 5f       	subi	r28, 0xFF	; 255
    31dc:	c9 30       	cpi	r28, 0x09	; 9
    31de:	99 f7       	brne	.-26     	; 0x31c6 <DPS_SetDisplayOff+0x1c>
		emIconBlinkFreqPrevious[i]=BLINK_OFF;
		SDP_voSetIconVisibility(i,INVISIBLE);
	}
	/* Write to Display */
	SDP_voRefreshDisplay();
}
    31e0:	df 91       	pop	r29
    31e2:	cf 91       	pop	r28
    31e4:	1f 91       	pop	r17
    31e6:	0f 91       	pop	r16
    31e8:	ff 90       	pop	r15
    31ea:	ef 90       	pop	r14
		emIconBlinkFreq[i]=BLINK_OFF;
		emIconBlinkFreqPrevious[i]=BLINK_OFF;
		SDP_voSetIconVisibility(i,INVISIBLE);
	}
	/* Write to Display */
	SDP_voRefreshDisplay();
    31ec:	0c 94 db 08 	jmp	0x11b6	; 0x11b6 <SDP_voRefreshDisplay>

000031f0 <DPS_Init>:
    31f0:	dc cf       	rjmp	.-72     	; 0x31aa <DPS_SetDisplayOff>

000031f2 <DPS_voTask>:
}

/* This needs to be called every 10ms -> 100 Times a Second */
void DPS_voTask( void ){
    31f2:	af 92       	push	r10
    31f4:	bf 92       	push	r11
    31f6:	cf 92       	push	r12
    31f8:	df 92       	push	r13
    31fa:	ef 92       	push	r14
    31fc:	ff 92       	push	r15
    31fe:	0f 93       	push	r16
    3200:	1f 93       	push	r17
    3202:	cf 93       	push	r28
	/* Blink and Refesh */
	/* As we got 10Hz, 5Hz, 2Hz and OFF we need to track that */
	/* This will be called at 20Hz */
	u8_10Hz_Cnt++;
    3204:	30 91 e7 02 	lds	r19, 0x02E7	; 0x8002e7 <u8_10Hz_Cnt>
    3208:	3f 5f       	subi	r19, 0xFF	; 255
    320a:	30 93 e7 02 	sts	0x02E7, r19	; 0x8002e7 <u8_10Hz_Cnt>
	u8_5Hz_Cnt++;
    320e:	20 91 e6 02 	lds	r18, 0x02E6	; 0x8002e6 <u8_5Hz_Cnt>
    3212:	2f 5f       	subi	r18, 0xFF	; 255
    3214:	20 93 e6 02 	sts	0x02E6, r18	; 0x8002e6 <u8_5Hz_Cnt>
	u8_2Hz_Cnt++;
    3218:	90 91 e5 02 	lds	r25, 0x02E5	; 0x8002e5 <u8_2Hz_Cnt>
    321c:	9f 5f       	subi	r25, 0xFF	; 255
    321e:	90 93 e5 02 	sts	0x02E5, r25	; 0x8002e5 <u8_2Hz_Cnt>
	u8_1Hz_Cnt++;
    3222:	80 91 e4 02 	lds	r24, 0x02E4	; 0x8002e4 <u8_1Hz_Cnt>
    3226:	8f 5f       	subi	r24, 0xFF	; 255
    3228:	80 93 e4 02 	sts	0x02E4, r24	; 0x8002e4 <u8_1Hz_Cnt>
	
	/* Check for overflow, we will use the 0 to Signal a Run is requierd, withc makes Comparison easyer for the MCU */
	if(u8_10Hz_Cnt>=1){
    322c:	31 11       	cpse	r19, r1
		u8_10Hz_Cnt=0;
    322e:	10 92 e7 02 	sts	0x02E7, r1	; 0x8002e7 <u8_10Hz_Cnt>
	}
	
	if(u8_5Hz_Cnt>=2){
    3232:	22 30       	cpi	r18, 0x02	; 2
    3234:	10 f0       	brcs	.+4      	; 0x323a <DPS_voTask+0x48>
		u8_5Hz_Cnt=0;
    3236:	10 92 e6 02 	sts	0x02E6, r1	; 0x8002e6 <u8_5Hz_Cnt>
	}
	
	if(u8_2Hz_Cnt>=5){
    323a:	95 30       	cpi	r25, 0x05	; 5
    323c:	10 f0       	brcs	.+4      	; 0x3242 <DPS_voTask+0x50>
		u8_2Hz_Cnt=0;
    323e:	10 92 e5 02 	sts	0x02E5, r1	; 0x8002e5 <u8_2Hz_Cnt>
	}
	
	if(u8_1Hz_Cnt>=10){
    3242:	8a 30       	cpi	r24, 0x0A	; 10
    3244:	10 f0       	brcs	.+4      	; 0x324a <DPS_voTask+0x58>
		u8_1Hz_Cnt=0;
    3246:	10 92 e4 02 	sts	0x02E4, r1	; 0x8002e4 <u8_1Hz_Cnt>
    324a:	01 ef       	ldi	r16, 0xF1	; 241
    324c:	12 e0       	ldi	r17, 0x02	; 2
    324e:	8a ef       	ldi	r24, 0xFA	; 250
    3250:	c8 2e       	mov	r12, r24
    3252:	82 e0       	ldi	r24, 0x02	; 2
    3254:	d8 2e       	mov	r13, r24
    3256:	98 ee       	ldi	r25, 0xE8	; 232
    3258:	e9 2e       	mov	r14, r25
    325a:	92 e0       	ldi	r25, 0x02	; 2
    325c:	f9 2e       	mov	r15, r25
	/* Write to Display */
	SDP_voRefreshDisplay();
}

/* This needs to be called every 10ms -> 100 Times a Second */
void DPS_voTask( void ){
    325e:	c0 e0       	ldi	r28, 0x00	; 0
		u8_1Hz_Cnt=0;
	}
	
	for(uint8_t i=0;i<NO_OF_ICONS;i++){
		
		if( (emIconBlinkFreqPrevious[i]!=emIconBlinkFreq[i]) && ( emIconBlinkFreqPrevious[i] == BLINK_OFF) ){
    3260:	f8 01       	movw	r30, r16
    3262:	90 81       	ld	r25, Z
    3264:	56 01       	movw	r10, r12
    3266:	f6 01       	movw	r30, r12
    3268:	80 81       	ld	r24, Z
    326a:	98 17       	cp	r25, r24
    326c:	99 f0       	breq	.+38     	; 0x3294 <DPS_voTask+0xa2>
    326e:	94 30       	cpi	r25, 0x04	; 4
    3270:	41 f4       	brne	.+16     	; 0x3282 <DPS_voTask+0x90>
			/* Okay something in the BlinkFreq has changed, and only if we are going from OFF to !=OFF we need to care */
			emIconBlinkFreqPrevious[i] = emIconBlinkFreq[i];
    3272:	f8 01       	movw	r30, r16
    3274:	80 83       	st	Z, r24
			emIconInitialVisibiliyNow [i]= SDP_emGetIconVisibility(i);
    3276:	8c 2f       	mov	r24, r28
    3278:	0e 94 fc 08 	call	0x11f8	; 0x11f8 <SDP_emGetIconVisibility>
    327c:	f7 01       	movw	r30, r14
    327e:	80 83       	st	Z, r24
    3280:	09 c0       	rjmp	.+18     	; 0x3294 <DPS_voTask+0xa2>
		}  /* Okay Visibility is updated */
		else if( (emIconBlinkFreqPrevious[i]!=emIconBlinkFreq[i]) && ( emIconBlinkFreq[i] == BLINK_OFF) ){
    3282:	84 30       	cpi	r24, 0x04	; 4
    3284:	39 f4       	brne	.+14     	; 0x3294 <DPS_voTask+0xa2>
			/* Okay something in the BlinkFreq has changed, and only if we are going from OFF to !=OFF we need to care */
			emIconBlinkFreqPrevious[i] = emIconBlinkFreq[i];
    3286:	f8 01       	movw	r30, r16
    3288:	80 83       	st	Z, r24
			SDP_voSetIconVisibility((SENSEOICON_t)(i),emIconInitialVisibiliyNow[i]);
    328a:	f7 01       	movw	r30, r14
    328c:	60 81       	ld	r22, Z
    328e:	8c 2f       	mov	r24, r28
    3290:	0e 94 25 08 	call	0x104a	; 0x104a <SDP_voSetIconVisibility>
    3294:	ff ef       	ldi	r31, 0xFF	; 255
    3296:	cf 1a       	sub	r12, r31
    3298:	df 0a       	sbc	r13, r31
		else {
			/* We dont care for now its a speed change only */
		}
		/* Next is to keep Track if and how we need to Blink */
		
		switch(emIconBlinkFreq[i]){
    329a:	f5 01       	movw	r30, r10
    329c:	80 81       	ld	r24, Z
    329e:	81 30       	cpi	r24, 0x01	; 1
    32a0:	59 f0       	breq	.+22     	; 0x32b8 <DPS_voTask+0xc6>
    32a2:	38 f0       	brcs	.+14     	; 0x32b2 <DPS_voTask+0xc0>
    32a4:	82 30       	cpi	r24, 0x02	; 2
    32a6:	59 f0       	breq	.+22     	; 0x32be <DPS_voTask+0xcc>
    32a8:	83 30       	cpi	r24, 0x03	; 3
    32aa:	89 f4       	brne	.+34     	; 0x32ce <DPS_voTask+0xdc>
					SDP_voSetIconVisibility(i,TOGGLE);
				}
			}break;
			
			case BLINK_1Hz:{
				if(0==u8_1Hz_Cnt){
    32ac:	80 91 e4 02 	lds	r24, 0x02E4	; 0x8002e4 <u8_1Hz_Cnt>
    32b0:	08 c0       	rjmp	.+16     	; 0x32c2 <DPS_voTask+0xd0>
		/* Next is to keep Track if and how we need to Blink */
		
		switch(emIconBlinkFreq[i]){
			
			case BLINK_10Hz:{
				if(0==u8_10Hz_Cnt){
    32b2:	80 91 e7 02 	lds	r24, 0x02E7	; 0x8002e7 <u8_10Hz_Cnt>
    32b6:	05 c0       	rjmp	.+10     	; 0x32c2 <DPS_voTask+0xd0>
				}
			}break;
			
			
			case BLINK_5Hz:{
				if(0==u8_5Hz_Cnt){
    32b8:	80 91 e6 02 	lds	r24, 0x02E6	; 0x8002e6 <u8_5Hz_Cnt>
    32bc:	02 c0       	rjmp	.+4      	; 0x32c2 <DPS_voTask+0xd0>
					SDP_voSetIconVisibility(i,TOGGLE);
				}
			} break;
			
			case BLINK_2Hz:{
				if(0==u8_2Hz_Cnt){
    32be:	80 91 e5 02 	lds	r24, 0x02E5	; 0x8002e5 <u8_2Hz_Cnt>
					SDP_voSetIconVisibility(i,TOGGLE);
				}
			}break;
			
			case BLINK_1Hz:{
				if(0==u8_1Hz_Cnt){
    32c2:	81 11       	cpse	r24, r1
    32c4:	04 c0       	rjmp	.+8      	; 0x32ce <DPS_voTask+0xdc>
					SDP_voSetIconVisibility(i,TOGGLE);
    32c6:	62 e0       	ldi	r22, 0x02	; 2
    32c8:	8c 2f       	mov	r24, r28
    32ca:	0e 94 25 08 	call	0x104a	; 0x104a <SDP_voSetIconVisibility>
	
	if(u8_1Hz_Cnt>=10){
		u8_1Hz_Cnt=0;
	}
	
	for(uint8_t i=0;i<NO_OF_ICONS;i++){
    32ce:	cf 5f       	subi	r28, 0xFF	; 255
    32d0:	0f 5f       	subi	r16, 0xFF	; 255
    32d2:	1f 4f       	sbci	r17, 0xFF	; 255
    32d4:	ff ef       	ldi	r31, 0xFF	; 255
    32d6:	ef 1a       	sub	r14, r31
    32d8:	ff 0a       	sbc	r15, r31
    32da:	c9 30       	cpi	r28, 0x09	; 9
    32dc:	09 f6       	brne	.-126    	; 0x3260 <DPS_voTask+0x6e>
			}break;
		}
		
	}
    SDP_voRefreshDisplay(); /* Display Update */
}
    32de:	cf 91       	pop	r28
    32e0:	1f 91       	pop	r17
    32e2:	0f 91       	pop	r16
    32e4:	ff 90       	pop	r15
    32e6:	ef 90       	pop	r14
    32e8:	df 90       	pop	r13
    32ea:	cf 90       	pop	r12
    32ec:	bf 90       	pop	r11
    32ee:	af 90       	pop	r10
								
			}break;
		}
		
	}
    SDP_voRefreshDisplay(); /* Display Update */
    32f0:	0c 94 db 08 	jmp	0x11b6	; 0x11b6 <SDP_voRefreshDisplay>

000032f4 <DPS_SetBlinkFreq>:
}

void DPS_SetBlinkFreq(ICON_BLINK_FREQ_t Frq, SENSEOICON_t Icon){
	if(Icon < NO_OF_ICONS){
    32f4:	69 30       	cpi	r22, 0x09	; 9
    32f6:	38 f4       	brcc	.+14     	; 0x3306 <DPS_SetBlinkFreq+0x12>
		if(emIconBlinkFreq[Icon]!=Frq){
    32f8:	e6 2f       	mov	r30, r22
    32fa:	f0 e0       	ldi	r31, 0x00	; 0
    32fc:	e6 50       	subi	r30, 0x06	; 6
    32fe:	fd 4f       	sbci	r31, 0xFD	; 253
    3300:	90 81       	ld	r25, Z
    3302:	98 13       	cpse	r25, r24
			emIconBlinkFreq[Icon] = Frq;
    3304:	80 83       	st	Z, r24
    3306:	08 95       	ret

00003308 <DPS_SetIconVisibility>:
		}
	}
}


void DPS_SetIconVisibility(ICONVISIBLITY_t Visibility, SENSEOICON_t Icon){
    3308:	98 2f       	mov	r25, r24
    330a:	86 2f       	mov	r24, r22
	SDP_voSetIconVisibility(Icon,Visibility);
    330c:	69 2f       	mov	r22, r25
    330e:	0c 94 25 08 	jmp	0x104a	; 0x104a <SDP_voSetIconVisibility>

00003312 <_crc_ccitt_update>:
static __inline__ uint16_t
_crc_ccitt_update (uint16_t __crc, uint8_t __data)
{
    uint16_t __ret;

    __asm__ __volatile__ (
    3312:	86 27       	eor	r24, r22
    3314:	08 2e       	mov	r0, r24
    3316:	82 95       	swap	r24
    3318:	80 7f       	andi	r24, 0xF0	; 240
    331a:	80 25       	eor	r24, r0
    331c:	09 2e       	mov	r0, r25
    331e:	98 2f       	mov	r25, r24
    3320:	82 95       	swap	r24
    3322:	8f 70       	andi	r24, 0x0F	; 15
    3324:	08 26       	eor	r0, r24
    3326:	86 95       	lsr	r24
    3328:	98 27       	eor	r25, r24
    332a:	89 27       	eor	r24, r25
    332c:	88 0f       	add	r24, r24
    332e:	88 0f       	add	r24, r24
    3330:	88 0f       	add	r24, r24
    3332:	80 25       	eor	r24, r0
        : "=d" (__ret)
        : "r" (__data), "0" (__crc)
        : "r0"
    );
    return __ret;
}
    3334:	08 95       	ret

00003336 <voSetDefaultSystemSettingsValues>:

void voWriteMagicKey( void );
void voInitCoffeeCounter( void );


void voSetDefaultSystemSettingsValues(systemsettings_t* DefaultSystemsettings){
    3336:	fc 01       	movw	r30, r24
	DefaultSystemsettings->u8ConfigBits.bfBoilerFilled=0; /* Boiler not filled */
    3338:	83 81       	ldd	r24, Z+3	; 0x03
	DefaultSystemsettings->u8ConfigBits.bfCoinMode=0; /* CoinMode off */
	DefaultSystemsettings->u8ConfigBits.bfDualHalSensor=1; /* We have two hall sensors here */
	DefaultSystemsettings->u8ConfigBits.bfLcdAttached=1; /* We have a LCD attached */
	DefaultSystemsettings->u8ConfigBits.bfReserved0=0;
	DefaultSystemsettings->u8ConfigBits.bfReserved1=0;
	DefaultSystemsettings->u8ConfigBits.bfReserved2=0;
    333a:	80 78       	andi	r24, 0x80	; 128
	DefaultSystemsettings->u8ConfigBits.bfReserved3=0;
    333c:	8c 60       	ori	r24, 0x0C	; 12
    333e:	8f 77       	andi	r24, 0x7F	; 127
    3340:	83 83       	std	Z+3, r24	; 0x03
	DefaultSystemsettings->u8NetFrequency=50; /*50Hz*/
    3342:	82 e3       	ldi	r24, 0x32	; 50
    3344:	81 83       	std	Z+1, r24	; 0x01
	DefaultSystemsettings->u8NetVoltage=230; /* 325V Peak  230V eff*/
    3346:	86 ee       	ldi	r24, 0xE6	; 230
    3348:	82 83       	std	Z+2, r24	; 0x02
	DefaultSystemsettings->u16StandbyTemp=7500;
    334a:	8c e4       	ldi	r24, 0x4C	; 76
    334c:	9d e1       	ldi	r25, 0x1D	; 29
    334e:	96 83       	std	Z+6, r25	; 0x06
    3350:	85 83       	std	Z+5, r24	; 0x05
	DefaultSystemsettings->u8coffeelevel=2;
    3352:	82 e0       	ldi	r24, 0x02	; 2
    3354:	84 83       	std	Z+4, r24	; 0x04
	DefaultSystemsettings->u8SelectedProg=0;
    3356:	17 82       	std	Z+7, r1	; 0x07
    3358:	08 95       	ret

0000335a <voSetDefaultUserSettingsValues>:
}

void voSetDefaultUserSettingsValues( usersettings_t* DefaultUserSettings){
    335a:	fc 01       	movw	r30, r24
	DefaultUserSettings->u16PreWaterLevel=1000;	/* 1,5S PreFill */
    335c:	88 ee       	ldi	r24, 0xE8	; 232
    335e:	93 e0       	ldi	r25, 0x03	; 3
    3360:	95 83       	std	Z+5, r25	; 0x05
    3362:	84 83       	std	Z+4, r24	; 0x04
	DefaultUserSettings->u16PreWaterWait=3500;	/* 3,5S Wait */
    3364:	8c ea       	ldi	r24, 0xAC	; 172
    3366:	9d e0       	ldi	r25, 0x0D	; 13
    3368:	97 83       	std	Z+7, r25	; 0x07
    336a:	86 83       	std	Z+6, r24	; 0x06
	DefaultUserSettings->u16WaterLevelFull=7500; /* 7.5S Water */
    336c:	8c e4       	ldi	r24, 0x4C	; 76
    336e:	9d e1       	ldi	r25, 0x1D	; 29
    3370:	93 83       	std	Z+3, r25	; 0x03
    3372:	82 83       	std	Z+2, r24	; 0x02
	DefaultUserSettings->u32HeaterTemp=9000; /* 90 Degree C */
    3374:	88 e2       	ldi	r24, 0x28	; 40
    3376:	93 e2       	ldi	r25, 0x23	; 35
    3378:	91 83       	std	Z+1, r25	; 0x01
    337a:	80 83       	st	Z, r24
	DefaultUserSettings->u16Reserved_1=0xAAAA;
    337c:	8a ea       	ldi	r24, 0xAA	; 170
    337e:	9a ea       	ldi	r25, 0xAA	; 170
    3380:	91 87       	std	Z+9, r25	; 0x09
    3382:	80 87       	std	Z+8, r24	; 0x08
	DefaultUserSettings->u16Reserved_2=0x5555;
    3384:	25 e5       	ldi	r18, 0x55	; 85
    3386:	35 e5       	ldi	r19, 0x55	; 85
    3388:	33 87       	std	Z+11, r19	; 0x0b
    338a:	22 87       	std	Z+10, r18	; 0x0a
	DefaultUserSettings->u16Reserved_3=0xAAAA;
    338c:	95 87       	std	Z+13, r25	; 0x0d
    338e:	84 87       	std	Z+12, r24	; 0x0c
	DefaultUserSettings->u16CRC16=0;
    3390:	17 86       	std	Z+15, r1	; 0x0f
    3392:	16 86       	std	Z+14, r1	; 0x0e
    3394:	08 95       	ret

00003396 <voWriteMagicKey>:
	voInitCoffeeCounter();
	
	voWriteMagicKey();
}

void voWriteMagicKey( ) {
    3396:	ef 92       	push	r14
    3398:	ff 92       	push	r15
    339a:	0f 93       	push	r16
    339c:	1f 93       	push	r17
    339e:	cf 93       	push	r28
    33a0:	df 93       	push	r29
    33a2:	cd b7       	in	r28, 0x3d	; 61
    33a4:	de b7       	in	r29, 0x3e	; 62
    33a6:	2a 97       	sbiw	r28, 0x0a	; 10
    33a8:	0f b6       	in	r0, 0x3f	; 63
    33aa:	f8 94       	cli
    33ac:	de bf       	out	0x3e, r29	; 62
    33ae:	0f be       	out	0x3f, r0	; 63
    33b0:	cd bf       	out	0x3d, r28	; 61
	
	
	flashmagic_t FlashMagic;
	FlashMagic.MagicKey[0]='e';
    33b2:	85 e6       	ldi	r24, 0x65	; 101
    33b4:	89 83       	std	Y+1, r24	; 0x01
	FlashMagic.MagicKey[1]='H';
    33b6:	88 e4       	ldi	r24, 0x48	; 72
    33b8:	8a 83       	std	Y+2, r24	; 0x02
	FlashMagic.MagicKey[2]='a';
    33ba:	81 e6       	ldi	r24, 0x61	; 97
    33bc:	8b 83       	std	Y+3, r24	; 0x03
	FlashMagic.MagicKey[3]='J';
    33be:	8a e4       	ldi	r24, 0x4A	; 74
    33c0:	8c 83       	std	Y+4, r24	; 0x04
	FlashMagic.MagicKey[4]='o';
    33c2:	8f e6       	ldi	r24, 0x6F	; 111
    33c4:	8d 83       	std	Y+5, r24	; 0x05
	FlashMagic.InvertedMagicKey[0]=~FlashMagic.MagicKey[0];
    33c6:	8a e9       	ldi	r24, 0x9A	; 154
    33c8:	8e 83       	std	Y+6, r24	; 0x06
	FlashMagic.InvertedMagicKey[1]=~FlashMagic.MagicKey[1];
    33ca:	87 eb       	ldi	r24, 0xB7	; 183
    33cc:	8f 83       	std	Y+7, r24	; 0x07
	FlashMagic.InvertedMagicKey[2]=~FlashMagic.MagicKey[2];
    33ce:	8e e9       	ldi	r24, 0x9E	; 158
    33d0:	88 87       	std	Y+8, r24	; 0x08
	FlashMagic.InvertedMagicKey[3]=~FlashMagic.MagicKey[3];
    33d2:	85 eb       	ldi	r24, 0xB5	; 181
    33d4:	89 87       	std	Y+9, r24	; 0x09
	FlashMagic.InvertedMagicKey[4]=~FlashMagic.MagicKey[4]; 
    33d6:	80 e9       	ldi	r24, 0x90	; 144
    33d8:	8a 87       	std	Y+10, r24	; 0x0a
    33da:	ce 01       	movw	r24, r28
    33dc:	01 96       	adiw	r24, 0x01	; 1
    33de:	7c 01       	movw	r14, r24
    33e0:	06 ef       	ldi	r16, 0xF6	; 246
    33e2:	13 e0       	ldi	r17, 0x03	; 3
	uint8_t* ptr=(uint8_t*)&FlashMagic;
	
	for(uint8_t i=0;i<sizeof(flashmagic_t);i++){
		eeprom_update_byte((uint8_t *)(MAGICKEY_STARTADD + i),*ptr);
    33e4:	f7 01       	movw	r30, r14
    33e6:	61 91       	ld	r22, Z+
    33e8:	7f 01       	movw	r14, r30
    33ea:	c8 01       	movw	r24, r16
    33ec:	0e 94 f4 28 	call	0x51e8	; 0x51e8 <eeprom_update_byte>
    33f0:	0f 5f       	subi	r16, 0xFF	; 255
    33f2:	1f 4f       	sbci	r17, 0xFF	; 255
	FlashMagic.InvertedMagicKey[2]=~FlashMagic.MagicKey[2];
	FlashMagic.InvertedMagicKey[3]=~FlashMagic.MagicKey[3];
	FlashMagic.InvertedMagicKey[4]=~FlashMagic.MagicKey[4]; 
	uint8_t* ptr=(uint8_t*)&FlashMagic;
	
	for(uint8_t i=0;i<sizeof(flashmagic_t);i++){
    33f4:	01 15       	cp	r16, r1
    33f6:	f4 e0       	ldi	r31, 0x04	; 4
    33f8:	1f 07       	cpc	r17, r31
    33fa:	a1 f7       	brne	.-24     	; 0x33e4 <voWriteMagicKey+0x4e>
		ptr++;	
	}
	
	
	
}
    33fc:	2a 96       	adiw	r28, 0x0a	; 10
    33fe:	0f b6       	in	r0, 0x3f	; 63
    3400:	f8 94       	cli
    3402:	de bf       	out	0x3e, r29	; 62
    3404:	0f be       	out	0x3f, r0	; 63
    3406:	cd bf       	out	0x3d, r28	; 61
    3408:	df 91       	pop	r29
    340a:	cf 91       	pop	r28
    340c:	1f 91       	pop	r17
    340e:	0f 91       	pop	r16
    3410:	ff 90       	pop	r15
    3412:	ef 90       	pop	r14
    3414:	08 95       	ret

00003416 <voEEFS_WriteSystemSettings>:

void voEEFS_WriteSystemSettings(systemsettings_t* Systemsettings){
    3416:	ef 92       	push	r14
    3418:	ff 92       	push	r15
    341a:	0f 93       	push	r16
    341c:	1f 93       	push	r17
    341e:	cf 93       	push	r28
    3420:	df 93       	push	r29
    3422:	ec 01       	movw	r28, r24
    3424:	7c 01       	movw	r14, r24
    3426:	88 e0       	ldi	r24, 0x08	; 8
    3428:	e8 0e       	add	r14, r24
    342a:	f1 1c       	adc	r15, r1
	//Okay now we need to Build our CRC
	uint8_t* ptr=(uint8_t *)(Systemsettings);
    342c:	8e 01       	movw	r16, r28
	uint16_t crc_calc=0xFFFF;
    342e:	8f ef       	ldi	r24, 0xFF	; 255
    3430:	9f ef       	ldi	r25, 0xFF	; 255
	if(lenght>2){
		lenght=lenght-2;
	}
	for(uint16_t i=0;i<(lenght);i++)
	{
		crc_calc = _crc_ccitt_update(crc_calc,*ptr);
    3432:	f8 01       	movw	r30, r16
    3434:	61 91       	ld	r22, Z+
    3436:	8f 01       	movw	r16, r30
    3438:	6c df       	rcall	.-296    	; 0x3312 <_crc_ccitt_update>
	uint16_t crc_calc=0xFFFF;
	uint16_t lenght=sizeof(systemsettings_t);
	if(lenght>2){
		lenght=lenght-2;
	}
	for(uint16_t i=0;i<(lenght);i++)
    343a:	0e 15       	cp	r16, r14
    343c:	1f 05       	cpc	r17, r15
    343e:	c9 f7       	brne	.-14     	; 0x3432 <voEEFS_WriteSystemSettings+0x1c>
	{
		crc_calc = _crc_ccitt_update(crc_calc,*ptr);
		ptr++;
	}
	Systemsettings->u16CRC=crc_calc;
    3440:	99 87       	std	Y+9, r25	; 0x09
    3442:	88 87       	std	Y+8, r24	; 0x08
    3444:	02 e8       	ldi	r16, 0x82	; 130
    3446:	13 e0       	ldi	r17, 0x03	; 3
	ptr=(uint8_t *)(Systemsettings);
	//And now everything must back to the EEPROM
	for(uint16_t i=0;i<(lenght+2);i++)
	{
		eeprom_update_byte((uint8_t *)i+(SYSSETADD) , *ptr);
    3448:	69 91       	ld	r22, Y+
    344a:	c8 01       	movw	r24, r16
    344c:	0e 94 f4 28 	call	0x51e8	; 0x51e8 <eeprom_update_byte>
    3450:	0f 5f       	subi	r16, 0xFF	; 255
    3452:	1f 4f       	sbci	r17, 0xFF	; 255
		ptr++;
	}
	Systemsettings->u16CRC=crc_calc;
	ptr=(uint8_t *)(Systemsettings);
	//And now everything must back to the EEPROM
	for(uint16_t i=0;i<(lenght+2);i++)
    3454:	0c 38       	cpi	r16, 0x8C	; 140
    3456:	f3 e0       	ldi	r31, 0x03	; 3
    3458:	1f 07       	cpc	r17, r31
    345a:	b1 f7       	brne	.-20     	; 0x3448 <voEEFS_WriteSystemSettings+0x32>
	{
		eeprom_update_byte((uint8_t *)i+(SYSSETADD) , *ptr);
		ptr++;
	}
	
}
    345c:	df 91       	pop	r29
    345e:	cf 91       	pop	r28
    3460:	1f 91       	pop	r17
    3462:	0f 91       	pop	r16
    3464:	ff 90       	pop	r15
    3466:	ef 90       	pop	r14
    3468:	08 95       	ret

0000346a <voEEFS_ReadSystemSettings>:

bool voEEFS_ReadSystemSettings( systemsettings_t* Settings){
    346a:	cf 92       	push	r12
    346c:	df 92       	push	r13
    346e:	ef 92       	push	r14
    3470:	ff 92       	push	r15
    3472:	0f 93       	push	r16
    3474:	1f 93       	push	r17
    3476:	cf 93       	push	r28
    3478:	df 93       	push	r29
    347a:	ec 01       	movw	r28, r24
	
	bool boReturnval = false;
	
		uint8_t* ptr=(uint8_t *)(Settings);
    347c:	6c 01       	movw	r12, r24
    347e:	02 e8       	ldi	r16, 0x82	; 130
    3480:	13 e0       	ldi	r17, 0x03	; 3
		uint16_t lenght=sizeof(systemsettings_t);
		uint16_t crc_calc=0xFFFF;
    3482:	ee 24       	eor	r14, r14
    3484:	ea 94       	dec	r14
    3486:	fe 2c       	mov	r15, r14
		if(lenght>2){
			lenght=lenght-2;
		}
		for(uint16_t i=0;i<(lenght);i++)
		{
			*ptr=eeprom_read_byte((uint8_t *)i+(SYSSETADD));
    3488:	c8 01       	movw	r24, r16
    348a:	0e 94 ec 28 	call	0x51d8	; 0x51d8 <eeprom_read_byte>
    348e:	f6 01       	movw	r30, r12
    3490:	81 93       	st	Z+, r24
    3492:	6f 01       	movw	r12, r30
			crc_calc = _crc_ccitt_update(crc_calc,*ptr);
    3494:	68 2f       	mov	r22, r24
    3496:	c7 01       	movw	r24, r14
    3498:	3c df       	rcall	.-392    	; 0x3312 <_crc_ccitt_update>
    349a:	7c 01       	movw	r14, r24
    349c:	0f 5f       	subi	r16, 0xFF	; 255
    349e:	1f 4f       	sbci	r17, 0xFF	; 255
		uint16_t crc_calc=0xFFFF;
		
		if(lenght>2){
			lenght=lenght-2;
		}
		for(uint16_t i=0;i<(lenght);i++)
    34a0:	0a 38       	cpi	r16, 0x8A	; 138
    34a2:	f3 e0       	ldi	r31, 0x03	; 3
    34a4:	1f 07       	cpc	r17, r31
    34a6:	81 f7       	brne	.-32     	; 0x3488 <voEEFS_ReadSystemSettings+0x1e>
			crc_calc = _crc_ccitt_update(crc_calc,*ptr);
			ptr++;
		}
		
		for(uint16_t i=lenght;i<lenght+2;i++){
			*ptr=eeprom_read_byte((uint8_t *)i+(SYSSETADD));
    34a8:	8a e8       	ldi	r24, 0x8A	; 138
    34aa:	93 e0       	ldi	r25, 0x03	; 3
    34ac:	0e 94 ec 28 	call	0x51d8	; 0x51d8 <eeprom_read_byte>
    34b0:	88 87       	std	Y+8, r24	; 0x08
    34b2:	8b e8       	ldi	r24, 0x8B	; 139
    34b4:	93 e0       	ldi	r25, 0x03	; 3
    34b6:	0e 94 ec 28 	call	0x51d8	; 0x51d8 <eeprom_read_byte>
    34ba:	89 87       	std	Y+9, r24	; 0x09
			} else {
			/* CRC match , return okay */
			boReturnval=true;
		}

	return boReturnval;
    34bc:	81 e0       	ldi	r24, 0x01	; 1
    34be:	28 85       	ldd	r18, Y+8	; 0x08
    34c0:	39 85       	ldd	r19, Y+9	; 0x09
    34c2:	2e 15       	cp	r18, r14
    34c4:	3f 05       	cpc	r19, r15
    34c6:	09 f0       	breq	.+2      	; 0x34ca <voEEFS_ReadSystemSettings+0x60>
    34c8:	80 e0       	ldi	r24, 0x00	; 0
	
}
    34ca:	df 91       	pop	r29
    34cc:	cf 91       	pop	r28
    34ce:	1f 91       	pop	r17
    34d0:	0f 91       	pop	r16
    34d2:	ff 90       	pop	r15
    34d4:	ef 90       	pop	r14
    34d6:	df 90       	pop	r13
    34d8:	cf 90       	pop	r12
    34da:	08 95       	ret

000034dc <voEEFS_WriteUserProgramm>:


void voEEFS_WriteUserProgramm(uint8_t u8Idx, usersettings_t* Settings){
    34dc:	cf 92       	push	r12
    34de:	df 92       	push	r13
    34e0:	ef 92       	push	r14
    34e2:	ff 92       	push	r15
    34e4:	0f 93       	push	r16
    34e6:	1f 93       	push	r17
    34e8:	cf 93       	push	r28
    34ea:	df 93       	push	r29
	uint16_t lenght=sizeof(usersettings_t);
	if(lenght>2){
		lenght=lenght-2;
	}
    		
	if(u8Idx < 8) {
    34ec:	88 30       	cpi	r24, 0x08	; 8
    34ee:	38 f5       	brcc	.+78     	; 0x353e <voEEFS_WriteUserProgramm+0x62>
    34f0:	eb 01       	movw	r28, r22
    34f2:	08 2f       	mov	r16, r24
    34f4:	6b 01       	movw	r12, r22
    34f6:	8e e0       	ldi	r24, 0x0E	; 14
    34f8:	c8 0e       	add	r12, r24
    34fa:	d1 1c       	adc	r13, r1
    34fc:	7b 01       	movw	r14, r22
    34fe:	8f ef       	ldi	r24, 0xFF	; 255
    3500:	9f ef       	ldi	r25, 0xFF	; 255
		
		for(uint16_t i=0;i<(lenght);i++)
		{
			crc_calc = _crc_ccitt_update(crc_calc,*ptr);
    3502:	f7 01       	movw	r30, r14
    3504:	61 91       	ld	r22, Z+
    3506:	7f 01       	movw	r14, r30
    3508:	04 df       	rcall	.-504    	; 0x3312 <_crc_ccitt_update>
		lenght=lenght-2;
	}
    		
	if(u8Idx < 8) {
		
		for(uint16_t i=0;i<(lenght);i++)
    350a:	ec 14       	cp	r14, r12
    350c:	fd 04       	cpc	r15, r13
    350e:	c9 f7       	brne	.-14     	; 0x3502 <voEEFS_WriteUserProgramm+0x26>
		{
			crc_calc = _crc_ccitt_update(crc_calc,*ptr);
			ptr++;
		}
		
		Settings->u16CRC16=crc_calc;
    3510:	9f 87       	std	Y+15, r25	; 0x0f
    3512:	8e 87       	std	Y+14, r24	; 0x0e
}


void voEEFS_WriteUserProgramm(uint8_t u8Idx, usersettings_t* Settings){
	
	uint16_t u16offset = sizeof(usersettings_t) * u8Idx;
    3514:	10 e0       	ldi	r17, 0x00	; 0
    3516:	84 e0       	ldi	r24, 0x04	; 4
    3518:	00 0f       	add	r16, r16
    351a:	11 1f       	adc	r17, r17
    351c:	8a 95       	dec	r24
    351e:	e1 f7       	brne	.-8      	; 0x3518 <voEEFS_WriteUserProgramm+0x3c>
			ptr++;
		}
		
		Settings->u16CRC16=crc_calc;
		ptr=(uint8_t *)(Settings);
		for(uint16_t i=0;i<(lenght+2);i++)
    3520:	e1 2c       	mov	r14, r1
    3522:	f1 2c       	mov	r15, r1
		{
			eeprom_update_byte((uint8_t *)i+(USRSETADDR)+u16offset , *ptr);
    3524:	69 91       	ld	r22, Y+
    3526:	c8 01       	movw	r24, r16
    3528:	8e 0d       	add	r24, r14
    352a:	9f 1d       	adc	r25, r15
    352c:	0e 94 f4 28 	call	0x51e8	; 0x51e8 <eeprom_update_byte>
			ptr++;
		}
		
		Settings->u16CRC16=crc_calc;
		ptr=(uint8_t *)(Settings);
		for(uint16_t i=0;i<(lenght+2);i++)
    3530:	ff ef       	ldi	r31, 0xFF	; 255
    3532:	ef 1a       	sub	r14, r31
    3534:	ff 0a       	sbc	r15, r31
    3536:	80 e1       	ldi	r24, 0x10	; 16
    3538:	e8 16       	cp	r14, r24
    353a:	f1 04       	cpc	r15, r1
    353c:	99 f7       	brne	.-26     	; 0x3524 <voEEFS_WriteUserProgramm+0x48>
		}
	} else {
		/* Error happend */
	}
	
}
    353e:	df 91       	pop	r29
    3540:	cf 91       	pop	r28
    3542:	1f 91       	pop	r17
    3544:	0f 91       	pop	r16
    3546:	ff 90       	pop	r15
    3548:	ef 90       	pop	r14
    354a:	df 90       	pop	r13
    354c:	cf 90       	pop	r12
    354e:	08 95       	ret

00003550 <boEEFS_ReadUserProgramm>:

bool boEEFS_ReadUserProgramm(uint8_t u8Idx, usersettings_t* Settings)
{
    3550:	cf 92       	push	r12
    3552:	df 92       	push	r13
    3554:	ef 92       	push	r14
    3556:	ff 92       	push	r15
    3558:	0f 93       	push	r16
    355a:	1f 93       	push	r17
    355c:	cf 93       	push	r28
    355e:	df 93       	push	r29
    3560:	cd b7       	in	r28, 0x3d	; 61
    3562:	de b7       	in	r29, 0x3e	; 62
    3564:	28 97       	sbiw	r28, 0x08	; 8
    3566:	0f b6       	in	r0, 0x3f	; 63
    3568:	f8 94       	cli
    356a:	de bf       	out	0x3e, r29	; 62
    356c:	0f be       	out	0x3f, r0	; 63
    356e:	cd bf       	out	0x3d, r28	; 61
	bool boReturnval=false;
	
	volatile uint16_t u16offset = sizeof(usersettings_t) * u8Idx;
    3570:	28 2f       	mov	r18, r24
    3572:	30 e0       	ldi	r19, 0x00	; 0
    3574:	94 e0       	ldi	r25, 0x04	; 4
    3576:	22 0f       	add	r18, r18
    3578:	33 1f       	adc	r19, r19
    357a:	9a 95       	dec	r25
    357c:	e1 f7       	brne	.-8      	; 0x3576 <boEEFS_ReadUserProgramm+0x26>
    357e:	38 87       	std	Y+8, r19	; 0x08
    3580:	2f 83       	std	Y+7, r18	; 0x07
	volatile uint16_t crc_calc=0xFFFF;
    3582:	2f ef       	ldi	r18, 0xFF	; 255
    3584:	3f ef       	ldi	r19, 0xFF	; 255
    3586:	3e 83       	std	Y+6, r19	; 0x06
    3588:	2d 83       	std	Y+5, r18	; 0x05
	volatile uint16_t u16eepindex=0;
    358a:	1c 82       	std	Y+4, r1	; 0x04
    358c:	1b 82       	std	Y+3, r1	; 0x03
		
	volatile uint8_t* ptr=(uint8_t *)(Settings);
	volatile uint16_t lenght=sizeof(usersettings_t);
    358e:	20 e1       	ldi	r18, 0x10	; 16
    3590:	30 e0       	ldi	r19, 0x00	; 0
    3592:	3a 83       	std	Y+2, r19	; 0x02
    3594:	29 83       	std	Y+1, r18	; 0x01
	
	if(u8Idx < 8) {
    3596:	88 30       	cpi	r24, 0x08	; 8
    3598:	08 f0       	brcs	.+2      	; 0x359c <boEEFS_ReadUserProgramm+0x4c>
    359a:	58 c0       	rjmp	.+176    	; 0x364c <boEEFS_ReadUserProgramm+0xfc>
		if(lenght>2){
    359c:	89 81       	ldd	r24, Y+1	; 0x01
    359e:	9a 81       	ldd	r25, Y+2	; 0x02
    35a0:	03 97       	sbiw	r24, 0x03	; 3
    35a2:	28 f0       	brcs	.+10     	; 0x35ae <boEEFS_ReadUserProgramm+0x5e>
			lenght=lenght-2; /* last two bytes are crc */
    35a4:	89 81       	ldd	r24, Y+1	; 0x01
    35a6:	9a 81       	ldd	r25, Y+2	; 0x02
    35a8:	02 97       	sbiw	r24, 0x02	; 2
    35aa:	9a 83       	std	Y+2, r25	; 0x02
    35ac:	89 83       	std	Y+1, r24	; 0x01
    35ae:	8b 01       	movw	r16, r22
	}
	
}

bool boEEFS_ReadUserProgramm(uint8_t u8Idx, usersettings_t* Settings)
{
    35b0:	e1 2c       	mov	r14, r1
    35b2:	f1 2c       	mov	r15, r1
    35b4:	68 01       	movw	r12, r16
    35b6:	ce 0c       	add	r12, r14
    35b8:	df 1c       	adc	r13, r15
		if(lenght>2){
			lenght=lenght-2; /* last two bytes are crc */
		}
			
		
		for(uint16_t i=0;i<(lenght);i++)
    35ba:	89 81       	ldd	r24, Y+1	; 0x01
    35bc:	9a 81       	ldd	r25, Y+2	; 0x02
    35be:	e8 16       	cp	r14, r24
    35c0:	f9 06       	cpc	r15, r25
    35c2:	80 f4       	brcc	.+32     	; 0x35e4 <boEEFS_ReadUserProgramm+0x94>
		{
			u16eepindex = i+(USRSETADDR)+u16offset;
    35c4:	8f 81       	ldd	r24, Y+7	; 0x07
    35c6:	98 85       	ldd	r25, Y+8	; 0x08
    35c8:	8e 0d       	add	r24, r14
    35ca:	9f 1d       	adc	r25, r15
    35cc:	9c 83       	std	Y+4, r25	; 0x04
    35ce:	8b 83       	std	Y+3, r24	; 0x03
			*ptr=eeprom_read_byte((uint8_t *)(u16eepindex) );
    35d0:	8b 81       	ldd	r24, Y+3	; 0x03
    35d2:	9c 81       	ldd	r25, Y+4	; 0x04
    35d4:	0e 94 ec 28 	call	0x51d8	; 0x51d8 <eeprom_read_byte>
    35d8:	f6 01       	movw	r30, r12
    35da:	80 83       	st	Z, r24
		if(lenght>2){
			lenght=lenght-2; /* last two bytes are crc */
		}
			
		
		for(uint16_t i=0;i<(lenght);i++)
    35dc:	ff ef       	ldi	r31, 0xFF	; 255
    35de:	ef 1a       	sub	r14, r31
    35e0:	ff 0a       	sbc	r15, r31
    35e2:	e8 cf       	rjmp	.-48     	; 0x35b4 <boEEFS_ReadUserProgramm+0x64>
    35e4:	e1 2c       	mov	r14, r1
    35e6:	f1 2c       	mov	r15, r1
    35e8:	68 01       	movw	r12, r16
    35ea:	ce 0c       	add	r12, r14
    35ec:	df 1c       	adc	r13, r15
			ptr++;
		}
		
		
		ptr=(uint8_t *)(Settings);;
		for(uint16_t i=0;i<(lenght);i++){	
    35ee:	89 81       	ldd	r24, Y+1	; 0x01
    35f0:	9a 81       	ldd	r25, Y+2	; 0x02
    35f2:	e8 16       	cp	r14, r24
    35f4:	f9 06       	cpc	r15, r25
    35f6:	58 f4       	brcc	.+22     	; 0x360e <boEEFS_ReadUserProgramm+0xbe>
			crc_calc = _crc_ccitt_update(crc_calc,*ptr);
    35f8:	f6 01       	movw	r30, r12
    35fa:	60 81       	ld	r22, Z
    35fc:	8d 81       	ldd	r24, Y+5	; 0x05
    35fe:	9e 81       	ldd	r25, Y+6	; 0x06
    3600:	88 de       	rcall	.-752    	; 0x3312 <_crc_ccitt_update>
    3602:	9e 83       	std	Y+6, r25	; 0x06
    3604:	8d 83       	std	Y+5, r24	; 0x05
			ptr++;
		}
		
		
		ptr=(uint8_t *)(Settings);;
		for(uint16_t i=0;i<(lenght);i++){	
    3606:	ff ef       	ldi	r31, 0xFF	; 255
    3608:	ef 1a       	sub	r14, r31
    360a:	ff 0a       	sbc	r15, r31
    360c:	ed cf       	rjmp	.-38     	; 0x35e8 <boEEFS_ReadUserProgramm+0x98>
		
		/* We need to load the CRC from the eeprom but dont use it for the crc here */
		for(uint16_t i=(sizeof(usersettings_t)-2);i<sizeof(usersettings_t);i++)
		{
			
			u16eepindex = i+(USRSETADDR)+u16offset;
    360e:	8f 81       	ldd	r24, Y+7	; 0x07
    3610:	98 85       	ldd	r25, Y+8	; 0x08
    3612:	0e 96       	adiw	r24, 0x0e	; 14
    3614:	9c 83       	std	Y+4, r25	; 0x04
    3616:	8b 83       	std	Y+3, r24	; 0x03
			*ptr=eeprom_read_byte((uint8_t *)(u16eepindex) );
    3618:	8b 81       	ldd	r24, Y+3	; 0x03
    361a:	9c 81       	ldd	r25, Y+4	; 0x04
    361c:	0e 94 ec 28 	call	0x51d8	; 0x51d8 <eeprom_read_byte>
    3620:	f6 01       	movw	r30, r12
    3622:	80 83       	st	Z, r24
		
		/* We need to load the CRC from the eeprom but dont use it for the crc here */
		for(uint16_t i=(sizeof(usersettings_t)-2);i<sizeof(usersettings_t);i++)
		{
			
			u16eepindex = i+(USRSETADDR)+u16offset;
    3624:	8f 81       	ldd	r24, Y+7	; 0x07
    3626:	98 85       	ldd	r25, Y+8	; 0x08
    3628:	0f 96       	adiw	r24, 0x0f	; 15
    362a:	9c 83       	std	Y+4, r25	; 0x04
    362c:	8b 83       	std	Y+3, r24	; 0x03
			*ptr=eeprom_read_byte((uint8_t *)(u16eepindex) );
    362e:	8b 81       	ldd	r24, Y+3	; 0x03
    3630:	9c 81       	ldd	r25, Y+4	; 0x04
    3632:	0e 94 ec 28 	call	0x51d8	; 0x51d8 <eeprom_read_byte>
    3636:	f6 01       	movw	r30, r12
    3638:	81 83       	std	Z+1, r24	; 0x01
 			ptr++;
		}
		
		
		//Lets see if the EEPROM has valid data
		if(crc_calc!=Settings->u16CRC16)
    363a:	2d 81       	ldd	r18, Y+5	; 0x05
    363c:	3e 81       	ldd	r19, Y+6	; 0x06
    363e:	81 e0       	ldi	r24, 0x01	; 1
    3640:	f8 01       	movw	r30, r16
    3642:	46 85       	ldd	r20, Z+14	; 0x0e
    3644:	57 85       	ldd	r21, Z+15	; 0x0f
    3646:	42 17       	cp	r20, r18
    3648:	53 07       	cpc	r21, r19
    364a:	09 f0       	breq	.+2      	; 0x364e <boEEFS_ReadUserProgramm+0xfe>
			boReturnval=true;
		}
		
	} else {
		/* Index out of range we need to return a false */
		boReturnval=false;
    364c:	80 e0       	ldi	r24, 0x00	; 0
	}
	
	return boReturnval;
}
    364e:	28 96       	adiw	r28, 0x08	; 8
    3650:	0f b6       	in	r0, 0x3f	; 63
    3652:	f8 94       	cli
    3654:	de bf       	out	0x3e, r29	; 62
    3656:	0f be       	out	0x3f, r0	; 63
    3658:	cd bf       	out	0x3d, r28	; 61
    365a:	df 91       	pop	r29
    365c:	cf 91       	pop	r28
    365e:	1f 91       	pop	r17
    3660:	0f 91       	pop	r16
    3662:	ff 90       	pop	r15
    3664:	ef 90       	pop	r14
    3666:	df 90       	pop	r13
    3668:	cf 90       	pop	r12
    366a:	08 95       	ret

0000366c <boEEFS_UpdateUserProgramm>:

void boEEFS_UpdateUserProgramm(uint8_t idx, USERPROGPARAM_t param, uint32_t Value ){
    366c:	cf 92       	push	r12
    366e:	df 92       	push	r13
    3670:	ef 92       	push	r14
    3672:	ff 92       	push	r15
    3674:	0f 93       	push	r16
    3676:	1f 93       	push	r17
    3678:	cf 93       	push	r28
    367a:	df 93       	push	r29
    367c:	cd b7       	in	r28, 0x3d	; 61
    367e:	de b7       	in	r29, 0x3e	; 62
    3680:	60 97       	sbiw	r28, 0x10	; 16
    3682:	0f b6       	in	r0, 0x3f	; 63
    3684:	f8 94       	cli
    3686:	de bf       	out	0x3e, r29	; 62
    3688:	0f be       	out	0x3f, r0	; 63
    368a:	cd bf       	out	0x3d, r28	; 61
    368c:	18 2f       	mov	r17, r24
    368e:	06 2f       	mov	r16, r22
    3690:	69 01       	movw	r12, r18
    3692:	7a 01       	movw	r14, r20
	usersettings_t TemUserSettings;
	boEEFS_ReadUserProgramm(idx,&TemUserSettings);
    3694:	be 01       	movw	r22, r28
    3696:	6f 5f       	subi	r22, 0xFF	; 255
    3698:	7f 4f       	sbci	r23, 0xFF	; 255
    369a:	5a df       	rcall	.-332    	; 0x3550 <boEEFS_ReadUserProgramm>
	switch(param){
    369c:	01 30       	cpi	r16, 0x01	; 1
    369e:	09 f1       	breq	.+66     	; 0x36e2 <boEEFS_UpdateUserProgramm+0x76>
    36a0:	28 f0       	brcs	.+10     	; 0x36ac <boEEFS_UpdateUserProgramm+0x40>
    36a2:	02 30       	cpi	r16, 0x02	; 2
    36a4:	61 f0       	breq	.+24     	; 0x36be <boEEFS_UpdateUserProgramm+0x52>
    36a6:	03 30       	cpi	r16, 0x03	; 3
    36a8:	99 f0       	breq	.+38     	; 0x36d0 <boEEFS_UpdateUserProgramm+0x64>
    36aa:	28 c0       	rjmp	.+80     	; 0x36fc <boEEFS_UpdateUserProgramm+0x90>
		case USRPRG_HEATERTEMP:{
			if(Value<UINT16_MAX){
    36ac:	8f ef       	ldi	r24, 0xFF	; 255
    36ae:	c8 16       	cp	r12, r24
    36b0:	d8 06       	cpc	r13, r24
    36b2:	e1 04       	cpc	r14, r1
    36b4:	f1 04       	cpc	r15, r1
    36b6:	10 f5       	brcc	.+68     	; 0x36fc <boEEFS_UpdateUserProgramm+0x90>
				TemUserSettings.u32HeaterTemp=(uint16_t)Value;				
    36b8:	da 82       	std	Y+2, r13	; 0x02
    36ba:	c9 82       	std	Y+1, r12	; 0x01
    36bc:	1a c0       	rjmp	.+52     	; 0x36f2 <boEEFS_UpdateUserProgramm+0x86>
				voEEFS_WriteUserProgramm(idx,&TemUserSettings);
			}
		} break;
		
		case USRPRG_PREWATERLEVEL:{
			if(Value<UINT16_MAX){
    36be:	8f ef       	ldi	r24, 0xFF	; 255
    36c0:	c8 16       	cp	r12, r24
    36c2:	d8 06       	cpc	r13, r24
    36c4:	e1 04       	cpc	r14, r1
    36c6:	f1 04       	cpc	r15, r1
    36c8:	c8 f4       	brcc	.+50     	; 0x36fc <boEEFS_UpdateUserProgramm+0x90>
				TemUserSettings.u16PreWaterLevel=(uint16_t)Value;				
    36ca:	de 82       	std	Y+6, r13	; 0x06
    36cc:	cd 82       	std	Y+5, r12	; 0x05
    36ce:	11 c0       	rjmp	.+34     	; 0x36f2 <boEEFS_UpdateUserProgramm+0x86>
				voEEFS_WriteUserProgramm(idx,&TemUserSettings);
			}
		} break;
		
		case USRPRG_PREWATERWAIT:{
			if(Value<UINT16_MAX){
    36d0:	8f ef       	ldi	r24, 0xFF	; 255
    36d2:	c8 16       	cp	r12, r24
    36d4:	d8 06       	cpc	r13, r24
    36d6:	e1 04       	cpc	r14, r1
    36d8:	f1 04       	cpc	r15, r1
    36da:	80 f4       	brcc	.+32     	; 0x36fc <boEEFS_UpdateUserProgramm+0x90>
				TemUserSettings.u16PreWaterWait=(uint16_t)Value;				
    36dc:	d8 86       	std	Y+8, r13	; 0x08
    36de:	cf 82       	std	Y+7, r12	; 0x07
    36e0:	08 c0       	rjmp	.+16     	; 0x36f2 <boEEFS_UpdateUserProgramm+0x86>
				voEEFS_WriteUserProgramm(idx,&TemUserSettings);
			}
		} break;
		
		case USRPRG_WATERLEVELFULL:{
			if(Value<UINT16_MAX){
    36e2:	8f ef       	ldi	r24, 0xFF	; 255
    36e4:	c8 16       	cp	r12, r24
    36e6:	d8 06       	cpc	r13, r24
    36e8:	e1 04       	cpc	r14, r1
    36ea:	f1 04       	cpc	r15, r1
    36ec:	38 f4       	brcc	.+14     	; 0x36fc <boEEFS_UpdateUserProgramm+0x90>
				TemUserSettings.u16WaterLevelFull=(uint16_t)Value;				
    36ee:	dc 82       	std	Y+4, r13	; 0x04
    36f0:	cb 82       	std	Y+3, r12	; 0x03
				voEEFS_WriteUserProgramm(idx,&TemUserSettings);
    36f2:	be 01       	movw	r22, r28
    36f4:	6f 5f       	subi	r22, 0xFF	; 255
    36f6:	7f 4f       	sbci	r23, 0xFF	; 255
    36f8:	81 2f       	mov	r24, r17
    36fa:	f0 de       	rcall	.-544    	; 0x34dc <voEEFS_WriteUserProgramm>
		} break;
	
	}
	
	
}
    36fc:	60 96       	adiw	r28, 0x10	; 16
    36fe:	0f b6       	in	r0, 0x3f	; 63
    3700:	f8 94       	cli
    3702:	de bf       	out	0x3e, r29	; 62
    3704:	0f be       	out	0x3f, r0	; 63
    3706:	cd bf       	out	0x3d, r28	; 61
    3708:	df 91       	pop	r29
    370a:	cf 91       	pop	r28
    370c:	1f 91       	pop	r17
    370e:	0f 91       	pop	r16
    3710:	ff 90       	pop	r15
    3712:	ef 90       	pop	r14
    3714:	df 90       	pop	r13
    3716:	cf 90       	pop	r12
    3718:	08 95       	ret

0000371a <boEEFS_ReadUserProgrammParam>:

uint32_t boEEFS_ReadUserProgrammParam(uint8_t idx, USERPROGPARAM_t param ){
    371a:	1f 93       	push	r17
    371c:	cf 93       	push	r28
    371e:	df 93       	push	r29
    3720:	cd b7       	in	r28, 0x3d	; 61
    3722:	de b7       	in	r29, 0x3e	; 62
    3724:	60 97       	sbiw	r28, 0x10	; 16
    3726:	0f b6       	in	r0, 0x3f	; 63
    3728:	f8 94       	cli
    372a:	de bf       	out	0x3e, r29	; 62
    372c:	0f be       	out	0x3f, r0	; 63
    372e:	cd bf       	out	0x3d, r28	; 61
    3730:	16 2f       	mov	r17, r22
	usersettings_t TemUserSettings;
	uint32_t u32ReturnVal=0;
	boEEFS_ReadUserProgramm(idx,&TemUserSettings);
    3732:	be 01       	movw	r22, r28
    3734:	6f 5f       	subi	r22, 0xFF	; 255
    3736:	7f 4f       	sbci	r23, 0xFF	; 255
    3738:	0b df       	rcall	.-490    	; 0x3550 <boEEFS_ReadUserProgramm>
	switch(param){
    373a:	11 30       	cpi	r17, 0x01	; 1
    373c:	71 f0       	breq	.+28     	; 0x375a <boEEFS_ReadUserProgrammParam+0x40>
    373e:	38 f0       	brcs	.+14     	; 0x374e <boEEFS_ReadUserProgrammParam+0x34>
    3740:	12 30       	cpi	r17, 0x02	; 2
    3742:	41 f0       	breq	.+16     	; 0x3754 <boEEFS_ReadUserProgrammParam+0x3a>
    3744:	13 30       	cpi	r17, 0x03	; 3
    3746:	71 f4       	brne	.+28     	; 0x3764 <boEEFS_ReadUserProgrammParam+0x4a>
		case USRPRG_PREWATERLEVEL:{
			u32ReturnVal = TemUserSettings.u16PreWaterLevel;
		} break;
		
		case USRPRG_PREWATERWAIT:{
			u32ReturnVal = TemUserSettings.u16PreWaterWait;
    3748:	6f 81       	ldd	r22, Y+7	; 0x07
    374a:	78 85       	ldd	r23, Y+8	; 0x08
    374c:	08 c0       	rjmp	.+16     	; 0x375e <boEEFS_ReadUserProgrammParam+0x44>
	usersettings_t TemUserSettings;
	uint32_t u32ReturnVal=0;
	boEEFS_ReadUserProgramm(idx,&TemUserSettings);
	switch(param){
		case USRPRG_HEATERTEMP:{
			u32ReturnVal=TemUserSettings.u32HeaterTemp;
    374e:	69 81       	ldd	r22, Y+1	; 0x01
    3750:	7a 81       	ldd	r23, Y+2	; 0x02
    3752:	05 c0       	rjmp	.+10     	; 0x375e <boEEFS_ReadUserProgrammParam+0x44>
		} break;
		
		case USRPRG_PREWATERLEVEL:{
			u32ReturnVal = TemUserSettings.u16PreWaterLevel;
    3754:	6d 81       	ldd	r22, Y+5	; 0x05
    3756:	7e 81       	ldd	r23, Y+6	; 0x06
    3758:	02 c0       	rjmp	.+4      	; 0x375e <boEEFS_ReadUserProgrammParam+0x44>
		case USRPRG_PREWATERWAIT:{
			u32ReturnVal = TemUserSettings.u16PreWaterWait;
		} break;
		
		case USRPRG_WATERLEVELFULL:{
			u32ReturnVal = TemUserSettings.u16WaterLevelFull;
    375a:	6b 81       	ldd	r22, Y+3	; 0x03
    375c:	7c 81       	ldd	r23, Y+4	; 0x04
    375e:	80 e0       	ldi	r24, 0x00	; 0
    3760:	90 e0       	ldi	r25, 0x00	; 0
		} break;
    3762:	03 c0       	rjmp	.+6      	; 0x376a <boEEFS_ReadUserProgrammParam+0x50>
	
}

uint32_t boEEFS_ReadUserProgrammParam(uint8_t idx, USERPROGPARAM_t param ){
	usersettings_t TemUserSettings;
	uint32_t u32ReturnVal=0;
    3764:	60 e0       	ldi	r22, 0x00	; 0
    3766:	70 e0       	ldi	r23, 0x00	; 0
    3768:	cb 01       	movw	r24, r22
			u32ReturnVal = TemUserSettings.u16WaterLevelFull;
		} break;
	}
	
	return u32ReturnVal;
}
    376a:	60 96       	adiw	r28, 0x10	; 16
    376c:	0f b6       	in	r0, 0x3f	; 63
    376e:	f8 94       	cli
    3770:	de bf       	out	0x3e, r29	; 62
    3772:	0f be       	out	0x3f, r0	; 63
    3774:	cd bf       	out	0x3d, r28	; 61
    3776:	df 91       	pop	r29
    3778:	cf 91       	pop	r28
    377a:	1f 91       	pop	r17
    377c:	08 95       	ret

0000377e <voInitCoffeeCounter>:
}

#else 

void voInitCoffeeCounter(){
	eeprom_update_word((uint16_t*)(512),0x0000);
    377e:	60 e0       	ldi	r22, 0x00	; 0
    3780:	70 e0       	ldi	r23, 0x00	; 0
    3782:	80 e0       	ldi	r24, 0x00	; 0
    3784:	92 e0       	ldi	r25, 0x02	; 2
    3786:	0c 94 06 29 	jmp	0x520c	; 0x520c <eeprom_update_word>

0000378a <voEEFS_Init>:
	DefaultUserSettings->u16CRC16=0;
	
}

void voEEFS_Init()
{
    378a:	cf 92       	push	r12
    378c:	df 92       	push	r13
    378e:	ef 92       	push	r14
    3790:	ff 92       	push	r15
    3792:	0f 93       	push	r16
    3794:	1f 93       	push	r17
    3796:	cf 93       	push	r28
    3798:	df 93       	push	r29
    379a:	cd b7       	in	r28, 0x3d	; 61
    379c:	de b7       	in	r29, 0x3e	; 62
    379e:	a7 97       	sbiw	r28, 0x27	; 39
    37a0:	0f b6       	in	r0, 0x3f	; 63
    37a2:	f8 94       	cli
    37a4:	de bf       	out	0x3e, r29	; 62
    37a6:	0f be       	out	0x3f, r0	; 63
    37a8:	cd bf       	out	0x3d, r28	; 61
    37aa:	06 ef       	ldi	r16, 0xF6	; 246
    37ac:	13 e0       	ldi	r17, 0x03	; 3
	uint8_t u8MagigKeyError=0;
	/* First Read the magic key and see if there is any */
	flashmagic_t MagicKey;
	uint8_t* MagicKeyPtr = (uint8_t*)&MagicKey;
    37ae:	7e 01       	movw	r14, r28
    37b0:	8b e1       	ldi	r24, 0x1B	; 27
    37b2:	e8 0e       	add	r14, r24
    37b4:	f1 1c       	adc	r15, r1
    37b6:	67 01       	movw	r12, r14
	for(uint8_t i=0;i<sizeof(flashmagic_t);i++){
		*MagicKeyPtr=eeprom_read_byte((uint8_t *)(  MAGICKEY_STARTADD + i ) );
    37b8:	c8 01       	movw	r24, r16
    37ba:	0e 94 ec 28 	call	0x51d8	; 0x51d8 <eeprom_read_byte>
    37be:	f7 01       	movw	r30, r14
    37c0:	81 93       	st	Z+, r24
    37c2:	7f 01       	movw	r14, r30
    37c4:	0f 5f       	subi	r16, 0xFF	; 255
    37c6:	1f 4f       	sbci	r17, 0xFF	; 255
{
	uint8_t u8MagigKeyError=0;
	/* First Read the magic key and see if there is any */
	flashmagic_t MagicKey;
	uint8_t* MagicKeyPtr = (uint8_t*)&MagicKey;
	for(uint8_t i=0;i<sizeof(flashmagic_t);i++){
    37c8:	01 15       	cp	r16, r1
    37ca:	f4 e0       	ldi	r31, 0x04	; 4
    37cc:	1f 07       	cpc	r17, r31
    37ce:	a1 f7       	brne	.-24     	; 0x37b8 <voEEFS_Init+0x2e>
    37d0:	d6 01       	movw	r26, r12
    37d2:	e7 e7       	ldi	r30, 0x77	; 119
    37d4:	fd e0       	ldi	r31, 0x0D	; 13
    37d6:	9e 01       	movw	r18, r28
    37d8:	20 5e       	subi	r18, 0xE0	; 224
    37da:	3f 4f       	sbci	r19, 0xFF	; 255
    37dc:	80 e0       	ldi	r24, 0x00	; 0
		MagicKeyPtr++;
	}
	/* Okay the magickey is in Memory */
	/* The value shall be "eHaJo" */ 
	for(uint8_t i=0;i<(sizeof(flashmagic_t)/2);i++){
		volatile uint8_t u8Value = MagicKey.MagicKey[i];
    37de:	9d 91       	ld	r25, X+
    37e0:	9f a3       	std	Y+39, r25	; 0x27
		volatile uint8_t u8InvertedValue = ~(MagicKey.InvertedMagicKey[i]);
    37e2:	14 96       	adiw	r26, 0x04	; 4
    37e4:	9c 91       	ld	r25, X
    37e6:	14 97       	sbiw	r26, 0x04	; 4
    37e8:	90 95       	com	r25
    37ea:	9e a3       	std	Y+38, r25	; 0x26
		volatile uint8_t u8FlashValue = pgm_read_byte(&(MagicFlashKey[i]));
    37ec:	94 91       	lpm	r25, Z
    37ee:	9d a3       	std	Y+37, r25	; 0x25
		
		if( (u8Value == u8InvertedValue) && ( u8FlashValue == u8Value) ){
    37f0:	4f a1       	ldd	r20, Y+39	; 0x27
    37f2:	9e a1       	ldd	r25, Y+38	; 0x26
    37f4:	49 13       	cpse	r20, r25
    37f6:	03 c0       	rjmp	.+6      	; 0x37fe <voEEFS_Init+0x74>
    37f8:	4d a1       	ldd	r20, Y+37	; 0x25
    37fa:	9f a1       	ldd	r25, Y+39	; 0x27
    37fc:	49 13       	cpse	r20, r25
			
		} else {
			u8MagigKeyError++;
    37fe:	8f 5f       	subi	r24, 0xFF	; 255
    3800:	31 96       	adiw	r30, 0x01	; 1
		*MagicKeyPtr=eeprom_read_byte((uint8_t *)(  MAGICKEY_STARTADD + i ) );
		MagicKeyPtr++;
	}
	/* Okay the magickey is in Memory */
	/* The value shall be "eHaJo" */ 
	for(uint8_t i=0;i<(sizeof(flashmagic_t)/2);i++){
    3802:	2a 17       	cp	r18, r26
    3804:	3b 07       	cpc	r19, r27
    3806:	59 f7       	brne	.-42     	; 0x37de <voEEFS_Init+0x54>
		}
		
	
	}
	
	if(0==u8MagigKeyError){
    3808:	88 23       	and	r24, r24
    380a:	a1 f0       	breq	.+40     	; 0x3834 <voEEFS_Init+0xaa>
		return;
	}
	
	
	systemsettings_t DefaultSystemsettings;
	voSetDefaultSystemSettingsValues(&DefaultSystemsettings);
    380c:	ce 01       	movw	r24, r28
    380e:	41 96       	adiw	r24, 0x11	; 17
    3810:	92 dd       	rcall	.-1244   	; 0x3336 <voSetDefaultSystemSettingsValues>
	
	/* We need to write the Defaultsettings */
	voEEFS_WriteSystemSettings(&DefaultSystemsettings);
    3812:	ce 01       	movw	r24, r28
    3814:	41 96       	adiw	r24, 0x11	; 17
    3816:	ff dd       	rcall	.-1026   	; 0x3416 <voEEFS_WriteSystemSettings>
	
	usersettings_t DefaultUserSettings;
	voSetDefaultUserSettingsValues(&DefaultUserSettings);
    3818:	ce 01       	movw	r24, r28
    381a:	01 96       	adiw	r24, 0x01	; 1
    381c:	9e dd       	rcall	.-1220   	; 0x335a <voSetDefaultUserSettingsValues>
	
	
	/* The Defaultconfig is now in place we need now to store the user programms */
	for (uint8_t i =0 ;i<8; i++){
    381e:	10 e0       	ldi	r17, 0x00	; 0
	
		/*We need to write one Programm to the EEPROM */
		voEEFS_WriteUserProgramm(i, &DefaultUserSettings);
    3820:	be 01       	movw	r22, r28
    3822:	6f 5f       	subi	r22, 0xFF	; 255
    3824:	7f 4f       	sbci	r23, 0xFF	; 255
    3826:	81 2f       	mov	r24, r17
    3828:	59 de       	rcall	.-846    	; 0x34dc <voEEFS_WriteUserProgramm>
	usersettings_t DefaultUserSettings;
	voSetDefaultUserSettingsValues(&DefaultUserSettings);
	
	
	/* The Defaultconfig is now in place we need now to store the user programms */
	for (uint8_t i =0 ;i<8; i++){
    382a:	1f 5f       	subi	r17, 0xFF	; 255
    382c:	18 30       	cpi	r17, 0x08	; 8
	
		/*We need to write one Programm to the EEPROM */
		voEEFS_WriteUserProgramm(i, &DefaultUserSettings);
	}
	
	voInitCoffeeCounter();
    382e:	c1 f7       	brne	.-16     	; 0x3820 <voEEFS_Init+0x96>
    3830:	a6 df       	rcall	.-180    	; 0x377e <voInitCoffeeCounter>
	
	voWriteMagicKey();
    3832:	b1 dd       	rcall	.-1182   	; 0x3396 <voWriteMagicKey>
    3834:	a7 96       	adiw	r28, 0x27	; 39
}
    3836:	0f b6       	in	r0, 0x3f	; 63
    3838:	f8 94       	cli
    383a:	de bf       	out	0x3e, r29	; 62
    383c:	0f be       	out	0x3f, r0	; 63
    383e:	cd bf       	out	0x3d, r28	; 61
    3840:	df 91       	pop	r29
    3842:	cf 91       	pop	r28
    3844:	1f 91       	pop	r17
    3846:	0f 91       	pop	r16
    3848:	ff 90       	pop	r15
    384a:	ef 90       	pop	r14
    384c:	df 90       	pop	r13
    384e:	cf 90       	pop	r12
    3850:	08 95       	ret

00003852 <voHMon_Init>:

volatile FaultAndWarning_t tCollectedFaults;

void voHMon_Init( void ){
	
	tCollectedFaults.BoilerDrawsNoCurrentFault=0;
    3852:	ec e5       	ldi	r30, 0x5C	; 92
    3854:	f3 e0       	ldi	r31, 0x03	; 3
    3856:	13 82       	std	Z+3, r1	; 0x03
	tCollectedFaults.OverTemperaturFault=0;
    3858:	12 82       	std	Z+2, r1	; 0x02
	tCollectedFaults.Reserved=0;
    385a:	14 82       	std	Z+4, r1	; 0x04
	tCollectedFaults.WaterLevelLowFault=0;
    385c:	10 82       	st	Z, r1
	tCollectedFaults.WaterLevelLowWarning=0;
    385e:	11 82       	std	Z+1, r1	; 0x01
    3860:	08 95       	ret

00003862 <voHMon_Task>:
}

void voHMon_Task( void ){
	
	
	tCollectedFaults.BoilerDrawsNoCurrentFault=0;
    3862:	10 92 5f 03 	sts	0x035F, r1	; 0x80035f <tCollectedFaults+0x3>
	tCollectedFaults.OverTemperaturFault=0;
    3866:	10 92 5e 03 	sts	0x035E, r1	; 0x80035e <tCollectedFaults+0x2>
	tCollectedFaults.Reserved=0;
    386a:	10 92 60 03 	sts	0x0360, r1	; 0x800360 <tCollectedFaults+0x4>
	tCollectedFaults.WaterLevelLowFault=0;
    386e:	10 92 5c 03 	sts	0x035C, r1	; 0x80035c <tCollectedFaults>
	tCollectedFaults.WaterLevelLowWarning=0;
    3872:	10 92 5d 03 	sts	0x035D, r1	; 0x80035d <tCollectedFaults+0x1>
	
	
	/* We now need to check the errors */
	/* First  */
	
	emWaterLevel emWaterLevel = WLM_emGetLevel();
    3876:	96 d2       	rcall	.+1324   	; 0x3da4 <WLM_emGetLevel>
	switch (emWaterLevel){
    3878:	81 30       	cpi	r24, 0x01	; 1
    387a:	59 f0       	breq	.+22     	; 0x3892 <voHMon_Task+0x30>
    387c:	28 f0       	brcs	.+10     	; 0x3888 <voHMon_Task+0x26>
    387e:	82 30       	cpi	r24, 0x02	; 2
    3880:	69 f0       	breq	.+26     	; 0x389c <voHMon_Task+0x3a>
    3882:	83 30       	cpi	r24, 0x03	; 3
    3884:	59 f0       	breq	.+22     	; 0x389c <voHMon_Task+0x3a>
    3886:	0f c0       	rjmp	.+30     	; 0x38a6 <voHMon_Task+0x44>
		case 	LEVEL_OKAY:{
			tCollectedFaults.WaterLevelLowFault=0;
    3888:	10 92 5c 03 	sts	0x035C, r1	; 0x80035c <tCollectedFaults>
			tCollectedFaults.WaterLevelLowWarning=0;
    388c:	10 92 5d 03 	sts	0x035D, r1	; 0x80035d <tCollectedFaults+0x1>
		} break;
    3890:	0a c0       	rjmp	.+20     	; 0x38a6 <voHMon_Task+0x44>
		
		case LEVEL_MIN:{
			tCollectedFaults.WaterLevelLowWarning=1;
    3892:	80 93 5d 03 	sts	0x035D, r24	; 0x80035d <tCollectedFaults+0x1>
			tCollectedFaults.WaterLevelLowFault=0;
    3896:	10 92 5c 03 	sts	0x035C, r1	; 0x80035c <tCollectedFaults>
		} break;
    389a:	05 c0       	rjmp	.+10     	; 0x38a6 <voHMon_Task+0x44>
			tCollectedFaults.WaterLevelLowFault=1;
			tCollectedFaults.WaterLevelLowWarning=1;
		} break;
		
		case LEVEL_INVALID: {
			tCollectedFaults.WaterLevelLowFault=1;
    389c:	81 e0       	ldi	r24, 0x01	; 1
    389e:	80 93 5c 03 	sts	0x035C, r24	; 0x80035c <tCollectedFaults>
			tCollectedFaults.WaterLevelLowWarning=1;
    38a2:	80 93 5d 03 	sts	0x035D, r24	; 0x80035d <tCollectedFaults+0x1>
		}break;
		
	}
	
	/* Next is to check if we have a overtemp means more than 100 Degree C */
	if(  s16BLTMP_GetBoilerTemp() > (int16_t)(10000) ){
    38a6:	0e 94 48 0a 	call	0x1490	; 0x1490 <s16BLTMP_GetBoilerTemp>
    38aa:	81 31       	cpi	r24, 0x11	; 17
    38ac:	97 42       	sbci	r25, 0x27	; 39
    38ae:	24 f0       	brlt	.+8      	; 0x38b8 <voHMon_Task+0x56>
		tCollectedFaults.OverTemperaturFault=1;
    38b0:	81 e0       	ldi	r24, 0x01	; 1
    38b2:	80 93 5e 03 	sts	0x035E, r24	; 0x80035e <tCollectedFaults+0x2>
    38b6:	02 c0       	rjmp	.+4      	; 0x38bc <voHMon_Task+0x5a>
	} else {
		tCollectedFaults.OverTemperaturFault=0;
    38b8:	10 92 5e 03 	sts	0x035E, r1	; 0x80035e <tCollectedFaults+0x2>
	}
	
	/* Next is to check if we have a current flow at a given level to avoid a overheating and faulty triac */
	tCollectedFaults.BoilerDrawsNoCurrentFault=0; /* Currently not implemented */
    38bc:	10 92 5f 03 	sts	0x035F, r1	; 0x80035f <tCollectedFaults+0x3>
    38c0:	08 95       	ret

000038c2 <HMon_tGetFaultAndWarning>:
	
	/* Check is finished we need now let the other parts process the errors we found */
	
}

FaultAndWarning_t HMon_tGetFaultAndWarning( void ){
    38c2:	cf 93       	push	r28
    38c4:	df 93       	push	r29
    38c6:	00 d0       	rcall	.+0      	; 0x38c8 <HMon_tGetFaultAndWarning+0x6>
    38c8:	00 d0       	rcall	.+0      	; 0x38ca <HMon_tGetFaultAndWarning+0x8>
    38ca:	1f 92       	push	r1
    38cc:	cd b7       	in	r28, 0x3d	; 61
    38ce:	de b7       	in	r29, 0x3e	; 62
	
	return tCollectedFaults;
    38d0:	85 e0       	ldi	r24, 0x05	; 5
    38d2:	ec e5       	ldi	r30, 0x5C	; 92
    38d4:	f3 e0       	ldi	r31, 0x03	; 3
    38d6:	de 01       	movw	r26, r28
    38d8:	11 96       	adiw	r26, 0x01	; 1
    38da:	01 90       	ld	r0, Z+
    38dc:	0d 92       	st	X+, r0
    38de:	8a 95       	dec	r24
    38e0:	e1 f7       	brne	.-8      	; 0x38da <HMon_tGetFaultAndWarning+0x18>
    38e2:	29 81       	ldd	r18, Y+1	; 0x01
    38e4:	3a 81       	ldd	r19, Y+2	; 0x02
    38e6:	4b 81       	ldd	r20, Y+3	; 0x03
    38e8:	5c 81       	ldd	r21, Y+4	; 0x04
    38ea:	6d 81       	ldd	r22, Y+5	; 0x05
	
    38ec:	70 e0       	ldi	r23, 0x00	; 0
    38ee:	80 e0       	ldi	r24, 0x00	; 0
    38f0:	90 e0       	ldi	r25, 0x00	; 0
    38f2:	0f 90       	pop	r0
    38f4:	0f 90       	pop	r0
    38f6:	0f 90       	pop	r0
    38f8:	0f 90       	pop	r0
    38fa:	0f 90       	pop	r0
    38fc:	df 91       	pop	r29
    38fe:	cf 91       	pop	r28
    3900:	08 95       	ret

00003902 <voHPC_TaskInit>:
		
	} else {
		voSetHeaterPowerState(POWER_OFF);
	}

	u8CycleCounter++;
    3902:	10 92 05 03 	sts	0x0305, r1	; 0x800305 <u8PowerSourced>
    3906:	10 92 04 03 	sts	0x0304, r1	; 0x800304 <u8PowerLimit>
    390a:	10 92 03 03 	sts	0x0303, r1	; 0x800303 <u8CycleCounter>
    390e:	81 e0       	ldi	r24, 0x01	; 1
    3910:	0c 94 e6 07 	jmp	0xfcc	; 0xfcc <voSetHeaterPowerState>

00003914 <voHPC_SetPowerOutput>:
}


void voHPC_SetPowerOutput( uint8_t u8Power ){
	
	if(u8Power > 100 ){
    3914:	85 36       	cpi	r24, 0x65	; 101
    3916:	08 f0       	brcs	.+2      	; 0x391a <voHPC_SetPowerOutput+0x6>
		u8PowerLimit = 100;
    3918:	84 e6       	ldi	r24, 0x64	; 100
	} else {
		u8PowerLimit = u8Power;
    391a:	80 93 04 03 	sts	0x0304, r24	; 0x800304 <u8PowerLimit>
    391e:	08 95       	ret

00003920 <LLS_voInitTask>:
	
	uint8_t u8Elements = sizeof(Led_State)/sizeof(LED_STATUS_t);
	
	for(uint8_t u8i=0;u8i<u8Elements;u8i++){
		
		Led_State[u8i].CurrenFreq=LED_BLINK_OFF;
    3920:	e4 e6       	ldi	r30, 0x64	; 100
    3922:	f3 e0       	ldi	r31, 0x03	; 3
    3924:	87 e0       	ldi	r24, 0x07	; 7
    3926:	80 83       	st	Z, r24
		Led_State[u8i].PrevFreq=LED_BLINK_OFF;
    3928:	81 83       	std	Z+1, r24	; 0x01
		Led_State[u8i].InitialState=LED_OFF;
    392a:	91 e0       	ldi	r25, 0x01	; 1
    392c:	92 83       	std	Z+2, r25	; 0x02
	
	uint8_t u8Elements = sizeof(Led_State)/sizeof(LED_STATUS_t);
	
	for(uint8_t u8i=0;u8i<u8Elements;u8i++){
		
		Led_State[u8i].CurrenFreq=LED_BLINK_OFF;
    392e:	83 83       	std	Z+3, r24	; 0x03
		Led_State[u8i].PrevFreq=LED_BLINK_OFF;
    3930:	84 83       	std	Z+4, r24	; 0x04
		Led_State[u8i].InitialState=LED_OFF;
    3932:	95 83       	std	Z+5, r25	; 0x05
	
	uint8_t u8Elements = sizeof(Led_State)/sizeof(LED_STATUS_t);
	
	for(uint8_t u8i=0;u8i<u8Elements;u8i++){
		
		Led_State[u8i].CurrenFreq=LED_BLINK_OFF;
    3934:	86 83       	std	Z+6, r24	; 0x06
		Led_State[u8i].PrevFreq=LED_BLINK_OFF;
    3936:	87 83       	std	Z+7, r24	; 0x07
		Led_State[u8i].InitialState=LED_OFF;
    3938:	90 87       	std	Z+8, r25	; 0x08
	
	}
	
	u8_10Hz_Counter=0;
    393a:	10 92 62 03 	sts	0x0362, r1	; 0x800362 <u8_10Hz_Counter>
	u8_1Hz_Counter=0;
    393e:	10 92 61 03 	sts	0x0361, r1	; 0x800361 <u8_1Hz_Counter>
	u8_2Hz_Counter=0;
    3942:	10 92 6d 03 	sts	0x036D, r1	; 0x80036d <u8_2Hz_Counter>
	u8_5Hz_Counter=0;
    3946:	10 92 63 03 	sts	0x0363, r1	; 0x800363 <u8_5Hz_Counter>
    394a:	08 95       	ret

0000394c <LLS_voTask>:
	
	/* Init done for now */
}

void LLS_voTask( void ){
    394c:	0f 93       	push	r16
    394e:	1f 93       	push	r17
    3950:	cf 93       	push	r28
	/* We need to Check what to do */
	uint8_t u8Elements = sizeof(Led_State)/sizeof(LED_STATUS_t);
		
	/* Keep track of the Timing */
	u8_10Hz_Counter++;
    3952:	80 91 62 03 	lds	r24, 0x0362	; 0x800362 <u8_10Hz_Counter>
    3956:	8f 5f       	subi	r24, 0xFF	; 255
    3958:	80 93 62 03 	sts	0x0362, r24	; 0x800362 <u8_10Hz_Counter>
	u8_5Hz_Counter++;
    395c:	80 91 63 03 	lds	r24, 0x0363	; 0x800363 <u8_5Hz_Counter>
    3960:	8f 5f       	subi	r24, 0xFF	; 255
    3962:	80 93 63 03 	sts	0x0363, r24	; 0x800363 <u8_5Hz_Counter>
	u8_2Hz_Counter++;
    3966:	80 91 6d 03 	lds	r24, 0x036D	; 0x80036d <u8_2Hz_Counter>
    396a:	8f 5f       	subi	r24, 0xFF	; 255
    396c:	80 93 6d 03 	sts	0x036D, r24	; 0x80036d <u8_2Hz_Counter>
	u8_1Hz_Counter++;
    3970:	80 91 61 03 	lds	r24, 0x0361	; 0x800361 <u8_1Hz_Counter>
    3974:	8f 5f       	subi	r24, 0xFF	; 255
    3976:	80 93 61 03 	sts	0x0361, r24	; 0x800361 <u8_1Hz_Counter>
	
	if(u8_10Hz_Counter>0){
    397a:	80 91 62 03 	lds	r24, 0x0362	; 0x800362 <u8_10Hz_Counter>
    397e:	81 11       	cpse	r24, r1
		u8_10Hz_Counter=0;
    3980:	10 92 62 03 	sts	0x0362, r1	; 0x800362 <u8_10Hz_Counter>
	}
	
	if(u8_5Hz_Counter>1){
    3984:	80 91 63 03 	lds	r24, 0x0363	; 0x800363 <u8_5Hz_Counter>
    3988:	82 30       	cpi	r24, 0x02	; 2
    398a:	10 f0       	brcs	.+4      	; 0x3990 <LLS_voTask+0x44>
		u8_5Hz_Counter=0;
    398c:	10 92 63 03 	sts	0x0363, r1	; 0x800363 <u8_5Hz_Counter>
	}
	
	if(u8_2Hz_Counter>4){
    3990:	80 91 6d 03 	lds	r24, 0x036D	; 0x80036d <u8_2Hz_Counter>
    3994:	85 30       	cpi	r24, 0x05	; 5
    3996:	10 f0       	brcs	.+4      	; 0x399c <LLS_voTask+0x50>
		u8_2Hz_Counter=0;
    3998:	10 92 6d 03 	sts	0x036D, r1	; 0x80036d <u8_2Hz_Counter>
	}
	
	
	if(u8_1Hz_Counter>9){
    399c:	80 91 61 03 	lds	r24, 0x0361	; 0x800361 <u8_1Hz_Counter>
    39a0:	8a 30       	cpi	r24, 0x0A	; 10
    39a2:	10 f0       	brcs	.+4      	; 0x39a8 <LLS_voTask+0x5c>
		u8_1Hz_Counter=0;
    39a4:	10 92 61 03 	sts	0x0361, r1	; 0x800361 <u8_1Hz_Counter>
    39a8:	04 e6       	ldi	r16, 0x64	; 100
    39aa:	13 e0       	ldi	r17, 0x03	; 3
	u8_5Hz_Counter=0;
	
	/* Init done for now */
}

void LLS_voTask( void ){
    39ac:	c0 e0       	ldi	r28, 0x00	; 0
		u8_1Hz_Counter=0;
	}
	
	for(uint8_t u8i=0;u8i<u8Elements;u8i++){
		
		if(Led_State[u8i].CurrenFreq != Led_State[u8i].PrevFreq){
    39ae:	f8 01       	movw	r30, r16
    39b0:	80 81       	ld	r24, Z
    39b2:	91 81       	ldd	r25, Z+1	; 0x01
    39b4:	89 17       	cp	r24, r25
    39b6:	71 f0       	breq	.+28     	; 0x39d4 <LLS_voTask+0x88>
			Led_State[u8i].PrevFreq = Led_State[u8i].CurrenFreq;
    39b8:	81 83       	std	Z+1, r24	; 0x01
			if(Led_State[u8i].CurrenFreq!=LED_BLINK_OFF){
    39ba:	87 30       	cpi	r24, 0x07	; 7
    39bc:	31 f0       	breq	.+12     	; 0x39ca <LLS_voTask+0x7e>
				Led_State[u8i].InitialState=emGetLedState(u8i);
    39be:	8c 2f       	mov	r24, r28
    39c0:	0e 94 ad 07 	call	0xf5a	; 0xf5a <emGetLedState>
    39c4:	f8 01       	movw	r30, r16
    39c6:	82 83       	std	Z+2, r24	; 0x02
    39c8:	05 c0       	rjmp	.+10     	; 0x39d4 <LLS_voTask+0x88>
			} else {
				voSetLedState(u8i,Led_State[u8i].InitialState);
    39ca:	f8 01       	movw	r30, r16
    39cc:	62 81       	ldd	r22, Z+2	; 0x02
    39ce:	8c 2f       	mov	r24, r28
    39d0:	0e 94 83 07 	call	0xf06	; 0xf06 <voSetLedState>
			}
		}
		
		switch(Led_State[u8i].CurrenFreq){
    39d4:	f8 01       	movw	r30, r16
    39d6:	80 81       	ld	r24, Z
    39d8:	82 30       	cpi	r24, 0x02	; 2
    39da:	d1 f0       	breq	.+52     	; 0x3a10 <LLS_voTask+0xc4>
    39dc:	28 f4       	brcc	.+10     	; 0x39e8 <LLS_voTask+0x9c>
    39de:	88 23       	and	r24, r24
    39e0:	61 f0       	breq	.+24     	; 0x39fa <LLS_voTask+0xae>
    39e2:	81 30       	cpi	r24, 0x01	; 1
    39e4:	91 f0       	breq	.+36     	; 0x3a0a <LLS_voTask+0xbe>
    39e6:	20 c0       	rjmp	.+64     	; 0x3a28 <LLS_voTask+0xdc>
    39e8:	88 30       	cpi	r24, 0x08	; 8
    39ea:	c1 f0       	breq	.+48     	; 0x3a1c <LLS_voTask+0xd0>
    39ec:	89 30       	cpi	r24, 0x09	; 9
    39ee:	c1 f0       	breq	.+48     	; 0x3a20 <LLS_voTask+0xd4>
    39f0:	83 30       	cpi	r24, 0x03	; 3
    39f2:	d1 f4       	brne	.+52     	; 0x3a28 <LLS_voTask+0xdc>
					voSetLedState(u8i,LED_TOGGLE);
				}
			} break;

			case LED_BLINK_1Hz:{
				if(u8_1Hz_Counter==0){
    39f4:	80 91 61 03 	lds	r24, 0x0361	; 0x800361 <u8_1Hz_Counter>
    39f8:	0d c0       	rjmp	.+26     	; 0x3a14 <LLS_voTask+0xc8>
		}
		
		switch(Led_State[u8i].CurrenFreq){
			
			case LED_BLINK_10Hz:{
				if(u8_10Hz_Counter==0){
    39fa:	80 91 62 03 	lds	r24, 0x0362	; 0x800362 <u8_10Hz_Counter>
    39fe:	81 11       	cpse	r24, r1
    3a00:	04 c0       	rjmp	.+8      	; 0x3a0a <LLS_voTask+0xbe>
					voSetLedState(u8i,LED_TOGGLE);
    3a02:	62 e0       	ldi	r22, 0x02	; 2
    3a04:	8c 2f       	mov	r24, r28
    3a06:	0e 94 83 07 	call	0xf06	; 0xf06 <voSetLedState>
				}
			
			}
				
			case LED_BLINK_5Hz:{
				if(u8_5Hz_Counter==0){
    3a0a:	80 91 63 03 	lds	r24, 0x0363	; 0x800363 <u8_5Hz_Counter>
    3a0e:	02 c0       	rjmp	.+4      	; 0x3a14 <LLS_voTask+0xc8>
					voSetLedState(u8i,LED_TOGGLE);
				}
			} break;

			case LED_BLINK_2Hz:{
				if(u8_2Hz_Counter==0){
    3a10:	80 91 6d 03 	lds	r24, 0x036D	; 0x80036d <u8_2Hz_Counter>
					voSetLedState(u8i,LED_TOGGLE);
				}
			} break;

			case LED_BLINK_1Hz:{
				if(u8_1Hz_Counter==0){
    3a14:	81 11       	cpse	r24, r1
    3a16:	08 c0       	rjmp	.+16     	; 0x3a28 <LLS_voTask+0xdc>
					voSetLedState(u8i,LED_TOGGLE);
    3a18:	62 e0       	ldi	r22, 0x02	; 2
    3a1a:	03 c0       	rjmp	.+6      	; 0x3a22 <LLS_voTask+0xd6>
				}
			} break;							
			
			case LED_STATIC_OFF:{
				voSetLedState(u8i,LED_OFF);
    3a1c:	61 e0       	ldi	r22, 0x01	; 1
    3a1e:	01 c0       	rjmp	.+2      	; 0x3a22 <LLS_voTask+0xd6>
			}break;
			
			case LED_STATIC_ON:{
				voSetLedState(u8i,LED_ON);
    3a20:	60 e0       	ldi	r22, 0x00	; 0
    3a22:	8c 2f       	mov	r24, r28
    3a24:	0e 94 83 07 	call	0xf06	; 0xf06 <voSetLedState>
	
	if(u8_1Hz_Counter>9){
		u8_1Hz_Counter=0;
	}
	
	for(uint8_t u8i=0;u8i<u8Elements;u8i++){
    3a28:	cf 5f       	subi	r28, 0xFF	; 255
    3a2a:	0d 5f       	subi	r16, 0xFD	; 253
    3a2c:	1f 4f       	sbci	r17, 0xFF	; 255
    3a2e:	c3 30       	cpi	r28, 0x03	; 3
    3a30:	09 f0       	breq	.+2      	; 0x3a34 <LLS_voTask+0xe8>
    3a32:	bd cf       	rjmp	.-134    	; 0x39ae <LLS_voTask+0x62>
		}
		
	}
	
	
}
    3a34:	cf 91       	pop	r28
    3a36:	1f 91       	pop	r17
    3a38:	0f 91       	pop	r16
    3a3a:	08 95       	ret

00003a3c <LLS_voSetLedLightning>:

void LLS_voSetLedLightning( LED_t emLed , LED_BLINK_Frq_t emFreq ){
	
	/* we need to MAP the enum to the LED Index here */
	
	switch(emLed){
    3a3c:	81 30       	cpi	r24, 0x01	; 1
    3a3e:	59 f0       	breq	.+22     	; 0x3a56 <LLS_voSetLedLightning+0x1a>
    3a40:	18 f0       	brcs	.+6      	; 0x3a48 <LLS_voSetLedLightning+0xc>
    3a42:	82 30       	cpi	r24, 0x02	; 2
    3a44:	79 f0       	breq	.+30     	; 0x3a64 <LLS_voSetLedLightning+0x28>
    3a46:	08 95       	ret
		
		case LED_ONECUP:{
			/* This should be 0 */
			if(Led_State[0].CurrenFreq!=emFreq){
    3a48:	80 91 64 03 	lds	r24, 0x0364	; 0x800364 <Led_State>
    3a4c:	86 17       	cp	r24, r22
    3a4e:	79 f0       	breq	.+30     	; 0x3a6e <LLS_voSetLedLightning+0x32>
				Led_State[0].CurrenFreq=emFreq;
    3a50:	60 93 64 03 	sts	0x0364, r22	; 0x800364 <Led_State>
    3a54:	08 95       	ret
		} break;
		
		
		case LED_POWER:{
			/* This is 1 */
			if(Led_State[1].CurrenFreq!=emFreq){
    3a56:	80 91 67 03 	lds	r24, 0x0367	; 0x800367 <Led_State+0x3>
    3a5a:	68 17       	cp	r22, r24
    3a5c:	41 f0       	breq	.+16     	; 0x3a6e <LLS_voSetLedLightning+0x32>
				Led_State[1].CurrenFreq=emFreq;
    3a5e:	60 93 67 03 	sts	0x0367, r22	; 0x800367 <Led_State+0x3>
    3a62:	08 95       	ret
		}break;
		
		
		case LED_TWOCUP:{
			/* And this should be 2 */
			if(Led_State[2].CurrenFreq!=emFreq){
    3a64:	80 91 6a 03 	lds	r24, 0x036A	; 0x80036a <Led_State+0x6>
    3a68:	68 13       	cpse	r22, r24
				Led_State[2].CurrenFreq=emFreq;
    3a6a:	60 93 6a 03 	sts	0x036A, r22	; 0x80036a <Led_State+0x6>
    3a6e:	08 95       	ret

00003a70 <voPWRMTR_InitPowermeter>:
	return u32RawValue;
}

uint32_t u32PWRMTR_GetuAmp(){
	return u16AvgPower*610;	
}
    3a70:	10 92 0d 03 	sts	0x030D, r1	; 0x80030d <u16AvgPower+0x1>
    3a74:	10 92 0c 03 	sts	0x030C, r1	; 0x80030c <u16AvgPower>
    3a78:	08 95       	ret

00003a7a <voPWRMTR_AddNewMessurment>:
    3a7a:	0f 93       	push	r16
    3a7c:	1f 93       	push	r17
    3a7e:	20 91 06 03 	lds	r18, 0x0306	; 0x800306 <u8MessurmentCounter>
    3a82:	30 91 07 03 	lds	r19, 0x0307	; 0x800307 <u8MessurmentCounter+0x1>
    3a86:	2f 5f       	subi	r18, 0xFF	; 255
    3a88:	3f 4f       	sbci	r19, 0xFF	; 255
    3a8a:	30 93 07 03 	sts	0x0307, r19	; 0x800307 <u8MessurmentCounter+0x1>
    3a8e:	20 93 06 03 	sts	0x0306, r18	; 0x800306 <u8MessurmentCounter>
    3a92:	20 91 06 03 	lds	r18, 0x0306	; 0x800306 <u8MessurmentCounter>
    3a96:	30 91 07 03 	lds	r19, 0x0307	; 0x800307 <u8MessurmentCounter+0x1>
    3a9a:	21 15       	cp	r18, r1
    3a9c:	30 41       	sbci	r19, 0x10	; 16
    3a9e:	f8 f0       	brcs	.+62     	; 0x3ade <voPWRMTR_AddNewMessurment+0x64>
    3aa0:	40 91 08 03 	lds	r20, 0x0308	; 0x800308 <u32RawValue>
    3aa4:	50 91 09 03 	lds	r21, 0x0309	; 0x800309 <u32RawValue+0x1>
    3aa8:	60 91 0a 03 	lds	r22, 0x030A	; 0x80030a <u32RawValue+0x2>
    3aac:	70 91 0b 03 	lds	r23, 0x030B	; 0x80030b <u32RawValue+0x3>
    3ab0:	2c e0       	ldi	r18, 0x0C	; 12
    3ab2:	76 95       	lsr	r23
    3ab4:	67 95       	ror	r22
    3ab6:	57 95       	ror	r21
    3ab8:	47 95       	ror	r20
    3aba:	2a 95       	dec	r18
    3abc:	d1 f7       	brne	.-12     	; 0x3ab2 <voPWRMTR_AddNewMessurment+0x38>
    3abe:	50 93 0d 03 	sts	0x030D, r21	; 0x80030d <u16AvgPower+0x1>
    3ac2:	40 93 0c 03 	sts	0x030C, r20	; 0x80030c <u16AvgPower>
    3ac6:	10 92 07 03 	sts	0x0307, r1	; 0x800307 <u8MessurmentCounter+0x1>
    3aca:	10 92 06 03 	sts	0x0306, r1	; 0x800306 <u8MessurmentCounter>
    3ace:	10 92 08 03 	sts	0x0308, r1	; 0x800308 <u32RawValue>
    3ad2:	10 92 09 03 	sts	0x0309, r1	; 0x800309 <u32RawValue+0x1>
    3ad6:	10 92 0a 03 	sts	0x030A, r1	; 0x80030a <u32RawValue+0x2>
    3ada:	10 92 0b 03 	sts	0x030B, r1	; 0x80030b <u32RawValue+0x3>
    3ade:	40 91 08 03 	lds	r20, 0x0308	; 0x800308 <u32RawValue>
    3ae2:	50 91 09 03 	lds	r21, 0x0309	; 0x800309 <u32RawValue+0x1>
    3ae6:	60 91 0a 03 	lds	r22, 0x030A	; 0x80030a <u32RawValue+0x2>
    3aea:	70 91 0b 03 	lds	r23, 0x030B	; 0x80030b <u32RawValue+0x3>
    3aee:	97 ff       	sbrs	r25, 7
    3af0:	02 c0       	rjmp	.+4      	; 0x3af6 <voPWRMTR_AddNewMessurment+0x7c>
    3af2:	9f 77       	andi	r25, 0x7F	; 127
    3af4:	06 c0       	rjmp	.+12     	; 0x3b02 <voPWRMTR_AddNewMessurment+0x88>
    3af6:	20 e0       	ldi	r18, 0x00	; 0
    3af8:	30 e8       	ldi	r19, 0x80	; 128
    3afa:	f9 01       	movw	r30, r18
    3afc:	e8 1b       	sub	r30, r24
    3afe:	f9 0b       	sbc	r31, r25
    3b00:	cf 01       	movw	r24, r30
    3b02:	8a 01       	movw	r16, r20
    3b04:	9b 01       	movw	r18, r22
    3b06:	08 0f       	add	r16, r24
    3b08:	19 1f       	adc	r17, r25
    3b0a:	21 1d       	adc	r18, r1
    3b0c:	31 1d       	adc	r19, r1
    3b0e:	00 93 08 03 	sts	0x0308, r16	; 0x800308 <u32RawValue>
    3b12:	10 93 09 03 	sts	0x0309, r17	; 0x800309 <u32RawValue+0x1>
    3b16:	20 93 0a 03 	sts	0x030A, r18	; 0x80030a <u32RawValue+0x2>
    3b1a:	30 93 0b 03 	sts	0x030B, r19	; 0x80030b <u32RawValue+0x3>
    3b1e:	1f 91       	pop	r17
    3b20:	0f 91       	pop	r16
    3b22:	08 95       	ret

00003b24 <u32PWRMTR_GetmAmp>:

uint32_t u32PWRMTR_GetmAmp(){
	return ( (u16AvgPower*610)/1000 );	
    3b24:	80 91 0c 03 	lds	r24, 0x030C	; 0x80030c <u16AvgPower>
    3b28:	90 91 0d 03 	lds	r25, 0x030D	; 0x80030d <u16AvgPower+0x1>
    3b2c:	62 e6       	ldi	r22, 0x62	; 98
    3b2e:	72 e0       	ldi	r23, 0x02	; 2
    3b30:	f9 d7       	rcall	.+4082   	; 0x4b24 <__mulhi3>
    3b32:	68 ee       	ldi	r22, 0xE8	; 232
    3b34:	73 e0       	ldi	r23, 0x03	; 3
    3b36:	0e 94 bc 25 	call	0x4b78	; 0x4b78 <__udivmodhi4>
    3b3a:	80 e0       	ldi	r24, 0x00	; 0
    3b3c:	90 e0       	ldi	r25, 0x00	; 0
}
    3b3e:	08 95       	ret

00003b40 <voPSE_TaskInit>:
	
}

PUMPSTATE_t emGetPumpState( void ){
	return emPumpState;
}
    3b40:	10 92 10 03 	sts	0x0310, r1	; 0x800310 <u16PumpRuntime+0x1>
    3b44:	10 92 0f 03 	sts	0x030F, r1	; 0x80030f <u16PumpRuntime>
    3b48:	83 e0       	ldi	r24, 0x03	; 3
    3b4a:	80 93 0e 03 	sts	0x030E, r24	; 0x80030e <emPumpState>
    3b4e:	08 95       	ret

00003b50 <voPSE_Task>:
    3b50:	0e 94 fb 07 	call	0xff6	; 0xff6 <emGetPumpPowerState>
    3b54:	81 30       	cpi	r24, 0x01	; 1
    3b56:	39 f4       	brne	.+14     	; 0x3b66 <voPSE_Task+0x16>
    3b58:	10 92 10 03 	sts	0x0310, r1	; 0x800310 <u16PumpRuntime+0x1>
    3b5c:	10 92 0f 03 	sts	0x030F, r1	; 0x80030f <u16PumpRuntime>
    3b60:	80 93 0e 03 	sts	0x030E, r24	; 0x80030e <emPumpState>
    3b64:	08 95       	ret
    3b66:	80 91 0f 03 	lds	r24, 0x030F	; 0x80030f <u16PumpRuntime>
    3b6a:	90 91 10 03 	lds	r25, 0x0310	; 0x800310 <u16PumpRuntime+0x1>
    3b6e:	8f 3f       	cpi	r24, 0xFF	; 255
    3b70:	2f ef       	ldi	r18, 0xFF	; 255
    3b72:	92 07       	cpc	r25, r18
    3b74:	29 f0       	breq	.+10     	; 0x3b80 <voPSE_Task+0x30>
    3b76:	01 96       	adiw	r24, 0x01	; 1
    3b78:	90 93 10 03 	sts	0x0310, r25	; 0x800310 <u16PumpRuntime+0x1>
    3b7c:	80 93 0f 03 	sts	0x030F, r24	; 0x80030f <u16PumpRuntime>
    3b80:	08 95       	ret

00003b82 <voSetPumpState>:

void voSetPumpState( PUMPSTATE_t PumpState){
	/* We accept here only Running and Off */
	if(PumpState==PUMP_RUNNING){
    3b82:	88 23       	and	r24, r24
    3b84:	31 f0       	breq	.+12     	; 0x3b92 <voSetPumpState+0x10>
		voSetPumpPowerState(POWER_ON);
	} else if (PumpState == PUMP_OFF){
    3b86:	81 30       	cpi	r24, 0x01	; 1
    3b88:	31 f4       	brne	.+12     	; 0x3b96 <voSetPumpState+0x14>
		u16PumpRuntime=0;
    3b8a:	10 92 10 03 	sts	0x0310, r1	; 0x800310 <u16PumpRuntime+0x1>
    3b8e:	10 92 0f 03 	sts	0x030F, r1	; 0x80030f <u16PumpRuntime>
		voSetPumpPowerState(POWER_OFF);
    3b92:	0c 94 f5 07 	jmp	0xfea	; 0xfea <voSetPumpPowerState>
    3b96:	08 95       	ret

00003b98 <u32PSE_GetCurrentRuntimeMS>:
		/* Do nothing */
	}
}

uint32_t u32PSE_GetCurrentRuntimeMS( void ){
	return u16PumpRuntime*100;
    3b98:	80 91 0f 03 	lds	r24, 0x030F	; 0x80030f <u16PumpRuntime>
    3b9c:	90 91 10 03 	lds	r25, 0x0310	; 0x800310 <u16PumpRuntime+0x1>
    3ba0:	64 e6       	ldi	r22, 0x64	; 100
    3ba2:	70 e0       	ldi	r23, 0x00	; 0
    3ba4:	bf d7       	rcall	.+3966   	; 0x4b24 <__mulhi3>
    3ba6:	bc 01       	movw	r22, r24
    3ba8:	80 e0       	ldi	r24, 0x00	; 0
    3baa:	90 e0       	ldi	r25, 0x00	; 0
}
    3bac:	08 95       	ret

00003bae <voTMS_InitTask>:


void voTMS_InitTask( void ){
	
	for(uint8_t i=0;i < NO_OF_TIMER ; i++){
		TimoutMsCounter[i]=0;	
    3bae:	ee e6       	ldi	r30, 0x6E	; 110
    3bb0:	f3 e0       	ldi	r31, 0x03	; 3
    3bb2:	10 82       	st	Z, r1
    3bb4:	11 82       	std	Z+1, r1	; 0x01
    3bb6:	12 82       	std	Z+2, r1	; 0x02
    3bb8:	13 82       	std	Z+3, r1	; 0x03
    3bba:	14 82       	std	Z+4, r1	; 0x04
    3bbc:	15 82       	std	Z+5, r1	; 0x05
    3bbe:	16 82       	std	Z+6, r1	; 0x06
    3bc0:	17 82       	std	Z+7, r1	; 0x07
    3bc2:	10 86       	std	Z+8, r1	; 0x08
    3bc4:	11 86       	std	Z+9, r1	; 0x09
    3bc6:	12 86       	std	Z+10, r1	; 0x0a
    3bc8:	13 86       	std	Z+11, r1	; 0x0b
    3bca:	08 95       	ret

00003bcc <voTMS_Task>:
	}
	
}

void voTMS_Task( void ){
    3bcc:	80 e0       	ldi	r24, 0x00	; 0
    3bce:	90 e0       	ldi	r25, 0x00	; 0
	
	for(uint8_t i=0;i<NO_OF_TIMER;i++){
		if( TimoutMsCounter[i] > CALLTIME ){
    3bd0:	fc 01       	movw	r30, r24
    3bd2:	ee 0f       	add	r30, r30
    3bd4:	ff 1f       	adc	r31, r31
    3bd6:	ee 0f       	add	r30, r30
    3bd8:	ff 1f       	adc	r31, r31
    3bda:	e2 59       	subi	r30, 0x92	; 146
    3bdc:	fc 4f       	sbci	r31, 0xFC	; 252
    3bde:	40 81       	ld	r20, Z
    3be0:	51 81       	ldd	r21, Z+1	; 0x01
    3be2:	62 81       	ldd	r22, Z+2	; 0x02
    3be4:	73 81       	ldd	r23, Z+3	; 0x03
    3be6:	45 36       	cpi	r20, 0x65	; 101
    3be8:	51 05       	cpc	r21, r1
    3bea:	61 05       	cpc	r22, r1
    3bec:	71 05       	cpc	r23, r1
    3bee:	68 f0       	brcs	.+26     	; 0x3c0a <voTMS_Task+0x3e>
	
			TimoutMsCounter[i] -= CALLTIME;
    3bf0:	40 81       	ld	r20, Z
    3bf2:	51 81       	ldd	r21, Z+1	; 0x01
    3bf4:	62 81       	ldd	r22, Z+2	; 0x02
    3bf6:	73 81       	ldd	r23, Z+3	; 0x03
    3bf8:	44 56       	subi	r20, 0x64	; 100
    3bfa:	51 09       	sbc	r21, r1
    3bfc:	61 09       	sbc	r22, r1
    3bfe:	71 09       	sbc	r23, r1
    3c00:	40 83       	st	Z, r20
    3c02:	51 83       	std	Z+1, r21	; 0x01
    3c04:	62 83       	std	Z+2, r22	; 0x02
    3c06:	73 83       	std	Z+3, r23	; 0x03
    3c08:	04 c0       	rjmp	.+8      	; 0x3c12 <voTMS_Task+0x46>
	
		} else {
	
			TimoutMsCounter[i] = 0;
    3c0a:	10 82       	st	Z, r1
    3c0c:	11 82       	std	Z+1, r1	; 0x01
    3c0e:	12 82       	std	Z+2, r1	; 0x02
    3c10:	13 82       	std	Z+3, r1	; 0x03
    3c12:	01 96       	adiw	r24, 0x01	; 1
	
}

void voTMS_Task( void ){
	
	for(uint8_t i=0;i<NO_OF_TIMER;i++){
    3c14:	83 30       	cpi	r24, 0x03	; 3
    3c16:	91 05       	cpc	r25, r1
    3c18:	d9 f6       	brne	.-74     	; 0x3bd0 <voTMS_Task+0x4>
			TimoutMsCounter[i] = 0;
		
		}
	}
	
}
    3c1a:	08 95       	ret

00003c1c <voSetTimeOut>:


void voSetTimeOut( uint8_t u8idx, uint32_t TimeOutMS ){
	
	if(u8idx<NO_OF_TIMER){
    3c1c:	83 30       	cpi	r24, 0x03	; 3
    3c1e:	60 f4       	brcc	.+24     	; 0x3c38 <voSetTimeOut+0x1c>
		TimoutMsCounter[u8idx] = TimeOutMS;
    3c20:	e8 2f       	mov	r30, r24
    3c22:	f0 e0       	ldi	r31, 0x00	; 0
    3c24:	ee 0f       	add	r30, r30
    3c26:	ff 1f       	adc	r31, r31
    3c28:	ee 0f       	add	r30, r30
    3c2a:	ff 1f       	adc	r31, r31
    3c2c:	e2 59       	subi	r30, 0x92	; 146
    3c2e:	fc 4f       	sbci	r31, 0xFC	; 252
    3c30:	40 83       	st	Z, r20
    3c32:	51 83       	std	Z+1, r21	; 0x01
    3c34:	62 83       	std	Z+2, r22	; 0x02
    3c36:	73 83       	std	Z+3, r23	; 0x03
    3c38:	08 95       	ret

00003c3a <u8GetTimeElapsed>:
	
}

uint8_t u8GetTimeElapsed( uint8_t u8idx ){
	
	if(u8idx<NO_OF_TIMER){
    3c3a:	83 30       	cpi	r24, 0x03	; 3
    3c3c:	98 f4       	brcc	.+38     	; 0x3c64 <u8GetTimeElapsed+0x2a>
		if(TimoutMsCounter[u8idx] > 0 ) {
    3c3e:	e8 2f       	mov	r30, r24
    3c40:	f0 e0       	ldi	r31, 0x00	; 0
    3c42:	ee 0f       	add	r30, r30
    3c44:	ff 1f       	adc	r31, r31
    3c46:	ee 0f       	add	r30, r30
    3c48:	ff 1f       	adc	r31, r31
    3c4a:	e2 59       	subi	r30, 0x92	; 146
    3c4c:	fc 4f       	sbci	r31, 0xFC	; 252
    3c4e:	40 81       	ld	r20, Z
    3c50:	51 81       	ldd	r21, Z+1	; 0x01
    3c52:	62 81       	ldd	r22, Z+2	; 0x02
    3c54:	73 81       	ldd	r23, Z+3	; 0x03
			return TMS_NOT_ELAPSED;
    3c56:	81 e0       	ldi	r24, 0x01	; 1
    3c58:	45 2b       	or	r20, r21
    3c5a:	46 2b       	or	r20, r22
    3c5c:	47 2b       	or	r20, r23
    3c5e:	19 f0       	breq	.+6      	; 0x3c66 <u8GetTimeElapsed+0x2c>
    3c60:	80 e0       	ldi	r24, 0x00	; 0
    3c62:	08 95       	ret
		} else {
			return TMS_ELAPSED;
		}
	} else {
		return TMS_ELAPSED;
    3c64:	81 e0       	ldi	r24, 0x01	; 1
	}
	
	
    3c66:	08 95       	ret

00003c68 <boGetConnected>:

volatile FILE USBSerialStream ;
volatile bool connected = false;

bool boGetConnected( void ){
	return connected;
    3c68:	80 91 11 03 	lds	r24, 0x0311	; 0x800311 <connected>
}
    3c6c:	08 95       	ret

00003c6e <voSetConnected>:

void voSetConnected(bool con){
	connected = con;
    3c6e:	80 93 11 03 	sts	0x0311, r24	; 0x800311 <connected>
    3c72:	08 95       	ret

00003c74 <GetUSBStream>:
}

FILE* GetUSBStream( void ){
	return (FILE*)&USBSerialStream;
}
    3c74:	8a e7       	ldi	r24, 0x7A	; 122
    3c76:	93 e0       	ldi	r25, 0x03	; 3
    3c78:	08 95       	ret

00003c7a <voSetUSBStream>:

void voSetUSBStream(FILE Stream){
    3c7a:	cf 92       	push	r12
    3c7c:	df 92       	push	r13
    3c7e:	ef 92       	push	r14
    3c80:	ff 92       	push	r15
    3c82:	0f 93       	push	r16
    3c84:	1f 93       	push	r17
    3c86:	cf 93       	push	r28
    3c88:	df 93       	push	r29
    3c8a:	cd b7       	in	r28, 0x3d	; 61
    3c8c:	de b7       	in	r29, 0x3e	; 62
    3c8e:	2e 97       	sbiw	r28, 0x0e	; 14
    3c90:	0f b6       	in	r0, 0x3f	; 63
    3c92:	f8 94       	cli
    3c94:	de bf       	out	0x3e, r29	; 62
    3c96:	0f be       	out	0x3f, r0	; 63
    3c98:	cd bf       	out	0x3d, r28	; 61
    3c9a:	c9 82       	std	Y+1, r12	; 0x01
    3c9c:	da 82       	std	Y+2, r13	; 0x02
    3c9e:	eb 82       	std	Y+3, r14	; 0x03
    3ca0:	fc 82       	std	Y+4, r15	; 0x04
    3ca2:	0d 83       	std	Y+5, r16	; 0x05
    3ca4:	1e 83       	std	Y+6, r17	; 0x06
    3ca6:	2f 83       	std	Y+7, r18	; 0x07
    3ca8:	38 87       	std	Y+8, r19	; 0x08
    3caa:	49 87       	std	Y+9, r20	; 0x09
    3cac:	5a 87       	std	Y+10, r21	; 0x0a
    3cae:	6b 87       	std	Y+11, r22	; 0x0b
    3cb0:	7c 87       	std	Y+12, r23	; 0x0c
    3cb2:	8d 87       	std	Y+13, r24	; 0x0d
    3cb4:	9e 87       	std	Y+14, r25	; 0x0e
	USBSerialStream = Stream;
    3cb6:	8e e0       	ldi	r24, 0x0E	; 14
    3cb8:	fe 01       	movw	r30, r28
    3cba:	31 96       	adiw	r30, 0x01	; 1
    3cbc:	aa e7       	ldi	r26, 0x7A	; 122
    3cbe:	b3 e0       	ldi	r27, 0x03	; 3
    3cc0:	01 90       	ld	r0, Z+
    3cc2:	0d 92       	st	X+, r0
    3cc4:	8a 95       	dec	r24
    3cc6:	e1 f7       	brne	.-8      	; 0x3cc0 <voSetUSBStream+0x46>
    3cc8:	2e 96       	adiw	r28, 0x0e	; 14
    3cca:	0f b6       	in	r0, 0x3f	; 63
    3ccc:	f8 94       	cli
    3cce:	de bf       	out	0x3e, r29	; 62
    3cd0:	0f be       	out	0x3f, r0	; 63
    3cd2:	cd bf       	out	0x3d, r28	; 61
    3cd4:	df 91       	pop	r29
    3cd6:	cf 91       	pop	r28
    3cd8:	1f 91       	pop	r17
    3cda:	0f 91       	pop	r16
    3cdc:	ff 90       	pop	r15
    3cde:	ef 90       	pop	r14
    3ce0:	df 90       	pop	r13
    3ce2:	cf 90       	pop	r12
    3ce4:	08 95       	ret

00003ce6 <WLM_voTask>:
volatile emSWITCHSTATE emSwitchDebouncedHigh=SWITCH_RELEASED;

volatile uint8_t u8switch_high_debounce=0;
volatile uint8_t u8switch_low_debounce=0;

void WLM_voTask(){
    3ce6:	cf 93       	push	r28
	/* Also we do this in the Empty direction as well but not that hard */
	
	emSWITCHSTATE emLowLevelSensor=SWITCH_RELEASED;
	emSWITCHSTATE emHighLevelSensor=SWITCH_RELEASED;
	
	emLowLevelSensor = emGetHallSwitchState( LOW_LEVEL_SENSOR );
    3ce8:	80 e0       	ldi	r24, 0x00	; 0
    3cea:	0e 94 d6 07 	call	0xfac	; 0xfac <emGetHallSwitchState>
    3cee:	c8 2f       	mov	r28, r24
	emHighLevelSensor = emGetHallSwitchState( HIGH_LEVEL_SENSOR );
    3cf0:	81 e0       	ldi	r24, 0x01	; 1
    3cf2:	0e 94 d6 07 	call	0xfac	; 0xfac <emGetHallSwitchState>
	
	if(emSwitchDebouncedLow!=emLowLevelSensor){
    3cf6:	90 91 02 01 	lds	r25, 0x0102	; 0x800102 <emSwitchDebouncedLow>
    3cfa:	c9 17       	cp	r28, r25
    3cfc:	a1 f0       	breq	.+40     	; 0x3d26 <WLM_voTask+0x40>
		if(emLowLevelSensor==SWITCH_PRESSED){
			if(u8switch_low_debounce < DEBOUNCE_HIGH){
    3cfe:	90 91 12 03 	lds	r25, 0x0312	; 0x800312 <u8switch_low_debounce>
	
	emLowLevelSensor = emGetHallSwitchState( LOW_LEVEL_SENSOR );
	emHighLevelSensor = emGetHallSwitchState( HIGH_LEVEL_SENSOR );
	
	if(emSwitchDebouncedLow!=emLowLevelSensor){
		if(emLowLevelSensor==SWITCH_PRESSED){
    3d02:	c1 11       	cpse	r28, r1
    3d04:	05 c0       	rjmp	.+10     	; 0x3d10 <WLM_voTask+0x2a>
			if(u8switch_low_debounce < DEBOUNCE_HIGH){
    3d06:	9a 30       	cpi	r25, 0x0A	; 10
    3d08:	28 f0       	brcs	.+10     	; 0x3d14 <WLM_voTask+0x2e>
				u8switch_low_debounce++;
			} else {
				emSwitchDebouncedLow=emLowLevelSensor; /* SW will detect a transition if */
    3d0a:	10 92 02 01 	sts	0x0102, r1	; 0x800102 <emSwitchDebouncedLow>
    3d0e:	0d c0       	rjmp	.+26     	; 0x3d2a <WLM_voTask+0x44>
			}
		} else {
			if(u8switch_low_debounce < DEBOUNCE_LOW){
    3d10:	93 30       	cpi	r25, 0x03	; 3
    3d12:	30 f4       	brcc	.+12     	; 0x3d20 <WLM_voTask+0x3a>
				u8switch_low_debounce++;
    3d14:	90 91 12 03 	lds	r25, 0x0312	; 0x800312 <u8switch_low_debounce>
    3d18:	9f 5f       	subi	r25, 0xFF	; 255
    3d1a:	90 93 12 03 	sts	0x0312, r25	; 0x800312 <u8switch_low_debounce>
    3d1e:	05 c0       	rjmp	.+10     	; 0x3d2a <WLM_voTask+0x44>
				} else {
				emSwitchDebouncedLow=emLowLevelSensor; /* SW will detect a transition if */
    3d20:	c0 93 02 01 	sts	0x0102, r28	; 0x800102 <emSwitchDebouncedLow>
    3d24:	02 c0       	rjmp	.+4      	; 0x3d2a <WLM_voTask+0x44>
			}
		}
	} else {
		u8switch_low_debounce=0;
    3d26:	10 92 12 03 	sts	0x0312, r1	; 0x800312 <u8switch_low_debounce>
	}
	
	if(emSwitchDebouncedHigh!=emHighLevelSensor){
    3d2a:	90 91 01 01 	lds	r25, 0x0101	; 0x800101 <emSwitchDebouncedHigh>
    3d2e:	89 17       	cp	r24, r25
    3d30:	89 f0       	breq	.+34     	; 0x3d54 <WLM_voTask+0x6e>
		if(emHighLevelSensor==SWITCH_PRESSED){
    3d32:	81 11       	cpse	r24, r1
    3d34:	05 c0       	rjmp	.+10     	; 0x3d40 <WLM_voTask+0x5a>
			if(u8switch_high_debounce < DEBOUNCE_HIGH){
    3d36:	80 91 13 03 	lds	r24, 0x0313	; 0x800313 <u8switch_high_debounce>
    3d3a:	8a 30       	cpi	r24, 0x0A	; 10
    3d3c:	68 f4       	brcc	.+26     	; 0x3d58 <WLM_voTask+0x72>
    3d3e:	04 c0       	rjmp	.+8      	; 0x3d48 <WLM_voTask+0x62>
				u8switch_high_debounce++;
				} else {
				emHighLevelSensor=emHighLevelSensor; /* SW will detect a transition if */
				}
			} else {
				if(u8switch_low_debounce < DEBOUNCE_LOW){
    3d40:	80 91 12 03 	lds	r24, 0x0312	; 0x800312 <u8switch_low_debounce>
    3d44:	83 30       	cpi	r24, 0x03	; 3
    3d46:	40 f4       	brcc	.+16     	; 0x3d58 <WLM_voTask+0x72>
					u8switch_high_debounce++;
    3d48:	80 91 13 03 	lds	r24, 0x0313	; 0x800313 <u8switch_high_debounce>
    3d4c:	8f 5f       	subi	r24, 0xFF	; 255
    3d4e:	80 93 13 03 	sts	0x0313, r24	; 0x800313 <u8switch_high_debounce>
    3d52:	02 c0       	rjmp	.+4      	; 0x3d58 <WLM_voTask+0x72>
				} else {
					emHighLevelSensor=emHighLevelSensor; /* SW will detect a transition if */
				}
			}
		} else {
			u8switch_high_debounce=0;
    3d54:	10 92 13 03 	sts	0x0313, r1	; 0x800313 <u8switch_high_debounce>
	}
	
	/* This may save some RAM but is hard to read */
	
	/* If we have only one sensor inside we will only use one sensor */
	emSwitchDebouncedHigh = emSwitchDebouncedLow ;
    3d58:	80 91 02 01 	lds	r24, 0x0102	; 0x800102 <emSwitchDebouncedLow>
    3d5c:	80 93 01 01 	sts	0x0101, r24	; 0x800101 <emSwitchDebouncedHigh>
	
	if( ( emSwitchDebouncedHigh == SWITCH_PRESSED )  && ( emSwitchDebouncedLow == SWITCH_PRESSED) ) {
    3d60:	80 91 01 01 	lds	r24, 0x0101	; 0x800101 <emSwitchDebouncedHigh>
    3d64:	81 11       	cpse	r24, r1
    3d66:	07 c0       	rjmp	.+14     	; 0x3d76 <WLM_voTask+0x90>
    3d68:	80 91 02 01 	lds	r24, 0x0102	; 0x800102 <emSwitchDebouncedLow>
    3d6c:	81 11       	cpse	r24, r1
    3d6e:	03 c0       	rjmp	.+6      	; 0x3d76 <WLM_voTask+0x90>
		/* Wasser ist ausreichen fr einen Becher mit Maximalbefllung */
		emDetectedWarterLevel = LEVEL_OKAY;
    3d70:	10 92 03 01 	sts	0x0103, r1	; 0x800103 <emDetectedWarterLevel>
    3d74:	15 c0       	rjmp	.+42     	; 0x3da0 <WLM_voTask+0xba>
		
	} else if( ( emSwitchDebouncedHigh == SWITCH_RELEASED )  && ( emSwitchDebouncedLow == SWITCH_PRESSED) ){ 
    3d76:	80 91 01 01 	lds	r24, 0x0101	; 0x800101 <emSwitchDebouncedHigh>
    3d7a:	81 30       	cpi	r24, 0x01	; 1
    3d7c:	21 f4       	brne	.+8      	; 0x3d86 <WLM_voTask+0xa0>
    3d7e:	90 91 02 01 	lds	r25, 0x0102	; 0x800102 <emSwitchDebouncedLow>
    3d82:	99 23       	and	r25, r25
    3d84:	59 f0       	breq	.+22     	; 0x3d9c <WLM_voTask+0xb6>
		/* Wasser ist ausreichen fr einen Becher mit Minimalbefllung */
		emDetectedWarterLevel = LEVEL_MIN;
	} else if( ( emSwitchDebouncedHigh == SWITCH_RELEASED )  && ( emSwitchDebouncedLow == SWITCH_RELEASED) ) {
    3d86:	80 91 01 01 	lds	r24, 0x0101	; 0x800101 <emSwitchDebouncedHigh>
    3d8a:	81 30       	cpi	r24, 0x01	; 1
    3d8c:	31 f4       	brne	.+12     	; 0x3d9a <WLM_voTask+0xb4>
    3d8e:	80 91 02 01 	lds	r24, 0x0102	; 0x800102 <emSwitchDebouncedLow>
    3d92:	81 30       	cpi	r24, 0x01	; 1
    3d94:	11 f4       	brne	.+4      	; 0x3d9a <WLM_voTask+0xb4>
		/* Wasser ist ausreichen fr einen Becher mit Minimalbefllung */
		emDetectedWarterLevel = LEVEL_NOT_OKAY;
    3d96:	82 e0       	ldi	r24, 0x02	; 2
    3d98:	01 c0       	rjmp	.+2      	; 0x3d9c <WLM_voTask+0xb6>
	} else {
		/* REED Broken */
		/* Wasser ist ausreichen fr einen Becher mit Minimalbefllung */
		emDetectedWarterLevel = LEVEL_INVALID;
    3d9a:	83 e0       	ldi	r24, 0x03	; 3
    3d9c:	80 93 03 01 	sts	0x0103, r24	; 0x800103 <emDetectedWarterLevel>
	}
	
	
}
    3da0:	cf 91       	pop	r28
    3da2:	08 95       	ret

00003da4 <WLM_emGetLevel>:

emWaterLevel WLM_emGetLevel(){
	return emDetectedWarterLevel;
    3da4:	80 91 03 01 	lds	r24, 0x0103	; 0x800103 <emDetectedWarterLevel>
}
    3da8:	08 95       	ret

00003daa <CDC_Device_ConfigureEndpoints>:

void CDC_Device_CreateBlockingStream(USB_ClassInfo_CDC_Device_t* const CDCInterfaceInfo,
                                     FILE* const Stream)
{
	*Stream = (FILE)FDEV_SETUP_STREAM(CDC_Device_putchar, CDC_Device_getchar_Blocking, _FDEV_SETUP_RW);
	fdev_set_udata(Stream, CDCInterfaceInfo);
    3daa:	cf 93       	push	r28
    3dac:	df 93       	push	r29
    3dae:	ec 01       	movw	r28, r24
    3db0:	fc 01       	movw	r30, r24
    3db2:	70 96       	adiw	r30, 0x10	; 16
    3db4:	8b e0       	ldi	r24, 0x0B	; 11
    3db6:	df 01       	movw	r26, r30
    3db8:	1d 92       	st	X+, r1
    3dba:	8a 95       	dec	r24
    3dbc:	e9 f7       	brne	.-6      	; 0x3db8 <CDC_Device_ConfigureEndpoints+0xe>
    3dbe:	82 e0       	ldi	r24, 0x02	; 2
    3dc0:	8c 83       	std	Y+4, r24	; 0x04
    3dc2:	89 87       	std	Y+9, r24	; 0x09
    3dc4:	83 e0       	ldi	r24, 0x03	; 3
    3dc6:	8e 87       	std	Y+14, r24	; 0x0e
    3dc8:	61 e0       	ldi	r22, 0x01	; 1
    3dca:	ce 01       	movw	r24, r28
    3dcc:	01 96       	adiw	r24, 0x01	; 1
    3dce:	75 d2       	rcall	.+1258   	; 0x42ba <Endpoint_ConfigureEndpointTable>
    3dd0:	88 23       	and	r24, r24
    3dd2:	61 f0       	breq	.+24     	; 0x3dec <CDC_Device_ConfigureEndpoints+0x42>
    3dd4:	61 e0       	ldi	r22, 0x01	; 1
    3dd6:	ce 01       	movw	r24, r28
    3dd8:	06 96       	adiw	r24, 0x06	; 6
    3dda:	6f d2       	rcall	.+1246   	; 0x42ba <Endpoint_ConfigureEndpointTable>
    3ddc:	88 23       	and	r24, r24
    3dde:	31 f0       	breq	.+12     	; 0x3dec <CDC_Device_ConfigureEndpoints+0x42>
    3de0:	61 e0       	ldi	r22, 0x01	; 1
    3de2:	ce 01       	movw	r24, r28
    3de4:	0b 96       	adiw	r24, 0x0b	; 11
    3de6:	df 91       	pop	r29
    3de8:	cf 91       	pop	r28
    3dea:	67 c2       	rjmp	.+1230   	; 0x42ba <Endpoint_ConfigureEndpointTable>
    3dec:	80 e0       	ldi	r24, 0x00	; 0
    3dee:	df 91       	pop	r29
    3df0:	cf 91       	pop	r28
    3df2:	08 95       	ret

00003df4 <CDC_Device_SendByte>:
    3df4:	0f 93       	push	r16
    3df6:	1f 93       	push	r17
    3df8:	cf 93       	push	r28
    3dfa:	20 91 8c 03 	lds	r18, 0x038C	; 0x80038c <USB_DeviceState>
    3dfe:	24 30       	cpi	r18, 0x04	; 4
    3e00:	f9 f4       	brne	.+62     	; 0x3e40 <CDC_Device_SendByte+0x4c>
    3e02:	fc 01       	movw	r30, r24
    3e04:	04 89       	ldd	r16, Z+20	; 0x14
    3e06:	15 89       	ldd	r17, Z+21	; 0x15
    3e08:	26 89       	ldd	r18, Z+22	; 0x16
    3e0a:	37 89       	ldd	r19, Z+23	; 0x17
    3e0c:	01 2b       	or	r16, r17
    3e0e:	02 2b       	or	r16, r18
    3e10:	03 2b       	or	r16, r19
    3e12:	b1 f0       	breq	.+44     	; 0x3e40 <CDC_Device_SendByte+0x4c>
    3e14:	c6 2f       	mov	r28, r22
    3e16:	81 81       	ldd	r24, Z+1	; 0x01
    3e18:	8f 70       	andi	r24, 0x0F	; 15
    3e1a:	80 93 e9 00 	sts	0x00E9, r24	; 0x8000e9 <__DATA_REGION_ORIGIN__+0x89>
    3e1e:	80 91 e8 00 	lds	r24, 0x00E8	; 0x8000e8 <__DATA_REGION_ORIGIN__+0x88>
    3e22:	85 ff       	sbrs	r24, 5
    3e24:	04 c0       	rjmp	.+8      	; 0x3e2e <CDC_Device_SendByte+0x3a>
    3e26:	c0 93 f1 00 	sts	0x00F1, r28	; 0x8000f1 <__DATA_REGION_ORIGIN__+0x91>
    3e2a:	80 e0       	ldi	r24, 0x00	; 0
    3e2c:	0a c0       	rjmp	.+20     	; 0x3e42 <CDC_Device_SendByte+0x4e>
    3e2e:	80 91 e8 00 	lds	r24, 0x00E8	; 0x8000e8 <__DATA_REGION_ORIGIN__+0x88>
    3e32:	8e 77       	andi	r24, 0x7E	; 126
    3e34:	80 93 e8 00 	sts	0x00E8, r24	; 0x8000e8 <__DATA_REGION_ORIGIN__+0x88>
    3e38:	9c d2       	rcall	.+1336   	; 0x4372 <Endpoint_WaitUntilReady>
    3e3a:	88 23       	and	r24, r24
    3e3c:	a1 f3       	breq	.-24     	; 0x3e26 <CDC_Device_SendByte+0x32>
    3e3e:	01 c0       	rjmp	.+2      	; 0x3e42 <CDC_Device_SendByte+0x4e>
    3e40:	82 e0       	ldi	r24, 0x02	; 2
    3e42:	cf 91       	pop	r28
    3e44:	1f 91       	pop	r17
    3e46:	0f 91       	pop	r16
    3e48:	08 95       	ret

00003e4a <CDC_Device_putchar>:
    3e4a:	fb 01       	movw	r30, r22
    3e4c:	68 2f       	mov	r22, r24
    3e4e:	84 85       	ldd	r24, Z+12	; 0x0c
    3e50:	95 85       	ldd	r25, Z+13	; 0x0d
    3e52:	d0 df       	rcall	.-96     	; 0x3df4 <CDC_Device_SendByte>
    3e54:	21 e0       	ldi	r18, 0x01	; 1
    3e56:	30 e0       	ldi	r19, 0x00	; 0
    3e58:	81 11       	cpse	r24, r1
    3e5a:	02 c0       	rjmp	.+4      	; 0x3e60 <CDC_Device_putchar+0x16>
    3e5c:	20 e0       	ldi	r18, 0x00	; 0
    3e5e:	30 e0       	ldi	r19, 0x00	; 0
    3e60:	88 27       	eor	r24, r24
    3e62:	99 27       	eor	r25, r25
    3e64:	82 1b       	sub	r24, r18
    3e66:	93 0b       	sbc	r25, r19
    3e68:	08 95       	ret

00003e6a <CDC_Device_Flush>:
    3e6a:	20 91 8c 03 	lds	r18, 0x038C	; 0x80038c <USB_DeviceState>
    3e6e:	24 30       	cpi	r18, 0x04	; 4
    3e70:	21 f5       	brne	.+72     	; 0x3eba <CDC_Device_Flush+0x50>
    3e72:	fc 01       	movw	r30, r24
    3e74:	44 89       	ldd	r20, Z+20	; 0x14
    3e76:	55 89       	ldd	r21, Z+21	; 0x15
    3e78:	66 89       	ldd	r22, Z+22	; 0x16
    3e7a:	77 89       	ldd	r23, Z+23	; 0x17
    3e7c:	45 2b       	or	r20, r21
    3e7e:	46 2b       	or	r20, r22
    3e80:	47 2b       	or	r20, r23
    3e82:	d9 f0       	breq	.+54     	; 0x3eba <CDC_Device_Flush+0x50>
    3e84:	81 81       	ldd	r24, Z+1	; 0x01
    3e86:	8f 70       	andi	r24, 0x0F	; 15
    3e88:	80 93 e9 00 	sts	0x00E9, r24	; 0x8000e9 <__DATA_REGION_ORIGIN__+0x89>
    3e8c:	80 91 f2 00 	lds	r24, 0x00F2	; 0x8000f2 <__DATA_REGION_ORIGIN__+0x92>
    3e90:	88 23       	and	r24, r24
    3e92:	89 f0       	breq	.+34     	; 0x3eb6 <CDC_Device_Flush+0x4c>
    3e94:	90 91 e8 00 	lds	r25, 0x00E8	; 0x8000e8 <__DATA_REGION_ORIGIN__+0x88>
    3e98:	80 91 e8 00 	lds	r24, 0x00E8	; 0x8000e8 <__DATA_REGION_ORIGIN__+0x88>
    3e9c:	8e 77       	andi	r24, 0x7E	; 126
    3e9e:	80 93 e8 00 	sts	0x00E8, r24	; 0x8000e8 <__DATA_REGION_ORIGIN__+0x88>
    3ea2:	95 fd       	sbrc	r25, 5
    3ea4:	08 c0       	rjmp	.+16     	; 0x3eb6 <CDC_Device_Flush+0x4c>
    3ea6:	65 d2       	rcall	.+1226   	; 0x4372 <Endpoint_WaitUntilReady>
    3ea8:	81 11       	cpse	r24, r1
    3eaa:	08 c0       	rjmp	.+16     	; 0x3ebc <CDC_Device_Flush+0x52>
    3eac:	80 91 e8 00 	lds	r24, 0x00E8	; 0x8000e8 <__DATA_REGION_ORIGIN__+0x88>
    3eb0:	8e 77       	andi	r24, 0x7E	; 126
    3eb2:	80 93 e8 00 	sts	0x00E8, r24	; 0x8000e8 <__DATA_REGION_ORIGIN__+0x88>
    3eb6:	80 e0       	ldi	r24, 0x00	; 0
    3eb8:	08 95       	ret
    3eba:	82 e0       	ldi	r24, 0x02	; 2
    3ebc:	08 95       	ret

00003ebe <CDC_Device_USBTask>:
    3ebe:	20 91 8c 03 	lds	r18, 0x038C	; 0x80038c <USB_DeviceState>
    3ec2:	24 30       	cpi	r18, 0x04	; 4
    3ec4:	89 f4       	brne	.+34     	; 0x3ee8 <CDC_Device_USBTask+0x2a>
    3ec6:	fc 01       	movw	r30, r24
    3ec8:	44 89       	ldd	r20, Z+20	; 0x14
    3eca:	55 89       	ldd	r21, Z+21	; 0x15
    3ecc:	66 89       	ldd	r22, Z+22	; 0x16
    3ece:	77 89       	ldd	r23, Z+23	; 0x17
    3ed0:	45 2b       	or	r20, r21
    3ed2:	46 2b       	or	r20, r22
    3ed4:	47 2b       	or	r20, r23
    3ed6:	41 f0       	breq	.+16     	; 0x3ee8 <CDC_Device_USBTask+0x2a>
    3ed8:	21 81       	ldd	r18, Z+1	; 0x01
    3eda:	2f 70       	andi	r18, 0x0F	; 15
    3edc:	20 93 e9 00 	sts	0x00E9, r18	; 0x8000e9 <__DATA_REGION_ORIGIN__+0x89>
    3ee0:	20 91 e8 00 	lds	r18, 0x00E8	; 0x8000e8 <__DATA_REGION_ORIGIN__+0x88>
    3ee4:	20 fd       	sbrc	r18, 0
    3ee6:	c1 cf       	rjmp	.-126    	; 0x3e6a <CDC_Device_Flush>
    3ee8:	08 95       	ret

00003eea <CDC_Device_ReceiveByte>:
    3eea:	20 91 8c 03 	lds	r18, 0x038C	; 0x80038c <USB_DeviceState>
    3eee:	24 30       	cpi	r18, 0x04	; 4
    3ef0:	19 f0       	breq	.+6      	; 0x3ef8 <CDC_Device_ReceiveByte+0xe>
    3ef2:	8f ef       	ldi	r24, 0xFF	; 255
    3ef4:	9f ef       	ldi	r25, 0xFF	; 255
    3ef6:	08 95       	ret
    3ef8:	fc 01       	movw	r30, r24
    3efa:	44 89       	ldd	r20, Z+20	; 0x14
    3efc:	55 89       	ldd	r21, Z+21	; 0x15
    3efe:	66 89       	ldd	r22, Z+22	; 0x16
    3f00:	77 89       	ldd	r23, Z+23	; 0x17
    3f02:	45 2b       	or	r20, r21
    3f04:	46 2b       	or	r20, r22
    3f06:	47 2b       	or	r20, r23
    3f08:	a1 f3       	breq	.-24     	; 0x3ef2 <CDC_Device_ReceiveByte+0x8>
    3f0a:	86 81       	ldd	r24, Z+6	; 0x06
    3f0c:	8f 70       	andi	r24, 0x0F	; 15
    3f0e:	80 93 e9 00 	sts	0x00E9, r24	; 0x8000e9 <__DATA_REGION_ORIGIN__+0x89>
    3f12:	80 91 e8 00 	lds	r24, 0x00E8	; 0x8000e8 <__DATA_REGION_ORIGIN__+0x88>
    3f16:	82 ff       	sbrs	r24, 2
    3f18:	ec cf       	rjmp	.-40     	; 0x3ef2 <CDC_Device_ReceiveByte+0x8>
    3f1a:	80 91 f2 00 	lds	r24, 0x00F2	; 0x8000f2 <__DATA_REGION_ORIGIN__+0x92>
    3f1e:	88 23       	and	r24, r24
    3f20:	21 f0       	breq	.+8      	; 0x3f2a <CDC_Device_ReceiveByte+0x40>
    3f22:	20 91 f1 00 	lds	r18, 0x00F1	; 0x8000f1 <__DATA_REGION_ORIGIN__+0x91>
    3f26:	30 e0       	ldi	r19, 0x00	; 0
    3f28:	02 c0       	rjmp	.+4      	; 0x3f2e <CDC_Device_ReceiveByte+0x44>
    3f2a:	2f ef       	ldi	r18, 0xFF	; 255
    3f2c:	3f ef       	ldi	r19, 0xFF	; 255
    3f2e:	80 91 f2 00 	lds	r24, 0x00F2	; 0x8000f2 <__DATA_REGION_ORIGIN__+0x92>
    3f32:	81 11       	cpse	r24, r1
    3f34:	05 c0       	rjmp	.+10     	; 0x3f40 <CDC_Device_ReceiveByte+0x56>
    3f36:	80 91 e8 00 	lds	r24, 0x00E8	; 0x8000e8 <__DATA_REGION_ORIGIN__+0x88>
    3f3a:	8b 77       	andi	r24, 0x7B	; 123
    3f3c:	80 93 e8 00 	sts	0x00E8, r24	; 0x8000e8 <__DATA_REGION_ORIGIN__+0x88>
    3f40:	c9 01       	movw	r24, r18
    3f42:	08 95       	ret

00003f44 <CDC_Device_getchar>:
    3f44:	fc 01       	movw	r30, r24
    3f46:	84 85       	ldd	r24, Z+12	; 0x0c
    3f48:	95 85       	ldd	r25, Z+13	; 0x0d
    3f4a:	cf df       	rcall	.-98     	; 0x3eea <CDC_Device_ReceiveByte>
    3f4c:	97 ff       	sbrs	r25, 7
    3f4e:	02 c0       	rjmp	.+4      	; 0x3f54 <CDC_Device_getchar+0x10>
    3f50:	8e ef       	ldi	r24, 0xFE	; 254
    3f52:	9f ef       	ldi	r25, 0xFF	; 255
    3f54:	08 95       	ret

00003f56 <CDC_Device_CreateStream>:
    3f56:	fb 01       	movw	r30, r22
    3f58:	2e e0       	ldi	r18, 0x0E	; 14
    3f5a:	db 01       	movw	r26, r22
    3f5c:	1d 92       	st	X+, r1
    3f5e:	2a 95       	dec	r18
    3f60:	e9 f7       	brne	.-6      	; 0x3f5c <CDC_Device_CreateStream+0x6>
    3f62:	23 e0       	ldi	r18, 0x03	; 3
    3f64:	23 83       	std	Z+3, r18	; 0x03
    3f66:	25 e2       	ldi	r18, 0x25	; 37
    3f68:	3f e1       	ldi	r19, 0x1F	; 31
    3f6a:	31 87       	std	Z+9, r19	; 0x09
    3f6c:	20 87       	std	Z+8, r18	; 0x08
    3f6e:	22 ea       	ldi	r18, 0xA2	; 162
    3f70:	3f e1       	ldi	r19, 0x1F	; 31
    3f72:	33 87       	std	Z+11, r19	; 0x0b
    3f74:	22 87       	std	Z+10, r18	; 0x0a
    3f76:	95 87       	std	Z+13, r25	; 0x0d
    3f78:	84 87       	std	Z+12, r24	; 0x0c
    3f7a:	08 95       	ret

00003f7c <CDC_Device_Event_Stub>:
	return ReceivedByte;
}
#endif

void CDC_Device_Event_Stub(void)
{
    3f7c:	08 95       	ret

00003f7e <CDC_Device_ProcessControlRequest>:
#define  __INCLUDE_FROM_CDC_DRIVER
#define  __INCLUDE_FROM_CDC_DEVICE_C
#include "CDCClassDevice.h"

void CDC_Device_ProcessControlRequest(USB_ClassInfo_CDC_Device_t* const CDCInterfaceInfo)
{
    3f7e:	cf 93       	push	r28
    3f80:	df 93       	push	r29
    3f82:	ec 01       	movw	r28, r24
			 *  \return Boolean \c true if the selected endpoint has received a SETUP packet, \c false otherwise.
			 */
			static inline bool Endpoint_IsSETUPReceived(void) ATTR_WARN_UNUSED_RESULT ATTR_ALWAYS_INLINE;
			static inline bool Endpoint_IsSETUPReceived(void)
			{
				return ((UEINTX & (1 << RXSTPI)) ? true : false);
    3f84:	80 91 e8 00 	lds	r24, 0x00E8	; 0x8000e8 <__DATA_REGION_ORIGIN__+0x88>
	if (!(Endpoint_IsSETUPReceived()))
    3f88:	83 ff       	sbrs	r24, 3
    3f8a:	a6 c0       	rjmp	.+332    	; 0x40d8 <CDC_Device_ProcessControlRequest+0x15a>
	  return;

	if (USB_ControlRequest.wIndex != CDCInterfaceInfo->Config.ControlInterfaceNumber)
    3f8c:	88 81       	ld	r24, Y
    3f8e:	90 e0       	ldi	r25, 0x00	; 0
    3f90:	20 91 91 03 	lds	r18, 0x0391	; 0x800391 <USB_ControlRequest+0x4>
    3f94:	30 91 92 03 	lds	r19, 0x0392	; 0x800392 <USB_ControlRequest+0x5>
    3f98:	28 17       	cp	r18, r24
    3f9a:	39 07       	cpc	r19, r25
    3f9c:	09 f0       	breq	.+2      	; 0x3fa0 <CDC_Device_ProcessControlRequest+0x22>
    3f9e:	9c c0       	rjmp	.+312    	; 0x40d8 <CDC_Device_ProcessControlRequest+0x15a>
	  return;

	switch (USB_ControlRequest.bRequest)
    3fa0:	80 91 8e 03 	lds	r24, 0x038E	; 0x80038e <USB_ControlRequest+0x1>
    3fa4:	81 32       	cpi	r24, 0x21	; 33
    3fa6:	61 f0       	breq	.+24     	; 0x3fc0 <CDC_Device_ProcessControlRequest+0x42>
    3fa8:	20 f4       	brcc	.+8      	; 0x3fb2 <CDC_Device_ProcessControlRequest+0x34>
    3faa:	80 32       	cpi	r24, 0x20	; 32
    3fac:	09 f4       	brne	.+2      	; 0x3fb0 <CDC_Device_ProcessControlRequest+0x32>
    3fae:	3e c0       	rjmp	.+124    	; 0x402c <CDC_Device_ProcessControlRequest+0xae>
    3fb0:	93 c0       	rjmp	.+294    	; 0x40d8 <CDC_Device_ProcessControlRequest+0x15a>
    3fb2:	82 32       	cpi	r24, 0x22	; 34
    3fb4:	09 f4       	brne	.+2      	; 0x3fb8 <CDC_Device_ProcessControlRequest+0x3a>
    3fb6:	6c c0       	rjmp	.+216    	; 0x4090 <CDC_Device_ProcessControlRequest+0x112>
    3fb8:	83 32       	cpi	r24, 0x23	; 35
    3fba:	09 f4       	brne	.+2      	; 0x3fbe <CDC_Device_ProcessControlRequest+0x40>
    3fbc:	7d c0       	rjmp	.+250    	; 0x40b8 <CDC_Device_ProcessControlRequest+0x13a>
    3fbe:	8c c0       	rjmp	.+280    	; 0x40d8 <CDC_Device_ProcessControlRequest+0x15a>
	{
		case CDC_REQ_GetLineEncoding:
			if (USB_ControlRequest.bmRequestType == (REQDIR_DEVICETOHOST | REQTYPE_CLASS | REQREC_INTERFACE))
    3fc0:	80 91 8d 03 	lds	r24, 0x038D	; 0x80038d <USB_ControlRequest>
    3fc4:	81 3a       	cpi	r24, 0xA1	; 161
    3fc6:	09 f0       	breq	.+2      	; 0x3fca <CDC_Device_ProcessControlRequest+0x4c>
    3fc8:	87 c0       	rjmp	.+270    	; 0x40d8 <CDC_Device_ProcessControlRequest+0x15a>
			 *  \note This is not applicable for non CONTROL type endpoints.
			 */
			static inline void Endpoint_ClearSETUP(void) ATTR_ALWAYS_INLINE;
			static inline void Endpoint_ClearSETUP(void)
			{
				UEINTX &= ~(1 << RXSTPI);
    3fca:	80 91 e8 00 	lds	r24, 0x00E8	; 0x8000e8 <__DATA_REGION_ORIGIN__+0x88>
    3fce:	87 7f       	andi	r24, 0xF7	; 247
    3fd0:	80 93 e8 00 	sts	0x00E8, r24	; 0x8000e8 <__DATA_REGION_ORIGIN__+0x88>
			 *  \return Boolean \c true if the current endpoint is ready for an IN packet, \c false otherwise.
			 */
			static inline bool Endpoint_IsINReady(void) ATTR_WARN_UNUSED_RESULT ATTR_ALWAYS_INLINE;
			static inline bool Endpoint_IsINReady(void)
			{
				return ((UEINTX & (1 << TXINI)) ? true : false);
    3fd4:	80 91 e8 00 	lds	r24, 0x00E8	; 0x8000e8 <__DATA_REGION_ORIGIN__+0x88>
			{
				Endpoint_ClearSETUP();

				while (!(Endpoint_IsINReady()));
    3fd8:	80 ff       	sbrs	r24, 0
    3fda:	fc cf       	rjmp	.-8      	; 0x3fd4 <CDC_Device_ProcessControlRequest+0x56>

				Endpoint_Write_32_LE(CDCInterfaceInfo->State.LineEncoding.BaudRateBPS);
    3fdc:	8c 89       	ldd	r24, Y+20	; 0x14
    3fde:	9d 89       	ldd	r25, Y+21	; 0x15
    3fe0:	ae 89       	ldd	r26, Y+22	; 0x16
    3fe2:	bf 89       	ldd	r27, Y+23	; 0x17
			 *  \param[in] Data  Data to write to the currently selected endpoint's FIFO buffer.
			 */
			static inline void Endpoint_Write_32_LE(const uint32_t Data) ATTR_ALWAYS_INLINE;
			static inline void Endpoint_Write_32_LE(const uint32_t Data)
			{
				UEDATX = (Data &  0xFF);
    3fe4:	80 93 f1 00 	sts	0x00F1, r24	; 0x8000f1 <__DATA_REGION_ORIGIN__+0x91>
				UEDATX = (Data >> 8);
    3fe8:	49 2f       	mov	r20, r25
    3fea:	5a 2f       	mov	r21, r26
    3fec:	6b 2f       	mov	r22, r27
    3fee:	77 27       	eor	r23, r23
    3ff0:	40 93 f1 00 	sts	0x00F1, r20	; 0x8000f1 <__DATA_REGION_ORIGIN__+0x91>
				UEDATX = (Data >> 16);
    3ff4:	ad 01       	movw	r20, r26
    3ff6:	66 27       	eor	r22, r22
    3ff8:	77 27       	eor	r23, r23
    3ffa:	40 93 f1 00 	sts	0x00F1, r20	; 0x8000f1 <__DATA_REGION_ORIGIN__+0x91>
				UEDATX = (Data >> 24);
    3ffe:	8b 2f       	mov	r24, r27
    4000:	99 27       	eor	r25, r25
    4002:	aa 27       	eor	r26, r26
    4004:	bb 27       	eor	r27, r27
    4006:	80 93 f1 00 	sts	0x00F1, r24	; 0x8000f1 <__DATA_REGION_ORIGIN__+0x91>
				Endpoint_Write_8(CDCInterfaceInfo->State.LineEncoding.CharFormat);
    400a:	88 8d       	ldd	r24, Y+24	; 0x18
			 *  \param[in] Data  Data to write into the the currently selected endpoint's FIFO buffer.
			 */
			static inline void Endpoint_Write_8(const uint8_t Data) ATTR_ALWAYS_INLINE;
			static inline void Endpoint_Write_8(const uint8_t Data)
			{
				UEDATX = Data;
    400c:	80 93 f1 00 	sts	0x00F1, r24	; 0x8000f1 <__DATA_REGION_ORIGIN__+0x91>
				Endpoint_Write_8(CDCInterfaceInfo->State.LineEncoding.ParityType);
    4010:	89 8d       	ldd	r24, Y+25	; 0x19
    4012:	80 93 f1 00 	sts	0x00F1, r24	; 0x8000f1 <__DATA_REGION_ORIGIN__+0x91>
				Endpoint_Write_8(CDCInterfaceInfo->State.LineEncoding.DataBits);
    4016:	8a 8d       	ldd	r24, Y+26	; 0x1a
    4018:	80 93 f1 00 	sts	0x00F1, r24	; 0x8000f1 <__DATA_REGION_ORIGIN__+0x91>
			 */
			static inline void Endpoint_ClearIN(void) ATTR_ALWAYS_INLINE;
			static inline void Endpoint_ClearIN(void)
			{
				#if !defined(CONTROL_ONLY_DEVICE)
					UEINTX &= ~((1 << TXINI) | (1 << FIFOCON));
    401c:	80 91 e8 00 	lds	r24, 0x00E8	; 0x8000e8 <__DATA_REGION_ORIGIN__+0x88>
    4020:	8e 77       	andi	r24, 0x7E	; 126
    4022:	80 93 e8 00 	sts	0x00E8, r24	; 0x8000e8 <__DATA_REGION_ORIGIN__+0x88>
				EVENT_CDC_Device_BreakSent(CDCInterfaceInfo, (uint8_t)USB_ControlRequest.wValue);
			}

			break;
	}
}
    4026:	df 91       	pop	r29
    4028:	cf 91       	pop	r28
				Endpoint_Write_8(CDCInterfaceInfo->State.LineEncoding.CharFormat);
				Endpoint_Write_8(CDCInterfaceInfo->State.LineEncoding.ParityType);
				Endpoint_Write_8(CDCInterfaceInfo->State.LineEncoding.DataBits);

				Endpoint_ClearIN();
				Endpoint_ClearStatusStage();
    402a:	84 c1       	rjmp	.+776    	; 0x4334 <Endpoint_ClearStatusStage>
			}

			break;
		case CDC_REQ_SetLineEncoding:
			if (USB_ControlRequest.bmRequestType == (REQDIR_HOSTTODEVICE | REQTYPE_CLASS | REQREC_INTERFACE))
    402c:	80 91 8d 03 	lds	r24, 0x038D	; 0x80038d <USB_ControlRequest>
    4030:	81 32       	cpi	r24, 0x21	; 33
    4032:	09 f0       	breq	.+2      	; 0x4036 <CDC_Device_ProcessControlRequest+0xb8>
    4034:	51 c0       	rjmp	.+162    	; 0x40d8 <CDC_Device_ProcessControlRequest+0x15a>
			 *  \note This is not applicable for non CONTROL type endpoints.
			 */
			static inline void Endpoint_ClearSETUP(void) ATTR_ALWAYS_INLINE;
			static inline void Endpoint_ClearSETUP(void)
			{
				UEINTX &= ~(1 << RXSTPI);
    4036:	80 91 e8 00 	lds	r24, 0x00E8	; 0x8000e8 <__DATA_REGION_ORIGIN__+0x88>
    403a:	87 7f       	andi	r24, 0xF7	; 247
    403c:	80 93 e8 00 	sts	0x00E8, r24	; 0x8000e8 <__DATA_REGION_ORIGIN__+0x88>
			 *  \return Boolean \c true if current endpoint is has received an OUT packet, \c false otherwise.
			 */
			static inline bool Endpoint_IsOUTReceived(void) ATTR_WARN_UNUSED_RESULT ATTR_ALWAYS_INLINE;
			static inline bool Endpoint_IsOUTReceived(void)
			{
				return ((UEINTX & (1 << RXOUTI)) ? true : false);
    4040:	80 91 e8 00 	lds	r24, 0x00E8	; 0x8000e8 <__DATA_REGION_ORIGIN__+0x88>
			{
				Endpoint_ClearSETUP();

				while (!(Endpoint_IsOUTReceived()))
    4044:	82 fd       	sbrc	r24, 2
    4046:	05 c0       	rjmp	.+10     	; 0x4052 <CDC_Device_ProcessControlRequest+0xd4>
				{
					if (USB_DeviceState == DEVICE_STATE_Unattached)
    4048:	80 91 8c 03 	lds	r24, 0x038C	; 0x80038c <USB_DeviceState>
    404c:	81 11       	cpse	r24, r1
    404e:	f8 cf       	rjmp	.-16     	; 0x4040 <CDC_Device_ProcessControlRequest+0xc2>
    4050:	43 c0       	rjmp	.+134    	; 0x40d8 <CDC_Device_ProcessControlRequest+0x15a>
				{
					uint32_t Value;
					uint8_t  Bytes[4];
				} Data;

				Data.Bytes[0] = UEDATX;
    4052:	30 91 f1 00 	lds	r19, 0x00F1	; 0x8000f1 <__DATA_REGION_ORIGIN__+0x91>
				Data.Bytes[1] = UEDATX;
    4056:	20 91 f1 00 	lds	r18, 0x00F1	; 0x8000f1 <__DATA_REGION_ORIGIN__+0x91>
				Data.Bytes[2] = UEDATX;
    405a:	90 91 f1 00 	lds	r25, 0x00F1	; 0x8000f1 <__DATA_REGION_ORIGIN__+0x91>
				Data.Bytes[3] = UEDATX;
    405e:	80 91 f1 00 	lds	r24, 0x00F1	; 0x8000f1 <__DATA_REGION_ORIGIN__+0x91>
					  return;
				}

				CDCInterfaceInfo->State.LineEncoding.BaudRateBPS = Endpoint_Read_32_LE();
    4062:	3c 8b       	std	Y+20, r19	; 0x14
    4064:	2d 8b       	std	Y+21, r18	; 0x15
    4066:	9e 8b       	std	Y+22, r25	; 0x16
    4068:	8f 8b       	std	Y+23, r24	; 0x17
			 *  \return Next byte in the currently selected endpoint's FIFO buffer.
			 */
			static inline uint8_t Endpoint_Read_8(void) ATTR_WARN_UNUSED_RESULT ATTR_ALWAYS_INLINE;
			static inline uint8_t Endpoint_Read_8(void)
			{
				return UEDATX;
    406a:	80 91 f1 00 	lds	r24, 0x00F1	; 0x8000f1 <__DATA_REGION_ORIGIN__+0x91>
				CDCInterfaceInfo->State.LineEncoding.CharFormat  = Endpoint_Read_8();
    406e:	88 8f       	std	Y+24, r24	; 0x18
    4070:	80 91 f1 00 	lds	r24, 0x00F1	; 0x8000f1 <__DATA_REGION_ORIGIN__+0x91>
				CDCInterfaceInfo->State.LineEncoding.ParityType  = Endpoint_Read_8();
    4074:	89 8f       	std	Y+25, r24	; 0x19
    4076:	80 91 f1 00 	lds	r24, 0x00F1	; 0x8000f1 <__DATA_REGION_ORIGIN__+0x91>
				CDCInterfaceInfo->State.LineEncoding.DataBits    = Endpoint_Read_8();
    407a:	8a 8f       	std	Y+26, r24	; 0x1a
			 */
			static inline void Endpoint_ClearOUT(void) ATTR_ALWAYS_INLINE;
			static inline void Endpoint_ClearOUT(void)
			{
				#if !defined(CONTROL_ONLY_DEVICE)
					UEINTX &= ~((1 << RXOUTI) | (1 << FIFOCON));
    407c:	80 91 e8 00 	lds	r24, 0x00E8	; 0x8000e8 <__DATA_REGION_ORIGIN__+0x88>
    4080:	8b 77       	andi	r24, 0x7B	; 123
    4082:	80 93 e8 00 	sts	0x00E8, r24	; 0x8000e8 <__DATA_REGION_ORIGIN__+0x88>

				Endpoint_ClearOUT();
				Endpoint_ClearStatusStage();
    4086:	56 d1       	rcall	.+684    	; 0x4334 <Endpoint_ClearStatusStage>

				EVENT_CDC_Device_LineEncodingChanged(CDCInterfaceInfo);
    4088:	ce 01       	movw	r24, r28
				EVENT_CDC_Device_BreakSent(CDCInterfaceInfo, (uint8_t)USB_ControlRequest.wValue);
			}

			break;
	}
}
    408a:	df 91       	pop	r29
				CDCInterfaceInfo->State.LineEncoding.DataBits    = Endpoint_Read_8();

				Endpoint_ClearOUT();
				Endpoint_ClearStatusStage();

				EVENT_CDC_Device_LineEncodingChanged(CDCInterfaceInfo);
    408c:	cf 91       	pop	r28
    408e:	76 cf       	rjmp	.-276    	; 0x3f7c <CDC_Device_Event_Stub>
			}

			break;
		case CDC_REQ_SetControlLineState:
			if (USB_ControlRequest.bmRequestType == (REQDIR_HOSTTODEVICE | REQTYPE_CLASS | REQREC_INTERFACE))
    4090:	80 91 8d 03 	lds	r24, 0x038D	; 0x80038d <USB_ControlRequest>
    4094:	81 32       	cpi	r24, 0x21	; 33
    4096:	01 f5       	brne	.+64     	; 0x40d8 <CDC_Device_ProcessControlRequest+0x15a>
			 *  \note This is not applicable for non CONTROL type endpoints.
			 */
			static inline void Endpoint_ClearSETUP(void) ATTR_ALWAYS_INLINE;
			static inline void Endpoint_ClearSETUP(void)
			{
				UEINTX &= ~(1 << RXSTPI);
    4098:	80 91 e8 00 	lds	r24, 0x00E8	; 0x8000e8 <__DATA_REGION_ORIGIN__+0x88>
    409c:	87 7f       	andi	r24, 0xF7	; 247
    409e:	80 93 e8 00 	sts	0x00E8, r24	; 0x8000e8 <__DATA_REGION_ORIGIN__+0x88>
			{
				Endpoint_ClearSETUP();
				Endpoint_ClearStatusStage();
    40a2:	48 d1       	rcall	.+656    	; 0x4334 <Endpoint_ClearStatusStage>

				CDCInterfaceInfo->State.ControlLineStates.HostToDevice = USB_ControlRequest.wValue;
    40a4:	80 91 8f 03 	lds	r24, 0x038F	; 0x80038f <USB_ControlRequest+0x2>
    40a8:	90 91 90 03 	lds	r25, 0x0390	; 0x800390 <USB_ControlRequest+0x3>
    40ac:	99 8b       	std	Y+17, r25	; 0x11

				EVENT_CDC_Device_ControLineStateChanged(CDCInterfaceInfo);
    40ae:	88 8b       	std	Y+16, r24	; 0x10
				EVENT_CDC_Device_BreakSent(CDCInterfaceInfo, (uint8_t)USB_ControlRequest.wValue);
			}

			break;
	}
}
    40b0:	ce 01       	movw	r24, r28
    40b2:	df 91       	pop	r29
				Endpoint_ClearSETUP();
				Endpoint_ClearStatusStage();

				CDCInterfaceInfo->State.ControlLineStates.HostToDevice = USB_ControlRequest.wValue;

				EVENT_CDC_Device_ControLineStateChanged(CDCInterfaceInfo);
    40b4:	cf 91       	pop	r28
    40b6:	35 c5       	rjmp	.+2666   	; 0x4b22 <EVENT_CDC_Device_ControLineStateChanged>
			}

			break;
		case CDC_REQ_SendBreak:
			if (USB_ControlRequest.bmRequestType == (REQDIR_HOSTTODEVICE | REQTYPE_CLASS | REQREC_INTERFACE))
    40b8:	80 91 8d 03 	lds	r24, 0x038D	; 0x80038d <USB_ControlRequest>
    40bc:	81 32       	cpi	r24, 0x21	; 33
    40be:	61 f4       	brne	.+24     	; 0x40d8 <CDC_Device_ProcessControlRequest+0x15a>
    40c0:	80 91 e8 00 	lds	r24, 0x00E8	; 0x8000e8 <__DATA_REGION_ORIGIN__+0x88>
    40c4:	87 7f       	andi	r24, 0xF7	; 247
    40c6:	80 93 e8 00 	sts	0x00E8, r24	; 0x8000e8 <__DATA_REGION_ORIGIN__+0x88>
			{
				Endpoint_ClearSETUP();
				Endpoint_ClearStatusStage();

				EVENT_CDC_Device_BreakSent(CDCInterfaceInfo, (uint8_t)USB_ControlRequest.wValue);
    40ca:	34 d1       	rcall	.+616    	; 0x4334 <Endpoint_ClearStatusStage>
    40cc:	60 91 8f 03 	lds	r22, 0x038F	; 0x80038f <USB_ControlRequest+0x2>
			}

			break;
	}
}
    40d0:	ce 01       	movw	r24, r28
    40d2:	df 91       	pop	r29
			if (USB_ControlRequest.bmRequestType == (REQDIR_HOSTTODEVICE | REQTYPE_CLASS | REQREC_INTERFACE))
			{
				Endpoint_ClearSETUP();
				Endpoint_ClearStatusStage();

				EVENT_CDC_Device_BreakSent(CDCInterfaceInfo, (uint8_t)USB_ControlRequest.wValue);
    40d4:	cf 91       	pop	r28
    40d6:	52 cf       	rjmp	.-348    	; 0x3f7c <CDC_Device_Event_Stub>
			}

			break;
	}
}
    40d8:	df 91       	pop	r29
    40da:	cf 91       	pop	r28
    40dc:	08 95       	ret

000040de <Endpoint_Write_Control_Stream_LE>:
		else if (USB_DeviceState_LCL == DEVICE_STATE_Suspended)
		  return ENDPOINT_RWCSTREAM_BusSuspended;
	}

	return ENDPOINT_RWCSTREAM_NoError;
}
    40de:	20 91 93 03 	lds	r18, 0x0393	; 0x800393 <USB_ControlRequest+0x6>
    40e2:	30 91 94 03 	lds	r19, 0x0394	; 0x800394 <USB_ControlRequest+0x7>
    40e6:	26 17       	cp	r18, r22
    40e8:	37 07       	cpc	r19, r23
    40ea:	48 f0       	brcs	.+18     	; 0x40fe <Endpoint_Write_Control_Stream_LE+0x20>
    40ec:	61 15       	cp	r22, r1
    40ee:	71 05       	cpc	r23, r1
    40f0:	39 f4       	brne	.+14     	; 0x4100 <Endpoint_Write_Control_Stream_LE+0x22>
    40f2:	20 91 e8 00 	lds	r18, 0x00E8	; 0x8000e8 <__DATA_REGION_ORIGIN__+0x88>
    40f6:	2e 77       	andi	r18, 0x7E	; 126
    40f8:	20 93 e8 00 	sts	0x00E8, r18	; 0x8000e8 <__DATA_REGION_ORIGIN__+0x88>
    40fc:	01 c0       	rjmp	.+2      	; 0x4100 <Endpoint_Write_Control_Stream_LE+0x22>
    40fe:	b9 01       	movw	r22, r18
    4100:	fc 01       	movw	r30, r24
    4102:	20 e0       	ldi	r18, 0x00	; 0
    4104:	61 15       	cp	r22, r1
    4106:	71 05       	cpc	r23, r1
    4108:	61 f1       	breq	.+88     	; 0x4162 <Endpoint_Write_Control_Stream_LE+0x84>
    410a:	80 91 8c 03 	lds	r24, 0x038C	; 0x80038c <USB_DeviceState>
    410e:	88 23       	and	r24, r24
    4110:	d9 f1       	breq	.+118    	; 0x4188 <Endpoint_Write_Control_Stream_LE+0xaa>
    4112:	85 30       	cpi	r24, 0x05	; 5
    4114:	d9 f1       	breq	.+118    	; 0x418c <Endpoint_Write_Control_Stream_LE+0xae>
    4116:	80 91 e8 00 	lds	r24, 0x00E8	; 0x8000e8 <__DATA_REGION_ORIGIN__+0x88>
    411a:	83 fd       	sbrc	r24, 3
    411c:	39 c0       	rjmp	.+114    	; 0x4190 <Endpoint_Write_Control_Stream_LE+0xb2>
    411e:	80 91 e8 00 	lds	r24, 0x00E8	; 0x8000e8 <__DATA_REGION_ORIGIN__+0x88>
    4122:	82 fd       	sbrc	r24, 2
    4124:	2b c0       	rjmp	.+86     	; 0x417c <Endpoint_Write_Control_Stream_LE+0x9e>
    4126:	80 91 e8 00 	lds	r24, 0x00E8	; 0x8000e8 <__DATA_REGION_ORIGIN__+0x88>
    412a:	80 ff       	sbrs	r24, 0
    412c:	eb cf       	rjmp	.-42     	; 0x4104 <Endpoint_Write_Control_Stream_LE+0x26>
    412e:	80 91 f2 00 	lds	r24, 0x00F2	; 0x8000f2 <__DATA_REGION_ORIGIN__+0x92>
    4132:	90 e0       	ldi	r25, 0x00	; 0
    4134:	61 15       	cp	r22, r1
    4136:	71 05       	cpc	r23, r1
    4138:	51 f0       	breq	.+20     	; 0x414e <Endpoint_Write_Control_Stream_LE+0x70>
    413a:	88 30       	cpi	r24, 0x08	; 8
    413c:	91 05       	cpc	r25, r1
    413e:	38 f4       	brcc	.+14     	; 0x414e <Endpoint_Write_Control_Stream_LE+0x70>
    4140:	21 91       	ld	r18, Z+
    4142:	20 93 f1 00 	sts	0x00F1, r18	; 0x8000f1 <__DATA_REGION_ORIGIN__+0x91>
    4146:	61 50       	subi	r22, 0x01	; 1
    4148:	71 09       	sbc	r23, r1
    414a:	01 96       	adiw	r24, 0x01	; 1
    414c:	f3 cf       	rjmp	.-26     	; 0x4134 <Endpoint_Write_Control_Stream_LE+0x56>
    414e:	21 e0       	ldi	r18, 0x01	; 1
    4150:	08 97       	sbiw	r24, 0x08	; 8
    4152:	09 f0       	breq	.+2      	; 0x4156 <Endpoint_Write_Control_Stream_LE+0x78>
    4154:	20 e0       	ldi	r18, 0x00	; 0
    4156:	80 91 e8 00 	lds	r24, 0x00E8	; 0x8000e8 <__DATA_REGION_ORIGIN__+0x88>
    415a:	8e 77       	andi	r24, 0x7E	; 126
    415c:	80 93 e8 00 	sts	0x00E8, r24	; 0x8000e8 <__DATA_REGION_ORIGIN__+0x88>
    4160:	d1 cf       	rjmp	.-94     	; 0x4104 <Endpoint_Write_Control_Stream_LE+0x26>
    4162:	21 11       	cpse	r18, r1
    4164:	d2 cf       	rjmp	.-92     	; 0x410a <Endpoint_Write_Control_Stream_LE+0x2c>
    4166:	0a c0       	rjmp	.+20     	; 0x417c <Endpoint_Write_Control_Stream_LE+0x9e>
    4168:	80 91 8c 03 	lds	r24, 0x038C	; 0x80038c <USB_DeviceState>
    416c:	88 23       	and	r24, r24
    416e:	61 f0       	breq	.+24     	; 0x4188 <Endpoint_Write_Control_Stream_LE+0xaa>
    4170:	85 30       	cpi	r24, 0x05	; 5
    4172:	61 f0       	breq	.+24     	; 0x418c <Endpoint_Write_Control_Stream_LE+0xae>
    4174:	80 91 e8 00 	lds	r24, 0x00E8	; 0x8000e8 <__DATA_REGION_ORIGIN__+0x88>
    4178:	83 fd       	sbrc	r24, 3
    417a:	0a c0       	rjmp	.+20     	; 0x4190 <Endpoint_Write_Control_Stream_LE+0xb2>
    417c:	80 91 e8 00 	lds	r24, 0x00E8	; 0x8000e8 <__DATA_REGION_ORIGIN__+0x88>
    4180:	82 ff       	sbrs	r24, 2
    4182:	f2 cf       	rjmp	.-28     	; 0x4168 <Endpoint_Write_Control_Stream_LE+0x8a>
    4184:	80 e0       	ldi	r24, 0x00	; 0
    4186:	08 95       	ret
    4188:	82 e0       	ldi	r24, 0x02	; 2
    418a:	08 95       	ret
    418c:	83 e0       	ldi	r24, 0x03	; 3
    418e:	08 95       	ret
    4190:	81 e0       	ldi	r24, 0x01	; 1
    4192:	08 95       	ret

00004194 <Endpoint_Write_Control_PStream_LE>:
                            uint16_t Length)
{
	uint8_t* DataStream     = ((uint8_t*)Buffer + TEMPLATE_BUFFER_OFFSET(Length));
	bool     LastPacketFull = false;

	if (Length > USB_ControlRequest.wLength)
    4194:	20 91 93 03 	lds	r18, 0x0393	; 0x800393 <USB_ControlRequest+0x6>
    4198:	30 91 94 03 	lds	r19, 0x0394	; 0x800394 <USB_ControlRequest+0x7>
    419c:	26 17       	cp	r18, r22
    419e:	37 07       	cpc	r19, r23
    41a0:	48 f0       	brcs	.+18     	; 0x41b4 <Endpoint_Write_Control_PStream_LE+0x20>
	  Length = USB_ControlRequest.wLength;
	else if (!(Length))
    41a2:	61 15       	cp	r22, r1
    41a4:	71 05       	cpc	r23, r1
    41a6:	39 f4       	brne	.+14     	; 0x41b6 <Endpoint_Write_Control_PStream_LE+0x22>
			 */
			static inline void Endpoint_ClearIN(void) ATTR_ALWAYS_INLINE;
			static inline void Endpoint_ClearIN(void)
			{
				#if !defined(CONTROL_ONLY_DEVICE)
					UEINTX &= ~((1 << TXINI) | (1 << FIFOCON));
    41a8:	20 91 e8 00 	lds	r18, 0x00E8	; 0x8000e8 <__DATA_REGION_ORIGIN__+0x88>
    41ac:	2e 77       	andi	r18, 0x7E	; 126
    41ae:	20 93 e8 00 	sts	0x00E8, r18	; 0x8000e8 <__DATA_REGION_ORIGIN__+0x88>
    41b2:	01 c0       	rjmp	.+2      	; 0x41b6 <Endpoint_Write_Control_PStream_LE+0x22>
    41b4:	b9 01       	movw	r22, r18
    41b6:	fc 01       	movw	r30, r24
    41b8:	20 e0       	ldi	r18, 0x00	; 0
	  Endpoint_ClearIN();

	while (Length || LastPacketFull)
    41ba:	61 15       	cp	r22, r1
    41bc:	71 05       	cpc	r23, r1
    41be:	79 f1       	breq	.+94     	; 0x421e <Endpoint_Write_Control_PStream_LE+0x8a>
	{
		uint8_t USB_DeviceState_LCL = USB_DeviceState;
    41c0:	80 91 8c 03 	lds	r24, 0x038C	; 0x80038c <USB_DeviceState>

		if (USB_DeviceState_LCL == DEVICE_STATE_Unattached)
    41c4:	88 23       	and	r24, r24
    41c6:	09 f4       	brne	.+2      	; 0x41ca <Endpoint_Write_Control_PStream_LE+0x36>
    41c8:	3d c0       	rjmp	.+122    	; 0x4244 <Endpoint_Write_Control_PStream_LE+0xb0>
		  return ENDPOINT_RWCSTREAM_DeviceDisconnected;
		else if (USB_DeviceState_LCL == DEVICE_STATE_Suspended)
    41ca:	85 30       	cpi	r24, 0x05	; 5
    41cc:	09 f4       	brne	.+2      	; 0x41d0 <Endpoint_Write_Control_PStream_LE+0x3c>
    41ce:	3c c0       	rjmp	.+120    	; 0x4248 <Endpoint_Write_Control_PStream_LE+0xb4>
			 *  \return Boolean \c true if the selected endpoint has received a SETUP packet, \c false otherwise.
			 */
			static inline bool Endpoint_IsSETUPReceived(void) ATTR_WARN_UNUSED_RESULT ATTR_ALWAYS_INLINE;
			static inline bool Endpoint_IsSETUPReceived(void)
			{
				return ((UEINTX & (1 << RXSTPI)) ? true : false);
    41d0:	80 91 e8 00 	lds	r24, 0x00E8	; 0x8000e8 <__DATA_REGION_ORIGIN__+0x88>
		  return ENDPOINT_RWCSTREAM_BusSuspended;
		else if (Endpoint_IsSETUPReceived())
    41d4:	83 fd       	sbrc	r24, 3
    41d6:	3a c0       	rjmp	.+116    	; 0x424c <Endpoint_Write_Control_PStream_LE+0xb8>
			 *  \return Boolean \c true if current endpoint is has received an OUT packet, \c false otherwise.
			 */
			static inline bool Endpoint_IsOUTReceived(void) ATTR_WARN_UNUSED_RESULT ATTR_ALWAYS_INLINE;
			static inline bool Endpoint_IsOUTReceived(void)
			{
				return ((UEINTX & (1 << RXOUTI)) ? true : false);
    41d8:	80 91 e8 00 	lds	r24, 0x00E8	; 0x8000e8 <__DATA_REGION_ORIGIN__+0x88>
		  return ENDPOINT_RWCSTREAM_HostAborted;
		else if (Endpoint_IsOUTReceived())
    41dc:	82 fd       	sbrc	r24, 2
    41de:	2c c0       	rjmp	.+88     	; 0x4238 <Endpoint_Write_Control_PStream_LE+0xa4>
			 *  \return Boolean \c true if the current endpoint is ready for an IN packet, \c false otherwise.
			 */
			static inline bool Endpoint_IsINReady(void) ATTR_WARN_UNUSED_RESULT ATTR_ALWAYS_INLINE;
			static inline bool Endpoint_IsINReady(void)
			{
				return ((UEINTX & (1 << TXINI)) ? true : false);
    41e0:	80 91 e8 00 	lds	r24, 0x00E8	; 0x8000e8 <__DATA_REGION_ORIGIN__+0x88>
		  break;

		if (Endpoint_IsINReady())
    41e4:	80 ff       	sbrs	r24, 0
    41e6:	e9 cf       	rjmp	.-46     	; 0x41ba <Endpoint_Write_Control_PStream_LE+0x26>
				#if (defined(USB_SERIES_6_AVR) || defined(USB_SERIES_7_AVR))
					return UEBCX;
				#elif defined(USB_SERIES_4_AVR)
					return (((uint16_t)UEBCHX << 8) | UEBCLX);
				#elif defined(USB_SERIES_2_AVR)
					return UEBCLX;
    41e8:	80 91 f2 00 	lds	r24, 0x00F2	; 0x8000f2 <__DATA_REGION_ORIGIN__+0x92>
    41ec:	90 e0       	ldi	r25, 0x00	; 0
		{
			uint16_t BytesInEndpoint = Endpoint_BytesInEndpoint();

			while (Length && (BytesInEndpoint < USB_Device_ControlEndpointSize))
    41ee:	61 15       	cp	r22, r1
    41f0:	71 05       	cpc	r23, r1
    41f2:	59 f0       	breq	.+22     	; 0x420a <Endpoint_Write_Control_PStream_LE+0x76>
    41f4:	88 30       	cpi	r24, 0x08	; 8
    41f6:	91 05       	cpc	r25, r1
    41f8:	40 f4       	brcc	.+16     	; 0x420a <Endpoint_Write_Control_PStream_LE+0x76>
			{
				TEMPLATE_TRANSFER_BYTE(DataStream);
    41fa:	24 91       	lpm	r18, Z
			 *  \param[in] Data  Data to write into the the currently selected endpoint's FIFO buffer.
			 */
			static inline void Endpoint_Write_8(const uint8_t Data) ATTR_ALWAYS_INLINE;
			static inline void Endpoint_Write_8(const uint8_t Data)
			{
				UEDATX = Data;
    41fc:	20 93 f1 00 	sts	0x00F1, r18	; 0x8000f1 <__DATA_REGION_ORIGIN__+0x91>
				TEMPLATE_BUFFER_MOVE(DataStream, 1);
    4200:	31 96       	adiw	r30, 0x01	; 1
				Length--;
    4202:	61 50       	subi	r22, 0x01	; 1
    4204:	71 09       	sbc	r23, r1
				BytesInEndpoint++;
    4206:	01 96       	adiw	r24, 0x01	; 1
    4208:	f2 cf       	rjmp	.-28     	; 0x41ee <Endpoint_Write_Control_PStream_LE+0x5a>
			}

			LastPacketFull = (BytesInEndpoint == USB_Device_ControlEndpointSize);
    420a:	21 e0       	ldi	r18, 0x01	; 1
    420c:	08 97       	sbiw	r24, 0x08	; 8
    420e:	09 f0       	breq	.+2      	; 0x4212 <Endpoint_Write_Control_PStream_LE+0x7e>
    4210:	20 e0       	ldi	r18, 0x00	; 0
			 */
			static inline void Endpoint_ClearIN(void) ATTR_ALWAYS_INLINE;
			static inline void Endpoint_ClearIN(void)
			{
				#if !defined(CONTROL_ONLY_DEVICE)
					UEINTX &= ~((1 << TXINI) | (1 << FIFOCON));
    4212:	80 91 e8 00 	lds	r24, 0x00E8	; 0x8000e8 <__DATA_REGION_ORIGIN__+0x88>
    4216:	8e 77       	andi	r24, 0x7E	; 126
    4218:	80 93 e8 00 	sts	0x00E8, r24	; 0x8000e8 <__DATA_REGION_ORIGIN__+0x88>
    421c:	ce cf       	rjmp	.-100    	; 0x41ba <Endpoint_Write_Control_PStream_LE+0x26>
	if (Length > USB_ControlRequest.wLength)
	  Length = USB_ControlRequest.wLength;
	else if (!(Length))
	  Endpoint_ClearIN();

	while (Length || LastPacketFull)
    421e:	21 11       	cpse	r18, r1
    4220:	cf cf       	rjmp	.-98     	; 0x41c0 <Endpoint_Write_Control_PStream_LE+0x2c>
    4222:	0a c0       	rjmp	.+20     	; 0x4238 <Endpoint_Write_Control_PStream_LE+0xa4>
		}
	}

	while (!(Endpoint_IsOUTReceived()))
	{
		uint8_t USB_DeviceState_LCL = USB_DeviceState;
    4224:	80 91 8c 03 	lds	r24, 0x038C	; 0x80038c <USB_DeviceState>

		if (USB_DeviceState_LCL == DEVICE_STATE_Unattached)
    4228:	88 23       	and	r24, r24
    422a:	61 f0       	breq	.+24     	; 0x4244 <Endpoint_Write_Control_PStream_LE+0xb0>
		  return ENDPOINT_RWCSTREAM_DeviceDisconnected;
		else if (USB_DeviceState_LCL == DEVICE_STATE_Suspended)
    422c:	85 30       	cpi	r24, 0x05	; 5
    422e:	61 f0       	breq	.+24     	; 0x4248 <Endpoint_Write_Control_PStream_LE+0xb4>
			 *  \return Boolean \c true if the selected endpoint has received a SETUP packet, \c false otherwise.
			 */
			static inline bool Endpoint_IsSETUPReceived(void) ATTR_WARN_UNUSED_RESULT ATTR_ALWAYS_INLINE;
			static inline bool Endpoint_IsSETUPReceived(void)
			{
				return ((UEINTX & (1 << RXSTPI)) ? true : false);
    4230:	80 91 e8 00 	lds	r24, 0x00E8	; 0x8000e8 <__DATA_REGION_ORIGIN__+0x88>
		  return ENDPOINT_RWCSTREAM_BusSuspended;
		else if (Endpoint_IsSETUPReceived())
    4234:	83 fd       	sbrc	r24, 3
    4236:	0a c0       	rjmp	.+20     	; 0x424c <Endpoint_Write_Control_PStream_LE+0xb8>
			 *  \return Boolean \c true if current endpoint is has received an OUT packet, \c false otherwise.
			 */
			static inline bool Endpoint_IsOUTReceived(void) ATTR_WARN_UNUSED_RESULT ATTR_ALWAYS_INLINE;
			static inline bool Endpoint_IsOUTReceived(void)
			{
				return ((UEINTX & (1 << RXOUTI)) ? true : false);
    4238:	80 91 e8 00 	lds	r24, 0x00E8	; 0x8000e8 <__DATA_REGION_ORIGIN__+0x88>
			LastPacketFull = (BytesInEndpoint == USB_Device_ControlEndpointSize);
			Endpoint_ClearIN();
		}
	}

	while (!(Endpoint_IsOUTReceived()))
    423c:	82 ff       	sbrs	r24, 2
    423e:	f2 cf       	rjmp	.-28     	; 0x4224 <Endpoint_Write_Control_PStream_LE+0x90>
		  return ENDPOINT_RWCSTREAM_BusSuspended;
		else if (Endpoint_IsSETUPReceived())
		  return ENDPOINT_RWCSTREAM_HostAborted;
	}

	return ENDPOINT_RWCSTREAM_NoError;
    4240:	80 e0       	ldi	r24, 0x00	; 0
    4242:	08 95       	ret
	while (Length || LastPacketFull)
	{
		uint8_t USB_DeviceState_LCL = USB_DeviceState;

		if (USB_DeviceState_LCL == DEVICE_STATE_Unattached)
		  return ENDPOINT_RWCSTREAM_DeviceDisconnected;
    4244:	82 e0       	ldi	r24, 0x02	; 2
    4246:	08 95       	ret
		else if (USB_DeviceState_LCL == DEVICE_STATE_Suspended)
		  return ENDPOINT_RWCSTREAM_BusSuspended;
    4248:	83 e0       	ldi	r24, 0x03	; 3
    424a:	08 95       	ret
		else if (Endpoint_IsSETUPReceived())
		  return ENDPOINT_RWCSTREAM_HostAborted;
    424c:	81 e0       	ldi	r24, 0x01	; 1
		else if (Endpoint_IsSETUPReceived())
		  return ENDPOINT_RWCSTREAM_HostAborted;
	}

	return ENDPOINT_RWCSTREAM_NoError;
}
    424e:	08 95       	ret

00004250 <Endpoint_ConfigureEndpoint_Prv>:
		UEIENX  = 0;
		UEINTX  = 0;
		UECFG1X = 0;
		Endpoint_DisableEndpoint();
	}
}
    4250:	98 2f       	mov	r25, r24
    4252:	95 30       	cpi	r25, 0x05	; 5
    4254:	68 f5       	brcc	.+90     	; 0x42b0 <Endpoint_ConfigureEndpoint_Prv+0x60>
    4256:	90 93 e9 00 	sts	0x00E9, r25	; 0x8000e9 <__DATA_REGION_ORIGIN__+0x89>
    425a:	98 17       	cp	r25, r24
    425c:	39 f0       	breq	.+14     	; 0x426c <Endpoint_ConfigureEndpoint_Prv+0x1c>
    425e:	70 91 ec 00 	lds	r23, 0x00EC	; 0x8000ec <__DATA_REGION_ORIGIN__+0x8c>
    4262:	20 91 ed 00 	lds	r18, 0x00ED	; 0x8000ed <__DATA_REGION_ORIGIN__+0x8d>
    4266:	50 91 f0 00 	lds	r21, 0x00F0	; 0x8000f0 <__DATA_REGION_ORIGIN__+0x90>
    426a:	03 c0       	rjmp	.+6      	; 0x4272 <Endpoint_ConfigureEndpoint_Prv+0x22>
    426c:	24 2f       	mov	r18, r20
    426e:	76 2f       	mov	r23, r22
    4270:	50 e0       	ldi	r21, 0x00	; 0
    4272:	21 fd       	sbrc	r18, 1
    4274:	02 c0       	rjmp	.+4      	; 0x427a <Endpoint_ConfigureEndpoint_Prv+0x2a>
    4276:	9f 5f       	subi	r25, 0xFF	; 255
    4278:	ec cf       	rjmp	.-40     	; 0x4252 <Endpoint_ConfigureEndpoint_Prv+0x2>
    427a:	30 91 eb 00 	lds	r19, 0x00EB	; 0x8000eb <__DATA_REGION_ORIGIN__+0x8b>
    427e:	3e 7f       	andi	r19, 0xFE	; 254
    4280:	30 93 eb 00 	sts	0x00EB, r19	; 0x8000eb <__DATA_REGION_ORIGIN__+0x8b>
    4284:	30 91 ed 00 	lds	r19, 0x00ED	; 0x8000ed <__DATA_REGION_ORIGIN__+0x8d>
    4288:	3d 7f       	andi	r19, 0xFD	; 253
    428a:	30 93 ed 00 	sts	0x00ED, r19	; 0x8000ed <__DATA_REGION_ORIGIN__+0x8d>
    428e:	30 91 eb 00 	lds	r19, 0x00EB	; 0x8000eb <__DATA_REGION_ORIGIN__+0x8b>
    4292:	31 60       	ori	r19, 0x01	; 1
    4294:	30 93 eb 00 	sts	0x00EB, r19	; 0x8000eb <__DATA_REGION_ORIGIN__+0x8b>
    4298:	70 93 ec 00 	sts	0x00EC, r23	; 0x8000ec <__DATA_REGION_ORIGIN__+0x8c>
    429c:	20 93 ed 00 	sts	0x00ED, r18	; 0x8000ed <__DATA_REGION_ORIGIN__+0x8d>
    42a0:	50 93 f0 00 	sts	0x00F0, r21	; 0x8000f0 <__DATA_REGION_ORIGIN__+0x90>
    42a4:	20 91 ee 00 	lds	r18, 0x00EE	; 0x8000ee <__DATA_REGION_ORIGIN__+0x8e>
    42a8:	27 fd       	sbrc	r18, 7
    42aa:	e5 cf       	rjmp	.-54     	; 0x4276 <Endpoint_ConfigureEndpoint_Prv+0x26>
    42ac:	80 e0       	ldi	r24, 0x00	; 0
    42ae:	08 95       	ret
    42b0:	8f 70       	andi	r24, 0x0F	; 15
    42b2:	80 93 e9 00 	sts	0x00E9, r24	; 0x8000e9 <__DATA_REGION_ORIGIN__+0x89>
    42b6:	81 e0       	ldi	r24, 0x01	; 1
    42b8:	08 95       	ret

000042ba <Endpoint_ConfigureEndpointTable>:
    42ba:	0f 93       	push	r16
    42bc:	1f 93       	push	r17
    42be:	cf 93       	push	r28
    42c0:	df 93       	push	r29
    42c2:	06 2f       	mov	r16, r22
    42c4:	ec 01       	movw	r28, r24
    42c6:	10 e0       	ldi	r17, 0x00	; 0
    42c8:	10 17       	cp	r17, r16
    42ca:	71 f1       	breq	.+92     	; 0x4328 <Endpoint_ConfigureEndpointTable+0x6e>
    42cc:	98 81       	ld	r25, Y
    42ce:	91 11       	cpse	r25, r1
    42d0:	03 c0       	rjmp	.+6      	; 0x42d8 <Endpoint_ConfigureEndpointTable+0x1e>
    42d2:	1f 5f       	subi	r17, 0xFF	; 255
    42d4:	25 96       	adiw	r28, 0x05	; 5
    42d6:	f8 cf       	rjmp	.-16     	; 0x42c8 <Endpoint_ConfigureEndpointTable+0xe>
    42d8:	2c 81       	ldd	r18, Y+4	; 0x04
    42da:	a9 81       	ldd	r26, Y+1	; 0x01
    42dc:	ba 81       	ldd	r27, Y+2	; 0x02
    42de:	6b 81       	ldd	r22, Y+3	; 0x03
    42e0:	89 2f       	mov	r24, r25
    42e2:	8f 70       	andi	r24, 0x0F	; 15
    42e4:	85 30       	cpi	r24, 0x05	; 5
    42e6:	10 f0       	brcs	.+4      	; 0x42ec <Endpoint_ConfigureEndpointTable+0x32>
    42e8:	80 e0       	ldi	r24, 0x00	; 0
    42ea:	1f c0       	rjmp	.+62     	; 0x432a <Endpoint_ConfigureEndpointTable+0x70>
    42ec:	22 30       	cpi	r18, 0x02	; 2
    42ee:	10 f4       	brcc	.+4      	; 0x42f4 <Endpoint_ConfigureEndpointTable+0x3a>
    42f0:	42 e0       	ldi	r20, 0x02	; 2
    42f2:	01 c0       	rjmp	.+2      	; 0x42f6 <Endpoint_ConfigureEndpointTable+0x3c>
    42f4:	46 e0       	ldi	r20, 0x06	; 6
    42f6:	e8 e0       	ldi	r30, 0x08	; 8
    42f8:	f0 e0       	ldi	r31, 0x00	; 0
    42fa:	20 e0       	ldi	r18, 0x00	; 0
    42fc:	ea 17       	cp	r30, r26
    42fe:	fb 07       	cpc	r31, r27
    4300:	20 f4       	brcc	.+8      	; 0x430a <Endpoint_ConfigureEndpointTable+0x50>
    4302:	2f 5f       	subi	r18, 0xFF	; 255
    4304:	ee 0f       	add	r30, r30
    4306:	ff 1f       	adc	r31, r31
    4308:	f9 cf       	rjmp	.-14     	; 0x42fc <Endpoint_ConfigureEndpointTable+0x42>
    430a:	22 95       	swap	r18
    430c:	20 7f       	andi	r18, 0xF0	; 240
    430e:	42 2b       	or	r20, r18
    4310:	62 95       	swap	r22
    4312:	66 0f       	add	r22, r22
    4314:	66 0f       	add	r22, r22
    4316:	60 7c       	andi	r22, 0xC0	; 192
    4318:	99 1f       	adc	r25, r25
    431a:	99 27       	eor	r25, r25
    431c:	99 1f       	adc	r25, r25
    431e:	69 2b       	or	r22, r25
    4320:	97 df       	rcall	.-210    	; 0x4250 <Endpoint_ConfigureEndpoint_Prv>
    4322:	81 11       	cpse	r24, r1
    4324:	d6 cf       	rjmp	.-84     	; 0x42d2 <Endpoint_ConfigureEndpointTable+0x18>
    4326:	e0 cf       	rjmp	.-64     	; 0x42e8 <Endpoint_ConfigureEndpointTable+0x2e>
    4328:	81 e0       	ldi	r24, 0x01	; 1
    432a:	df 91       	pop	r29
    432c:	cf 91       	pop	r28
    432e:	1f 91       	pop	r17
    4330:	0f 91       	pop	r16
    4332:	08 95       	ret

00004334 <Endpoint_ClearStatusStage>:

void Endpoint_ClearStatusStage(void)
{
	if (USB_ControlRequest.bmRequestType & REQDIR_DEVICETOHOST)
    4334:	80 91 8d 03 	lds	r24, 0x038D	; 0x80038d <USB_ControlRequest>
    4338:	87 ff       	sbrs	r24, 7
    433a:	11 c0       	rjmp	.+34     	; 0x435e <Endpoint_ClearStatusStage+0x2a>
			 *  \return Boolean \c true if current endpoint is has received an OUT packet, \c false otherwise.
			 */
			static inline bool Endpoint_IsOUTReceived(void) ATTR_WARN_UNUSED_RESULT ATTR_ALWAYS_INLINE;
			static inline bool Endpoint_IsOUTReceived(void)
			{
				return ((UEINTX & (1 << RXOUTI)) ? true : false);
    433c:	80 91 e8 00 	lds	r24, 0x00E8	; 0x8000e8 <__DATA_REGION_ORIGIN__+0x88>
	{
		while (!(Endpoint_IsOUTReceived()))
    4340:	82 fd       	sbrc	r24, 2
    4342:	05 c0       	rjmp	.+10     	; 0x434e <Endpoint_ClearStatusStage+0x1a>
		{
			if (USB_DeviceState == DEVICE_STATE_Unattached)
    4344:	80 91 8c 03 	lds	r24, 0x038C	; 0x80038c <USB_DeviceState>
    4348:	81 11       	cpse	r24, r1
    434a:	f8 cf       	rjmp	.-16     	; 0x433c <Endpoint_ClearStatusStage+0x8>
    434c:	11 c0       	rjmp	.+34     	; 0x4370 <Endpoint_ClearStatusStage+0x3c>
			 */
			static inline void Endpoint_ClearOUT(void) ATTR_ALWAYS_INLINE;
			static inline void Endpoint_ClearOUT(void)
			{
				#if !defined(CONTROL_ONLY_DEVICE)
					UEINTX &= ~((1 << RXOUTI) | (1 << FIFOCON));
    434e:	80 91 e8 00 	lds	r24, 0x00E8	; 0x8000e8 <__DATA_REGION_ORIGIN__+0x88>
    4352:	8b 77       	andi	r24, 0x7B	; 123
    4354:	0b c0       	rjmp	.+22     	; 0x436c <Endpoint_ClearStatusStage+0x38>
	}
	else
	{
		while (!(Endpoint_IsINReady()))
		{
			if (USB_DeviceState == DEVICE_STATE_Unattached)
    4356:	80 91 8c 03 	lds	r24, 0x038C	; 0x80038c <USB_DeviceState>
    435a:	88 23       	and	r24, r24
    435c:	49 f0       	breq	.+18     	; 0x4370 <Endpoint_ClearStatusStage+0x3c>
			 *  \return Boolean \c true if the current endpoint is ready for an IN packet, \c false otherwise.
			 */
			static inline bool Endpoint_IsINReady(void) ATTR_WARN_UNUSED_RESULT ATTR_ALWAYS_INLINE;
			static inline bool Endpoint_IsINReady(void)
			{
				return ((UEINTX & (1 << TXINI)) ? true : false);
    435e:	80 91 e8 00 	lds	r24, 0x00E8	; 0x8000e8 <__DATA_REGION_ORIGIN__+0x88>

		Endpoint_ClearOUT();
	}
	else
	{
		while (!(Endpoint_IsINReady()))
    4362:	80 ff       	sbrs	r24, 0
    4364:	f8 cf       	rjmp	.-16     	; 0x4356 <Endpoint_ClearStatusStage+0x22>
			 */
			static inline void Endpoint_ClearIN(void) ATTR_ALWAYS_INLINE;
			static inline void Endpoint_ClearIN(void)
			{
				#if !defined(CONTROL_ONLY_DEVICE)
					UEINTX &= ~((1 << TXINI) | (1 << FIFOCON));
    4366:	80 91 e8 00 	lds	r24, 0x00E8	; 0x8000e8 <__DATA_REGION_ORIGIN__+0x88>
    436a:	8e 77       	andi	r24, 0x7E	; 126
    436c:	80 93 e8 00 	sts	0x00E8, r24	; 0x8000e8 <__DATA_REGION_ORIGIN__+0x88>
    4370:	08 95       	ret

00004372 <Endpoint_WaitUntilReady>:
			 *  \return Current USB frame number from the USB controller.
			 */
			static inline uint16_t USB_Device_GetFrameNumber(void) ATTR_ALWAYS_INLINE ATTR_WARN_UNUSED_RESULT;
			static inline uint16_t USB_Device_GetFrameNumber(void)
			{
				return UDFNUM;
    4372:	20 91 e4 00 	lds	r18, 0x00E4	; 0x8000e4 <__DATA_REGION_ORIGIN__+0x84>
    4376:	30 91 e5 00 	lds	r19, 0x00E5	; 0x8000e5 <__DATA_REGION_ORIGIN__+0x85>
    437a:	95 e6       	ldi	r25, 0x65	; 101
			 *  \return The currently selected endpoint's direction, as a \c ENDPOINT_DIR_* mask.
			 */
			static inline uint8_t Endpoint_GetEndpointDirection(void) ATTR_WARN_UNUSED_RESULT ATTR_ALWAYS_INLINE;
			static inline uint8_t Endpoint_GetEndpointDirection(void)
			{
				return (UECFG0X & (1 << EPDIR)) ? ENDPOINT_DIR_IN : ENDPOINT_DIR_OUT;
    437c:	40 91 ec 00 	lds	r20, 0x00EC	; 0x8000ec <__DATA_REGION_ORIGIN__+0x8c>
    4380:	84 2f       	mov	r24, r20
    4382:	81 70       	andi	r24, 0x01	; 1
    4384:	40 ff       	sbrs	r20, 0
    4386:	23 c0       	rjmp	.+70     	; 0x43ce <Endpoint_WaitUntilReady+0x5c>
			 *  \return Boolean \c true if the current endpoint is ready for an IN packet, \c false otherwise.
			 */
			static inline bool Endpoint_IsINReady(void) ATTR_WARN_UNUSED_RESULT ATTR_ALWAYS_INLINE;
			static inline bool Endpoint_IsINReady(void)
			{
				return ((UEINTX & (1 << TXINI)) ? true : false);
    4388:	80 91 e8 00 	lds	r24, 0x00E8	; 0x8000e8 <__DATA_REGION_ORIGIN__+0x88>

	for (;;)
	{
		if (Endpoint_GetEndpointDirection() == ENDPOINT_DIR_IN)
		{
			if (Endpoint_IsINReady())
    438c:	80 fd       	sbrc	r24, 0
    438e:	1d c0       	rjmp	.+58     	; 0x43ca <Endpoint_WaitUntilReady+0x58>
		{
			if (Endpoint_IsOUTReceived())
			  return ENDPOINT_READYWAIT_NoError;
		}

		uint8_t USB_DeviceState_LCL = USB_DeviceState;
    4390:	80 91 8c 03 	lds	r24, 0x038C	; 0x80038c <USB_DeviceState>

		if (USB_DeviceState_LCL == DEVICE_STATE_Unattached)
    4394:	88 23       	and	r24, r24
    4396:	99 f0       	breq	.+38     	; 0x43be <Endpoint_WaitUntilReady+0x4c>
		  return ENDPOINT_READYWAIT_DeviceDisconnected;
		else if (USB_DeviceState_LCL == DEVICE_STATE_Suspended)
    4398:	85 30       	cpi	r24, 0x05	; 5
    439a:	99 f0       	breq	.+38     	; 0x43c2 <Endpoint_WaitUntilReady+0x50>
			 *  \return Boolean \c true if the currently selected endpoint is stalled, \c false otherwise.
			 */
			static inline bool Endpoint_IsStalled(void) ATTR_WARN_UNUSED_RESULT ATTR_ALWAYS_INLINE;
			static inline bool Endpoint_IsStalled(void)
			{
				return ((UECONX & (1 << STALLRQ)) ? true : false);
    439c:	80 91 eb 00 	lds	r24, 0x00EB	; 0x8000eb <__DATA_REGION_ORIGIN__+0x8b>
		  return ENDPOINT_READYWAIT_BusSuspended;
		else if (Endpoint_IsStalled())
    43a0:	85 fd       	sbrc	r24, 5
    43a2:	11 c0       	rjmp	.+34     	; 0x43c6 <Endpoint_WaitUntilReady+0x54>
    43a4:	40 91 e4 00 	lds	r20, 0x00E4	; 0x8000e4 <__DATA_REGION_ORIGIN__+0x84>
    43a8:	50 91 e5 00 	lds	r21, 0x00E5	; 0x8000e5 <__DATA_REGION_ORIGIN__+0x85>
		  return ENDPOINT_READYWAIT_EndpointStalled;

		uint16_t CurrentFrameNumber = USB_Device_GetFrameNumber();

		if (CurrentFrameNumber != PreviousFrameNumber)
    43ac:	24 17       	cp	r18, r20
    43ae:	35 07       	cpc	r19, r21
    43b0:	29 f3       	breq	.-54     	; 0x437c <Endpoint_WaitUntilReady+0xa>
    43b2:	91 50       	subi	r25, 0x01	; 1
		{
			PreviousFrameNumber = CurrentFrameNumber;

			if (!(TimeoutMSRem--))
    43b4:	11 f0       	breq	.+4      	; 0x43ba <Endpoint_WaitUntilReady+0x48>
    43b6:	9a 01       	movw	r18, r20
    43b8:	e1 cf       	rjmp	.-62     	; 0x437c <Endpoint_WaitUntilReady+0xa>
			  return ENDPOINT_READYWAIT_Timeout;
    43ba:	84 e0       	ldi	r24, 0x04	; 4
    43bc:	08 95       	ret
		}

		uint8_t USB_DeviceState_LCL = USB_DeviceState;

		if (USB_DeviceState_LCL == DEVICE_STATE_Unattached)
		  return ENDPOINT_READYWAIT_DeviceDisconnected;
    43be:	82 e0       	ldi	r24, 0x02	; 2
    43c0:	08 95       	ret
		else if (USB_DeviceState_LCL == DEVICE_STATE_Suspended)
		  return ENDPOINT_READYWAIT_BusSuspended;
    43c2:	83 e0       	ldi	r24, 0x03	; 3
    43c4:	08 95       	ret
		else if (Endpoint_IsStalled())
		  return ENDPOINT_READYWAIT_EndpointStalled;
    43c6:	81 e0       	ldi	r24, 0x01	; 1
    43c8:	08 95       	ret
	for (;;)
	{
		if (Endpoint_GetEndpointDirection() == ENDPOINT_DIR_IN)
		{
			if (Endpoint_IsINReady())
			  return ENDPOINT_READYWAIT_NoError;
    43ca:	80 e0       	ldi	r24, 0x00	; 0
    43cc:	08 95       	ret
			 *  \return Boolean \c true if current endpoint is has received an OUT packet, \c false otherwise.
			 */
			static inline bool Endpoint_IsOUTReceived(void) ATTR_WARN_UNUSED_RESULT ATTR_ALWAYS_INLINE;
			static inline bool Endpoint_IsOUTReceived(void)
			{
				return ((UEINTX & (1 << RXOUTI)) ? true : false);
    43ce:	40 91 e8 00 	lds	r20, 0x00E8	; 0x8000e8 <__DATA_REGION_ORIGIN__+0x88>
		}
		else
		{
			if (Endpoint_IsOUTReceived())
    43d2:	42 ff       	sbrs	r20, 2
    43d4:	dd cf       	rjmp	.-70     	; 0x4390 <Endpoint_WaitUntilReady+0x1e>

			if (!(TimeoutMSRem--))
			  return ENDPOINT_READYWAIT_Timeout;
		}
	}
}
    43d6:	08 95       	ret

000043d8 <USB_ResetInterface>:
{
	#if defined(USB_CAN_BE_BOTH)
	bool UIDModeSelectEnabled = ((UHWCON & (1 << UIDE)) != 0);
	#endif

	USB_INT_DisableAllInterrupts();
    43d8:	41 d0       	rcall	.+130    	; 0x445c <USB_INT_DisableAllInterrupts>
	USB_INT_ClearAllInterrupts();
    43da:	43 d0       	rcall	.+134    	; 0x4462 <USB_INT_ClearAllInterrupts>
    43dc:	80 91 d8 00 	lds	r24, 0x00D8	; 0x8000d8 <__DATA_REGION_ORIGIN__+0x78>
			}

			static inline void USB_Controller_Reset(void) ATTR_ALWAYS_INLINE;
			static inline void USB_Controller_Reset(void)
			{
				USBCON &= ~(1 << USBE);
    43e0:	8f 77       	andi	r24, 0x7F	; 127
    43e2:	80 93 d8 00 	sts	0x00D8, r24	; 0x8000d8 <__DATA_REGION_ORIGIN__+0x78>
    43e6:	80 91 d8 00 	lds	r24, 0x00D8	; 0x8000d8 <__DATA_REGION_ORIGIN__+0x78>
				USBCON |=  (1 << USBE);
    43ea:	80 68       	ori	r24, 0x80	; 128
    43ec:	80 93 d8 00 	sts	0x00D8, r24	; 0x8000d8 <__DATA_REGION_ORIGIN__+0x78>
    43f0:	80 91 d8 00 	lds	r24, 0x00D8	; 0x8000d8 <__DATA_REGION_ORIGIN__+0x78>
			}

			static inline void USB_CLK_Unfreeze(void) ATTR_ALWAYS_INLINE;
			static inline void USB_CLK_Unfreeze(void)
			{
				USBCON &= ~(1 << FRZCLK);
    43f4:	8f 7d       	andi	r24, 0xDF	; 223
    43f6:	80 93 d8 00 	sts	0x00D8, r24	; 0x8000d8 <__DATA_REGION_ORIGIN__+0x78>
    43fa:	84 e0       	ldi	r24, 0x04	; 4

		/* Inline Functions: */
			static inline void USB_PLL_On(void) ATTR_ALWAYS_INLINE;
			static inline void USB_PLL_On(void)
			{
				PLLCSR = USB_PLL_PSC;
    43fc:	89 bd       	out	0x29, r24	; 41
    43fe:	86 e0       	ldi	r24, 0x06	; 6
				PLLCSR = (USB_PLL_PSC | (1 << PLLE));
    4400:	89 bd       	out	0x29, r24	; 41
    4402:	09 b4       	in	r0, 0x29	; 41

		if (!(USB_Options & USB_OPT_MANUAL_PLL))
		{
			#if defined(USB_SERIES_2_AVR)
			USB_PLL_On();
			while (!(USB_PLL_IsReady()));
    4404:	00 fe       	sbrs	r0, 0
    4406:	fd cf       	rjmp	.-6      	; 0x4402 <USB_ResetInterface+0x2a>
    4408:	10 92 8c 03 	sts	0x038C, r1	; 0x80038c <USB_DeviceState>
}

#if defined(USB_CAN_BE_DEVICE)
static void USB_Init_Device(void)
{
	USB_DeviceState                 = DEVICE_STATE_Unattached;
    440c:	10 92 88 03 	sts	0x0388, r1	; 0x800388 <USB_Device_ConfigurationNumber>
	USB_Device_ConfigurationNumber  = 0;
    4410:	10 92 8a 03 	sts	0x038A, r1	; 0x80038a <USB_Device_RemoteWakeupEnabled>

	#if !defined(NO_DEVICE_REMOTE_WAKEUP)
	USB_Device_RemoteWakeupEnabled  = false;
    4414:	10 92 89 03 	sts	0x0389, r1	; 0x800389 <USB_Device_CurrentlySelfPowered>
	#endif

	#if !defined(NO_DEVICE_SELF_POWER)
	USB_Device_CurrentlySelfPowered = false;
    4418:	42 e0       	ldi	r20, 0x02	; 2
				uint8_t Number = (Address & ENDPOINT_EPNUM_MASK);

				if (Number >= ENDPOINT_TOTAL_ENDPOINTS)
				  return false;

				return Endpoint_ConfigureEndpoint_Prv(Number,
    441a:	60 e0       	ldi	r22, 0x00	; 0
    441c:	80 e0       	ldi	r24, 0x00	; 0
    441e:	18 df       	rcall	.-464    	; 0x4250 <Endpoint_ConfigureEndpoint_Prv>
    4420:	80 91 e1 00 	lds	r24, 0x00E1	; 0x8000e1 <__DATA_REGION_ORIGIN__+0x81>
					#if defined(USB_CAN_BE_DEVICE)
					case USB_INT_WAKEUPI:
						UDINT  &= ~(1 << WAKEUPI);
						break;
					case USB_INT_SUSPI:
						UDINT  &= ~(1 << SUSPI);
    4424:	8e 7f       	andi	r24, 0xFE	; 254
    4426:	80 93 e1 00 	sts	0x00E1, r24	; 0x8000e1 <__DATA_REGION_ORIGIN__+0x81>
    442a:	80 91 e2 00 	lds	r24, 0x00E2	; 0x8000e2 <__DATA_REGION_ORIGIN__+0x82>
					#if defined(USB_CAN_BE_DEVICE)
					case USB_INT_WAKEUPI:
						UDIEN  |= (1 << WAKEUPE);
						break;
					case USB_INT_SUSPI:
						UDIEN  |= (1 << SUSPE);
    442e:	81 60       	ori	r24, 0x01	; 1
    4430:	80 93 e2 00 	sts	0x00E2, r24	; 0x8000e2 <__DATA_REGION_ORIGIN__+0x82>
    4434:	80 91 e2 00 	lds	r24, 0x00E2	; 0x8000e2 <__DATA_REGION_ORIGIN__+0x82>
						break;
					case USB_INT_EORSTI:
						UDIEN  |= (1 << EORSTE);
    4438:	88 60       	ori	r24, 0x08	; 8
    443a:	80 93 e2 00 	sts	0x00E2, r24	; 0x8000e2 <__DATA_REGION_ORIGIN__+0x82>
    443e:	80 91 e0 00 	lds	r24, 0x00E0	; 0x8000e0 <__DATA_REGION_ORIGIN__+0x80>
			 *  register and despite the datasheet making no mention of its requirement in host mode.
			 */
			static inline void USB_Attach(void) ATTR_ALWAYS_INLINE;
			static inline void USB_Attach(void)
			{
				UDCON  &= ~(1 << DETACH);
    4442:	8e 7f       	andi	r24, 0xFE	; 254
    4444:	80 93 e0 00 	sts	0x00E0, r24	; 0x8000e0 <__DATA_REGION_ORIGIN__+0x80>
    4448:	08 95       	ret

0000444a <USB_Init>:
    444a:	e3 e6       	ldi	r30, 0x63	; 99
			static inline void USB_REG_On(void)
			{
			#if defined(USB_SERIES_4_AVR) || defined(USB_SERIES_6_AVR) || defined(USB_SERIES_7_AVR)
				UHWCON |=  (1 << UVREGE);
			#else
				REGCR  &= ~(1 << REGDIS);
    444c:	f0 e0       	ldi	r31, 0x00	; 0
    444e:	80 81       	ld	r24, Z
    4450:	8e 7f       	andi	r24, 0xFE	; 254
    4452:	80 83       	st	Z, r24
		UHWCON &= ~(1 << UIDE);
		USB_CurrentMode = Mode;
	}
	#endif

	USB_IsInitialized = true;
    4454:	81 e0       	ldi	r24, 0x01	; 1
    4456:	80 93 8b 03 	sts	0x038B, r24	; 0x80038b <USB_IsInitialized>

	USB_ResetInterface();
    445a:	be cf       	rjmp	.-132    	; 0x43d8 <USB_ResetInterface>

0000445c <USB_INT_DisableAllInterrupts>:
	#if defined(USB_CAN_BE_HOST)
	UHIEN   = 0;
	#endif

	#if defined(USB_CAN_BE_DEVICE)
	UDIEN   = 0;
    445c:	10 92 e2 00 	sts	0x00E2, r1	; 0x8000e2 <__DATA_REGION_ORIGIN__+0x82>
    4460:	08 95       	ret

00004462 <USB_INT_ClearAllInterrupts>:
	#if defined(USB_CAN_BE_HOST)
	UHINT  = 0;
	#endif

	#if defined(USB_CAN_BE_DEVICE)
	UDINT  = 0;
    4462:	10 92 e1 00 	sts	0x00E1, r1	; 0x8000e1 <__DATA_REGION_ORIGIN__+0x81>
    4466:	08 95       	ret

00004468 <__vector_11>:
	#endif
}

ISR(USB_GEN_vect, ISR_BLOCK)
{
    4468:	1f 92       	push	r1
    446a:	0f 92       	push	r0
    446c:	0f b6       	in	r0, 0x3f	; 63
    446e:	0f 92       	push	r0
    4470:	11 24       	eor	r1, r1
    4472:	2f 93       	push	r18
    4474:	3f 93       	push	r19
    4476:	4f 93       	push	r20
    4478:	5f 93       	push	r21
    447a:	6f 93       	push	r22
    447c:	7f 93       	push	r23
    447e:	8f 93       	push	r24
    4480:	9f 93       	push	r25
    4482:	af 93       	push	r26
    4484:	bf 93       	push	r27
    4486:	ef 93       	push	r30
    4488:	ff 93       	push	r31
					case USB_INT_SUSPI:
						return (UDINT  & (1 << SUSPI));
					case USB_INT_EORSTI:
						return (UDINT  & (1 << EORSTI));
					case USB_INT_SOFI:
						return (UDINT  & (1 << SOFI));
    448a:	80 91 e1 00 	lds	r24, 0x00E1	; 0x8000e1 <__DATA_REGION_ORIGIN__+0x81>
	#if defined(USB_CAN_BE_DEVICE)
	#if !defined(NO_SOF_EVENTS)
	if (USB_INT_HasOccurred(USB_INT_SOFI) && USB_INT_IsEnabled(USB_INT_SOFI))
    448e:	82 ff       	sbrs	r24, 2
    4490:	0a c0       	rjmp	.+20     	; 0x44a6 <__vector_11+0x3e>
					case USB_INT_SUSPI:
						return (UDIEN  & (1 << SUSPE));
					case USB_INT_EORSTI:
						return (UDIEN  & (1 << EORSTE));
					case USB_INT_SOFI:
						return (UDIEN  & (1 << SOFE));
    4492:	80 91 e2 00 	lds	r24, 0x00E2	; 0x8000e2 <__DATA_REGION_ORIGIN__+0x82>
    4496:	82 ff       	sbrs	r24, 2
    4498:	06 c0       	rjmp	.+12     	; 0x44a6 <__vector_11+0x3e>
						break;
					case USB_INT_EORSTI:
						UDINT  &= ~(1 << EORSTI);
						break;
					case USB_INT_SOFI:
						UDINT  &= ~(1 << SOFI);
    449a:	80 91 e1 00 	lds	r24, 0x00E1	; 0x8000e1 <__DATA_REGION_ORIGIN__+0x81>
    449e:	8b 7f       	andi	r24, 0xFB	; 251
    44a0:	80 93 e1 00 	sts	0x00E1, r24	; 0x8000e1 <__DATA_REGION_ORIGIN__+0x81>
	{
		USB_INT_Clear(USB_INT_SOFI);

		EVENT_USB_Device_StartOfFrame();
    44a4:	25 d2       	rcall	.+1098   	; 0x48f0 <USB_Event_Stub>
					#endif
					#if defined(USB_CAN_BE_DEVICE)
					case USB_INT_WAKEUPI:
						return (UDINT  & (1 << WAKEUPI));
					case USB_INT_SUSPI:
						return (UDINT  & (1 << SUSPI));
    44a6:	80 91 e1 00 	lds	r24, 0x00E1	; 0x8000e1 <__DATA_REGION_ORIGIN__+0x81>
			EVENT_USB_Device_Disconnect();
		}
	}
	#endif

	if (USB_INT_HasOccurred(USB_INT_SUSPI) && USB_INT_IsEnabled(USB_INT_SUSPI))
    44aa:	80 ff       	sbrs	r24, 0
    44ac:	17 c0       	rjmp	.+46     	; 0x44dc <__vector_11+0x74>
					#endif
					#if defined(USB_CAN_BE_DEVICE)
					case USB_INT_WAKEUPI:
						return (UDIEN  & (1 << WAKEUPE));
					case USB_INT_SUSPI:
						return (UDIEN  & (1 << SUSPE));
    44ae:	80 91 e2 00 	lds	r24, 0x00E2	; 0x8000e2 <__DATA_REGION_ORIGIN__+0x82>
    44b2:	80 ff       	sbrs	r24, 0
    44b4:	13 c0       	rjmp	.+38     	; 0x44dc <__vector_11+0x74>
					#if defined(USB_CAN_BE_DEVICE)
					case USB_INT_WAKEUPI:
						UDIEN  &= ~(1 << WAKEUPE);
						break;
					case USB_INT_SUSPI:
						UDIEN  &= ~(1 << SUSPE);
    44b6:	80 91 e2 00 	lds	r24, 0x00E2	; 0x8000e2 <__DATA_REGION_ORIGIN__+0x82>
    44ba:	8e 7f       	andi	r24, 0xFE	; 254
    44bc:	80 93 e2 00 	sts	0x00E2, r24	; 0x8000e2 <__DATA_REGION_ORIGIN__+0x82>
						USBCON |= (1 << IDTE);
						break;
					#endif
					#if defined(USB_CAN_BE_DEVICE)
					case USB_INT_WAKEUPI:
						UDIEN  |= (1 << WAKEUPE);
    44c0:	80 91 e2 00 	lds	r24, 0x00E2	; 0x8000e2 <__DATA_REGION_ORIGIN__+0x82>
    44c4:	80 61       	ori	r24, 0x10	; 16
    44c6:	80 93 e2 00 	sts	0x00E2, r24	; 0x8000e2 <__DATA_REGION_ORIGIN__+0x82>
			#endif

			static inline void USB_CLK_Freeze(void) ATTR_ALWAYS_INLINE;
			static inline void USB_CLK_Freeze(void)
			{
				USBCON |=  (1 << FRZCLK);
    44ca:	80 91 d8 00 	lds	r24, 0x00D8	; 0x8000d8 <__DATA_REGION_ORIGIN__+0x78>
    44ce:	80 62       	ori	r24, 0x20	; 32
    44d0:	80 93 d8 00 	sts	0x00D8, r24	; 0x8000d8 <__DATA_REGION_ORIGIN__+0x78>
			}

			static inline void USB_PLL_Off(void) ATTR_ALWAYS_INLINE;
			static inline void USB_PLL_Off(void)
			{
				PLLCSR = 0;
    44d4:	19 bc       	out	0x29, r1	; 41

		if (!(USB_Options & USB_OPT_MANUAL_PLL))
		  USB_PLL_Off();

		#if defined(USB_SERIES_2_AVR) && !defined(NO_LIMITED_CONTROLLER_CONNECT)
		USB_DeviceState = DEVICE_STATE_Unattached;
    44d6:	10 92 8c 03 	sts	0x038C, r1	; 0x80038c <USB_DeviceState>
		EVENT_USB_Device_Disconnect();
    44da:	1b d3       	rcall	.+1590   	; 0x4b12 <EVENT_USB_Device_Disconnect>
					case USB_INT_IDTI:
						return (USBINT & (1 << IDTI));
					#endif
					#if defined(USB_CAN_BE_DEVICE)
					case USB_INT_WAKEUPI:
						return (UDINT  & (1 << WAKEUPI));
    44dc:	80 91 e1 00 	lds	r24, 0x00E1	; 0x8000e1 <__DATA_REGION_ORIGIN__+0x81>
		USB_DeviceState = DEVICE_STATE_Suspended;
		EVENT_USB_Device_Suspend();
		#endif
	}

	if (USB_INT_HasOccurred(USB_INT_WAKEUPI) && USB_INT_IsEnabled(USB_INT_WAKEUPI))
    44e0:	84 ff       	sbrs	r24, 4
    44e2:	2f c0       	rjmp	.+94     	; 0x4542 <__vector_11+0xda>
					case USB_INT_IDTI:
						return (USBCON & (1 << IDTE));
					#endif
					#if defined(USB_CAN_BE_DEVICE)
					case USB_INT_WAKEUPI:
						return (UDIEN  & (1 << WAKEUPE));
    44e4:	80 91 e2 00 	lds	r24, 0x00E2	; 0x8000e2 <__DATA_REGION_ORIGIN__+0x82>
    44e8:	84 ff       	sbrs	r24, 4
    44ea:	2b c0       	rjmp	.+86     	; 0x4542 <__vector_11+0xda>

		/* Inline Functions: */
			static inline void USB_PLL_On(void) ATTR_ALWAYS_INLINE;
			static inline void USB_PLL_On(void)
			{
				PLLCSR = USB_PLL_PSC;
    44ec:	84 e0       	ldi	r24, 0x04	; 4
    44ee:	89 bd       	out	0x29, r24	; 41
				PLLCSR = (USB_PLL_PSC | (1 << PLLE));
    44f0:	86 e0       	ldi	r24, 0x06	; 6
    44f2:	89 bd       	out	0x29, r24	; 41
	{
		if (!(USB_Options & USB_OPT_MANUAL_PLL))
		{
			USB_PLL_On();
			while (!(USB_PLL_IsReady()));
    44f4:	09 b4       	in	r0, 0x29	; 41
    44f6:	00 fe       	sbrs	r0, 0
    44f8:	fd cf       	rjmp	.-6      	; 0x44f4 <__vector_11+0x8c>
			}

			static inline void USB_CLK_Unfreeze(void) ATTR_ALWAYS_INLINE;
			static inline void USB_CLK_Unfreeze(void)
			{
				USBCON &= ~(1 << FRZCLK);
    44fa:	80 91 d8 00 	lds	r24, 0x00D8	; 0x8000d8 <__DATA_REGION_ORIGIN__+0x78>
    44fe:	8f 7d       	andi	r24, 0xDF	; 223
    4500:	80 93 d8 00 	sts	0x00D8, r24	; 0x8000d8 <__DATA_REGION_ORIGIN__+0x78>
						USBINT &= ~(1 << IDTI);
						break;
					#endif
					#if defined(USB_CAN_BE_DEVICE)
					case USB_INT_WAKEUPI:
						UDINT  &= ~(1 << WAKEUPI);
    4504:	80 91 e1 00 	lds	r24, 0x00E1	; 0x8000e1 <__DATA_REGION_ORIGIN__+0x81>
    4508:	8f 7e       	andi	r24, 0xEF	; 239
    450a:	80 93 e1 00 	sts	0x00E1, r24	; 0x8000e1 <__DATA_REGION_ORIGIN__+0x81>
						USBCON &= ~(1 << IDTE);
						break;
					#endif
					#if defined(USB_CAN_BE_DEVICE)
					case USB_INT_WAKEUPI:
						UDIEN  &= ~(1 << WAKEUPE);
    450e:	80 91 e2 00 	lds	r24, 0x00E2	; 0x8000e2 <__DATA_REGION_ORIGIN__+0x82>
    4512:	8f 7e       	andi	r24, 0xEF	; 239
    4514:	80 93 e2 00 	sts	0x00E2, r24	; 0x8000e2 <__DATA_REGION_ORIGIN__+0x82>
					#if defined(USB_CAN_BE_DEVICE)
					case USB_INT_WAKEUPI:
						UDIEN  |= (1 << WAKEUPE);
						break;
					case USB_INT_SUSPI:
						UDIEN  |= (1 << SUSPE);
    4518:	80 91 e2 00 	lds	r24, 0x00E2	; 0x8000e2 <__DATA_REGION_ORIGIN__+0x82>
    451c:	81 60       	ori	r24, 0x01	; 1
    451e:	80 93 e2 00 	sts	0x00E2, r24	; 0x8000e2 <__DATA_REGION_ORIGIN__+0x82>
		USB_INT_Clear(USB_INT_WAKEUPI);

		USB_INT_Disable(USB_INT_WAKEUPI);
		USB_INT_Enable(USB_INT_SUSPI);

		if (USB_Device_ConfigurationNumber)
    4522:	80 91 88 03 	lds	r24, 0x0388	; 0x800388 <USB_Device_ConfigurationNumber>
    4526:	88 23       	and	r24, r24
    4528:	11 f0       	breq	.+4      	; 0x452e <__vector_11+0xc6>
		  USB_DeviceState = DEVICE_STATE_Configured;
    452a:	84 e0       	ldi	r24, 0x04	; 4
    452c:	07 c0       	rjmp	.+14     	; 0x453c <__vector_11+0xd4>
			}

			static inline bool USB_Device_IsAddressSet(void) ATTR_ALWAYS_INLINE ATTR_WARN_UNUSED_RESULT;
			static inline bool USB_Device_IsAddressSet(void)
			{
				return (UDADDR & (1 << ADDEN));
    452e:	80 91 e3 00 	lds	r24, 0x00E3	; 0x8000e3 <__DATA_REGION_ORIGIN__+0x83>
		else
		  USB_DeviceState = (USB_Device_IsAddressSet()) ? DEVICE_STATE_Addressed : DEVICE_STATE_Powered;
    4532:	87 fd       	sbrc	r24, 7
    4534:	02 c0       	rjmp	.+4      	; 0x453a <__vector_11+0xd2>
    4536:	81 e0       	ldi	r24, 0x01	; 1
    4538:	01 c0       	rjmp	.+2      	; 0x453c <__vector_11+0xd4>
    453a:	83 e0       	ldi	r24, 0x03	; 3
    453c:	80 93 8c 03 	sts	0x038C, r24	; 0x80038c <USB_DeviceState>

		#if defined(USB_SERIES_2_AVR) && !defined(NO_LIMITED_CONTROLLER_CONNECT)
		EVENT_USB_Device_Connect();
    4540:	e6 d2       	rcall	.+1484   	; 0x4b0e <EVENT_USB_Device_Connect>
					case USB_INT_WAKEUPI:
						return (UDINT  & (1 << WAKEUPI));
					case USB_INT_SUSPI:
						return (UDINT  & (1 << SUSPI));
					case USB_INT_EORSTI:
						return (UDINT  & (1 << EORSTI));
    4542:	80 91 e1 00 	lds	r24, 0x00E1	; 0x8000e1 <__DATA_REGION_ORIGIN__+0x81>
		#else
		EVENT_USB_Device_WakeUp();
		#endif
	}

	if (USB_INT_HasOccurred(USB_INT_EORSTI) && USB_INT_IsEnabled(USB_INT_EORSTI))
    4546:	83 ff       	sbrs	r24, 3
    4548:	27 c0       	rjmp	.+78     	; 0x4598 <__vector_11+0x130>
					case USB_INT_WAKEUPI:
						return (UDIEN  & (1 << WAKEUPE));
					case USB_INT_SUSPI:
						return (UDIEN  & (1 << SUSPE));
					case USB_INT_EORSTI:
						return (UDIEN  & (1 << EORSTE));
    454a:	80 91 e2 00 	lds	r24, 0x00E2	; 0x8000e2 <__DATA_REGION_ORIGIN__+0x82>
    454e:	83 ff       	sbrs	r24, 3
    4550:	23 c0       	rjmp	.+70     	; 0x4598 <__vector_11+0x130>
						break;
					case USB_INT_SUSPI:
						UDINT  &= ~(1 << SUSPI);
						break;
					case USB_INT_EORSTI:
						UDINT  &= ~(1 << EORSTI);
    4552:	80 91 e1 00 	lds	r24, 0x00E1	; 0x8000e1 <__DATA_REGION_ORIGIN__+0x81>
    4556:	87 7f       	andi	r24, 0xF7	; 247
    4558:	80 93 e1 00 	sts	0x00E1, r24	; 0x8000e1 <__DATA_REGION_ORIGIN__+0x81>
	{
		USB_INT_Clear(USB_INT_EORSTI);

		USB_DeviceState                = DEVICE_STATE_Default;
    455c:	82 e0       	ldi	r24, 0x02	; 2
    455e:	80 93 8c 03 	sts	0x038C, r24	; 0x80038c <USB_DeviceState>
		USB_Device_ConfigurationNumber = 0;
    4562:	10 92 88 03 	sts	0x0388, r1	; 0x800388 <USB_Device_ConfigurationNumber>
					#if defined(USB_CAN_BE_DEVICE)
					case USB_INT_WAKEUPI:
						UDINT  &= ~(1 << WAKEUPI);
						break;
					case USB_INT_SUSPI:
						UDINT  &= ~(1 << SUSPI);
    4566:	80 91 e1 00 	lds	r24, 0x00E1	; 0x8000e1 <__DATA_REGION_ORIGIN__+0x81>
    456a:	8e 7f       	andi	r24, 0xFE	; 254
    456c:	80 93 e1 00 	sts	0x00E1, r24	; 0x8000e1 <__DATA_REGION_ORIGIN__+0x81>
					#if defined(USB_CAN_BE_DEVICE)
					case USB_INT_WAKEUPI:
						UDIEN  &= ~(1 << WAKEUPE);
						break;
					case USB_INT_SUSPI:
						UDIEN  &= ~(1 << SUSPE);
    4570:	80 91 e2 00 	lds	r24, 0x00E2	; 0x8000e2 <__DATA_REGION_ORIGIN__+0x82>
    4574:	8e 7f       	andi	r24, 0xFE	; 254
    4576:	80 93 e2 00 	sts	0x00E2, r24	; 0x8000e2 <__DATA_REGION_ORIGIN__+0x82>
						USBCON |= (1 << IDTE);
						break;
					#endif
					#if defined(USB_CAN_BE_DEVICE)
					case USB_INT_WAKEUPI:
						UDIEN  |= (1 << WAKEUPE);
    457a:	80 91 e2 00 	lds	r24, 0x00E2	; 0x8000e2 <__DATA_REGION_ORIGIN__+0x82>
    457e:	80 61       	ori	r24, 0x10	; 16
    4580:	80 93 e2 00 	sts	0x00E2, r24	; 0x8000e2 <__DATA_REGION_ORIGIN__+0x82>
				uint8_t Number = (Address & ENDPOINT_EPNUM_MASK);

				if (Number >= ENDPOINT_TOTAL_ENDPOINTS)
				  return false;

				return Endpoint_ConfigureEndpoint_Prv(Number,
    4584:	42 e0       	ldi	r20, 0x02	; 2
    4586:	60 e0       	ldi	r22, 0x00	; 0
    4588:	80 e0       	ldi	r24, 0x00	; 0
    458a:	62 de       	rcall	.-828    	; 0x4250 <Endpoint_ConfigureEndpoint_Prv>
						break;
					case USB_INT_SOFI:
						UDIEN  |= (1 << SOFE);
						break;
					case USB_INT_RXSTPI:
						UEIENX |= (1 << RXSTPE);
    458c:	80 91 f0 00 	lds	r24, 0x00F0	; 0x8000f0 <__DATA_REGION_ORIGIN__+0x90>
    4590:	88 60       	ori	r24, 0x08	; 8
    4592:	80 93 f0 00 	sts	0x00F0, r24	; 0x8000f0 <__DATA_REGION_ORIGIN__+0x90>

		#if defined(INTERRUPT_CONTROL_ENDPOINT)
		USB_INT_Enable(USB_INT_RXSTPI);
		#endif

		EVENT_USB_Device_Reset();
    4596:	ac d1       	rcall	.+856    	; 0x48f0 <USB_Event_Stub>
		USB_ResetInterface();

		EVENT_USB_UIDChange();
	}
	#endif
}
    4598:	ff 91       	pop	r31
    459a:	ef 91       	pop	r30
    459c:	bf 91       	pop	r27
    459e:	af 91       	pop	r26
    45a0:	9f 91       	pop	r25
    45a2:	8f 91       	pop	r24
    45a4:	7f 91       	pop	r23
    45a6:	6f 91       	pop	r22
    45a8:	5f 91       	pop	r21
    45aa:	4f 91       	pop	r20
    45ac:	3f 91       	pop	r19
    45ae:	2f 91       	pop	r18
    45b0:	0f 90       	pop	r0
    45b2:	0f be       	out	0x3f, r0	; 63
    45b4:	0f 90       	pop	r0
    45b6:	1f 90       	pop	r1
    45b8:	18 95       	reti

000045ba <__vector_12>:

#if defined(INTERRUPT_CONTROL_ENDPOINT) && defined(USB_CAN_BE_DEVICE)
ISR(USB_COM_vect, ISR_BLOCK)
{
    45ba:	1f 92       	push	r1
    45bc:	0f 92       	push	r0
    45be:	0f b6       	in	r0, 0x3f	; 63
    45c0:	0f 92       	push	r0
    45c2:	11 24       	eor	r1, r1
    45c4:	2f 93       	push	r18
    45c6:	3f 93       	push	r19
    45c8:	4f 93       	push	r20
    45ca:	5f 93       	push	r21
    45cc:	6f 93       	push	r22
    45ce:	7f 93       	push	r23
    45d0:	8f 93       	push	r24
    45d2:	9f 93       	push	r25
    45d4:	af 93       	push	r26
    45d6:	bf 93       	push	r27
    45d8:	cf 93       	push	r28
    45da:	df 93       	push	r29
    45dc:	ef 93       	push	r30
    45de:	ff 93       	push	r31
			 */
			static inline uint8_t Endpoint_GetCurrentEndpoint(void) ATTR_WARN_UNUSED_RESULT ATTR_ALWAYS_INLINE;
			static inline uint8_t Endpoint_GetCurrentEndpoint(void)
			{
				#if !defined(CONTROL_ONLY_DEVICE)
					return ((UENUM & ENDPOINT_EPNUM_MASK) | Endpoint_GetEndpointDirection());
    45e0:	c0 91 e9 00 	lds	r28, 0x00E9	; 0x8000e9 <__DATA_REGION_ORIGIN__+0x89>
    45e4:	cf 70       	andi	r28, 0x0F	; 15
			 *  \return The currently selected endpoint's direction, as a \c ENDPOINT_DIR_* mask.
			 */
			static inline uint8_t Endpoint_GetEndpointDirection(void) ATTR_WARN_UNUSED_RESULT ATTR_ALWAYS_INLINE;
			static inline uint8_t Endpoint_GetEndpointDirection(void)
			{
				return (UECFG0X & (1 << EPDIR)) ? ENDPOINT_DIR_IN : ENDPOINT_DIR_OUT;
    45e6:	80 91 ec 00 	lds	r24, 0x00EC	; 0x8000ec <__DATA_REGION_ORIGIN__+0x8c>
    45ea:	d8 2f       	mov	r29, r24
    45ec:	d1 70       	andi	r29, 0x01	; 1
    45ee:	80 fd       	sbrc	r24, 0
    45f0:	d0 e8       	ldi	r29, 0x80	; 128
			 */
			static inline void Endpoint_SelectEndpoint(const uint8_t Address) ATTR_ALWAYS_INLINE;
			static inline void Endpoint_SelectEndpoint(const uint8_t Address)
			{
				#if !defined(CONTROL_ONLY_DEVICE)
					UENUM = (Address & ENDPOINT_EPNUM_MASK);
    45f2:	10 92 e9 00 	sts	0x00E9, r1	; 0x8000e9 <__DATA_REGION_ORIGIN__+0x89>
						break;
					case USB_INT_SOFI:
						UDIEN  &= ~(1 << SOFE);
						break;
					case USB_INT_RXSTPI:
						UEIENX &= ~(1 << RXSTPE);
    45f6:	80 91 f0 00 	lds	r24, 0x00F0	; 0x8000f0 <__DATA_REGION_ORIGIN__+0x90>
    45fa:	87 7f       	andi	r24, 0xF7	; 247
    45fc:	80 93 f0 00 	sts	0x00F0, r24	; 0x8000f0 <__DATA_REGION_ORIGIN__+0x90>
			static inline void GlobalInterruptEnable(void)
			{
				GCC_MEMORY_BARRIER();

				#if (ARCH == ARCH_AVR8)
				sei();
    4600:	78 94       	sei
	Endpoint_SelectEndpoint(ENDPOINT_CONTROLEP);
	USB_INT_Disable(USB_INT_RXSTPI);

	GlobalInterruptEnable();

	USB_Device_ProcessControlRequest();
    4602:	1e d0       	rcall	.+60     	; 0x4640 <USB_Device_ProcessControlRequest>
    4604:	10 92 e9 00 	sts	0x00E9, r1	; 0x8000e9 <__DATA_REGION_ORIGIN__+0x89>
						break;
					case USB_INT_SOFI:
						UDIEN  |= (1 << SOFE);
						break;
					case USB_INT_RXSTPI:
						UEIENX |= (1 << RXSTPE);
    4608:	80 91 f0 00 	lds	r24, 0x00F0	; 0x8000f0 <__DATA_REGION_ORIGIN__+0x90>
    460c:	88 60       	ori	r24, 0x08	; 8
    460e:	80 93 f0 00 	sts	0x00F0, r24	; 0x8000f0 <__DATA_REGION_ORIGIN__+0x90>
    4612:	cd 2b       	or	r28, r29
    4614:	cf 70       	andi	r28, 0x0F	; 15
    4616:	c0 93 e9 00 	sts	0x00E9, r28	; 0x8000e9 <__DATA_REGION_ORIGIN__+0x89>

	Endpoint_SelectEndpoint(ENDPOINT_CONTROLEP);
	USB_INT_Enable(USB_INT_RXSTPI);
	Endpoint_SelectEndpoint(PrevSelectedEndpoint);
}
    461a:	ff 91       	pop	r31
    461c:	ef 91       	pop	r30
    461e:	df 91       	pop	r29
    4620:	cf 91       	pop	r28
    4622:	bf 91       	pop	r27
    4624:	af 91       	pop	r26
    4626:	9f 91       	pop	r25
    4628:	8f 91       	pop	r24
    462a:	7f 91       	pop	r23
    462c:	6f 91       	pop	r22
    462e:	5f 91       	pop	r21
    4630:	4f 91       	pop	r20
    4632:	3f 91       	pop	r19
    4634:	2f 91       	pop	r18
    4636:	0f 90       	pop	r0
    4638:	0f be       	out	0x3f, r0	; 63
    463a:	0f 90       	pop	r0
    463c:	1f 90       	pop	r1
    463e:	18 95       	reti

00004640 <USB_Device_ProcessControlRequest>:
#if !defined(NO_DEVICE_REMOTE_WAKEUP)
bool    USB_Device_RemoteWakeupEnabled;
#endif

void USB_Device_ProcessControlRequest(void)
{
    4640:	1f 93       	push	r17
    4642:	cf 93       	push	r28
    4644:	df 93       	push	r29
    4646:	cd b7       	in	r28, 0x3d	; 61
    4648:	de b7       	in	r29, 0x3e	; 62
    464a:	aa 97       	sbiw	r28, 0x2a	; 42
    464c:	0f b6       	in	r0, 0x3f	; 63
    464e:	f8 94       	cli
    4650:	de bf       	out	0x3e, r29	; 62
    4652:	0f be       	out	0x3f, r0	; 63
    4654:	cd bf       	out	0x3d, r28	; 61
    4656:	ed e8       	ldi	r30, 0x8D	; 141
    4658:	f3 e0       	ldi	r31, 0x03	; 3
			 *  \return Next byte in the currently selected endpoint's FIFO buffer.
			 */
			static inline uint8_t Endpoint_Read_8(void) ATTR_WARN_UNUSED_RESULT ATTR_ALWAYS_INLINE;
			static inline uint8_t Endpoint_Read_8(void)
			{
				return UEDATX;
    465a:	80 91 f1 00 	lds	r24, 0x00F1	; 0x8000f1 <__DATA_REGION_ORIGIN__+0x91>
	USB_ControlRequest.wLength       = Endpoint_Read_16_LE();
	#else
	uint8_t* RequestHeader = (uint8_t*)&USB_ControlRequest;

	for (uint8_t RequestHeaderByte = 0; RequestHeaderByte < sizeof(USB_Request_Header_t); RequestHeaderByte++)
	  *(RequestHeader++) = Endpoint_Read_8();
    465e:	81 93       	st	Z+, r24
	USB_ControlRequest.wIndex        = Endpoint_Read_16_LE();
	USB_ControlRequest.wLength       = Endpoint_Read_16_LE();
	#else
	uint8_t* RequestHeader = (uint8_t*)&USB_ControlRequest;

	for (uint8_t RequestHeaderByte = 0; RequestHeaderByte < sizeof(USB_Request_Header_t); RequestHeaderByte++)
    4660:	23 e0       	ldi	r18, 0x03	; 3
    4662:	e5 39       	cpi	r30, 0x95	; 149
    4664:	f2 07       	cpc	r31, r18
    4666:	c9 f7       	brne	.-14     	; 0x465a <USB_Device_ProcessControlRequest+0x1a>
	  *(RequestHeader++) = Endpoint_Read_8();
	#endif

	EVENT_USB_Device_ControlRequest();
    4668:	59 d2       	rcall	.+1202   	; 0x4b1c <EVENT_USB_Device_ControlRequest>
			 *  \return Boolean \c true if the selected endpoint has received a SETUP packet, \c false otherwise.
			 */
			static inline bool Endpoint_IsSETUPReceived(void) ATTR_WARN_UNUSED_RESULT ATTR_ALWAYS_INLINE;
			static inline bool Endpoint_IsSETUPReceived(void)
			{
				return ((UEINTX & (1 << RXSTPI)) ? true : false);
    466a:	80 91 e8 00 	lds	r24, 0x00E8	; 0x8000e8 <__DATA_REGION_ORIGIN__+0x88>

	if (Endpoint_IsSETUPReceived())
    466e:	83 ff       	sbrs	r24, 3
    4670:	27 c1       	rjmp	.+590    	; 0x48c0 <USB_Device_ProcessControlRequest+0x280>
	{
		uint8_t bmRequestType = USB_ControlRequest.bmRequestType;
    4672:	80 91 8d 03 	lds	r24, 0x038D	; 0x80038d <USB_ControlRequest>

		switch (USB_ControlRequest.bRequest)
    4676:	90 91 8e 03 	lds	r25, 0x038E	; 0x80038e <USB_ControlRequest+0x1>
    467a:	95 30       	cpi	r25, 0x05	; 5
    467c:	09 f4       	brne	.+2      	; 0x4680 <USB_Device_ProcessControlRequest+0x40>
    467e:	78 c0       	rjmp	.+240    	; 0x4770 <USB_Device_ProcessControlRequest+0x130>
    4680:	30 f4       	brcc	.+12     	; 0x468e <USB_Device_ProcessControlRequest+0x4e>
    4682:	91 30       	cpi	r25, 0x01	; 1
    4684:	81 f1       	breq	.+96     	; 0x46e6 <USB_Device_ProcessControlRequest+0xa6>
    4686:	68 f0       	brcs	.+26     	; 0x46a2 <USB_Device_ProcessControlRequest+0x62>
    4688:	93 30       	cpi	r25, 0x03	; 3
    468a:	69 f1       	breq	.+90     	; 0x46e6 <USB_Device_ProcessControlRequest+0xa6>
    468c:	19 c1       	rjmp	.+562    	; 0x48c0 <USB_Device_ProcessControlRequest+0x280>
    468e:	98 30       	cpi	r25, 0x08	; 8
    4690:	09 f4       	brne	.+2      	; 0x4694 <USB_Device_ProcessControlRequest+0x54>
    4692:	e3 c0       	rjmp	.+454    	; 0x485a <USB_Device_ProcessControlRequest+0x21a>
    4694:	99 30       	cpi	r25, 0x09	; 9
    4696:	09 f4       	brne	.+2      	; 0x469a <USB_Device_ProcessControlRequest+0x5a>
    4698:	f2 c0       	rjmp	.+484    	; 0x487e <USB_Device_ProcessControlRequest+0x23e>
    469a:	96 30       	cpi	r25, 0x06	; 6
    469c:	09 f0       	breq	.+2      	; 0x46a0 <USB_Device_ProcessControlRequest+0x60>
    469e:	10 c1       	rjmp	.+544    	; 0x48c0 <USB_Device_ProcessControlRequest+0x280>
    46a0:	89 c0       	rjmp	.+274    	; 0x47b4 <USB_Device_ProcessControlRequest+0x174>
		{
			case REQ_GetStatus:
				if ((bmRequestType == (REQDIR_DEVICETOHOST | REQTYPE_STANDARD | REQREC_DEVICE)) ||
    46a2:	80 38       	cpi	r24, 0x80	; 128
    46a4:	81 f0       	breq	.+32     	; 0x46c6 <USB_Device_ProcessControlRequest+0x86>
    46a6:	82 38       	cpi	r24, 0x82	; 130
    46a8:	09 f0       	breq	.+2      	; 0x46ac <USB_Device_ProcessControlRequest+0x6c>
    46aa:	0a c1       	rjmp	.+532    	; 0x48c0 <USB_Device_ProcessControlRequest+0x280>
			 */
			static inline void Endpoint_SelectEndpoint(const uint8_t Address) ATTR_ALWAYS_INLINE;
			static inline void Endpoint_SelectEndpoint(const uint8_t Address)
			{
				#if !defined(CONTROL_ONLY_DEVICE)
					UENUM = (Address & ENDPOINT_EPNUM_MASK);
    46ac:	80 91 91 03 	lds	r24, 0x0391	; 0x800391 <USB_ControlRequest+0x4>
    46b0:	8f 70       	andi	r24, 0x0F	; 15
    46b2:	80 93 e9 00 	sts	0x00E9, r24	; 0x8000e9 <__DATA_REGION_ORIGIN__+0x89>
			 *  \return Boolean \c true if the currently selected endpoint is stalled, \c false otherwise.
			 */
			static inline bool Endpoint_IsStalled(void) ATTR_WARN_UNUSED_RESULT ATTR_ALWAYS_INLINE;
			static inline bool Endpoint_IsStalled(void)
			{
				return ((UECONX & (1 << STALLRQ)) ? true : false);
    46b6:	80 91 eb 00 	lds	r24, 0x00EB	; 0x8000eb <__DATA_REGION_ORIGIN__+0x8b>
			break;
		case (REQDIR_DEVICETOHOST | REQTYPE_STANDARD | REQREC_ENDPOINT):
			#if !defined(CONTROL_ONLY_DEVICE)
			Endpoint_SelectEndpoint((uint8_t)USB_ControlRequest.wIndex & ENDPOINT_EPNUM_MASK);

			CurrentStatus = Endpoint_IsStalled();
    46ba:	85 fb       	bst	r24, 5
    46bc:	88 27       	eor	r24, r24
    46be:	80 f9       	bld	r24, 0
			 */
			static inline void Endpoint_SelectEndpoint(const uint8_t Address) ATTR_ALWAYS_INLINE;
			static inline void Endpoint_SelectEndpoint(const uint8_t Address)
			{
				#if !defined(CONTROL_ONLY_DEVICE)
					UENUM = (Address & ENDPOINT_EPNUM_MASK);
    46c0:	10 92 e9 00 	sts	0x00E9, r1	; 0x8000e9 <__DATA_REGION_ORIGIN__+0x89>
    46c4:	06 c0       	rjmp	.+12     	; 0x46d2 <USB_Device_ProcessControlRequest+0x92>
	Endpoint_ClearOUT();
}

static void USB_Device_GetStatus(void)
{
	uint8_t CurrentStatus = 0;
    46c6:	80 91 89 03 	lds	r24, 0x0389	; 0x800389 <USB_Device_CurrentlySelfPowered>
			if (USB_Device_CurrentlySelfPowered)
			  CurrentStatus |= FEATURE_SELFPOWERED_ENABLED;
			#endif

			#if !defined(NO_DEVICE_REMOTE_WAKEUP)
			if (USB_Device_RemoteWakeupEnabled)
    46ca:	90 91 8a 03 	lds	r25, 0x038A	; 0x80038a <USB_Device_RemoteWakeupEnabled>
    46ce:	91 11       	cpse	r25, r1
			  CurrentStatus |= FEATURE_REMOTE_WAKEUP_ENABLED;
    46d0:	82 60       	ori	r24, 0x02	; 2
			 *  \note This is not applicable for non CONTROL type endpoints.
			 */
			static inline void Endpoint_ClearSETUP(void) ATTR_ALWAYS_INLINE;
			static inline void Endpoint_ClearSETUP(void)
			{
				UEINTX &= ~(1 << RXSTPI);
    46d2:	90 91 e8 00 	lds	r25, 0x00E8	; 0x8000e8 <__DATA_REGION_ORIGIN__+0x88>
    46d6:	97 7f       	andi	r25, 0xF7	; 247
    46d8:	90 93 e8 00 	sts	0x00E8, r25	; 0x8000e8 <__DATA_REGION_ORIGIN__+0x88>
			 *  \param[in] Data  Data to write to the currently selected endpoint's FIFO buffer.
			 */
			static inline void Endpoint_Write_16_LE(const uint16_t Data) ATTR_ALWAYS_INLINE;
			static inline void Endpoint_Write_16_LE(const uint16_t Data)
			{
				UEDATX = (Data & 0xFF);
    46dc:	80 93 f1 00 	sts	0x00F1, r24	; 0x8000f1 <__DATA_REGION_ORIGIN__+0x91>
				UEDATX = (Data >> 8);
    46e0:	10 92 f1 00 	sts	0x00F1, r1	; 0x8000f1 <__DATA_REGION_ORIGIN__+0x91>
    46e4:	c5 c0       	rjmp	.+394    	; 0x4870 <USB_Device_ProcessControlRequest+0x230>
				}

				break;
			case REQ_ClearFeature:
			case REQ_SetFeature:
				if ((bmRequestType == (REQDIR_HOSTTODEVICE | REQTYPE_STANDARD | REQREC_DEVICE)) ||
    46e6:	28 2f       	mov	r18, r24
    46e8:	2d 7f       	andi	r18, 0xFD	; 253
    46ea:	09 f0       	breq	.+2      	; 0x46ee <USB_Device_ProcessControlRequest+0xae>
    46ec:	e9 c0       	rjmp	.+466    	; 0x48c0 <USB_Device_ProcessControlRequest+0x280>
	Endpoint_ClearStatusStage();
}

static void USB_Device_ClearSetFeature(void)
{
	switch (USB_ControlRequest.bmRequestType & CONTROL_REQTYPE_RECIPIENT)
    46ee:	88 23       	and	r24, r24
    46f0:	19 f0       	breq	.+6      	; 0x46f8 <USB_Device_ProcessControlRequest+0xb8>
    46f2:	82 30       	cpi	r24, 0x02	; 2
    46f4:	61 f0       	breq	.+24     	; 0x470e <USB_Device_ProcessControlRequest+0xce>
    46f6:	e4 c0       	rjmp	.+456    	; 0x48c0 <USB_Device_ProcessControlRequest+0x280>
	{
		#if !defined(NO_DEVICE_REMOTE_WAKEUP)
		case REQREC_DEVICE:
			if ((uint8_t)USB_ControlRequest.wValue == FEATURE_SEL_DeviceRemoteWakeup)
    46f8:	80 91 8f 03 	lds	r24, 0x038F	; 0x80038f <USB_ControlRequest+0x2>
    46fc:	81 30       	cpi	r24, 0x01	; 1
    46fe:	09 f0       	breq	.+2      	; 0x4702 <USB_Device_ProcessControlRequest+0xc2>
    4700:	df c0       	rjmp	.+446    	; 0x48c0 <USB_Device_ProcessControlRequest+0x280>
			  USB_Device_RemoteWakeupEnabled = (USB_ControlRequest.bRequest == REQ_SetFeature);
    4702:	93 30       	cpi	r25, 0x03	; 3
    4704:	09 f0       	breq	.+2      	; 0x4708 <USB_Device_ProcessControlRequest+0xc8>
    4706:	80 e0       	ldi	r24, 0x00	; 0
    4708:	80 93 8a 03 	sts	0x038A, r24	; 0x80038a <USB_Device_RemoteWakeupEnabled>
    470c:	2b c0       	rjmp	.+86     	; 0x4764 <USB_Device_ProcessControlRequest+0x124>

			break;
		#endif
		#if !defined(CONTROL_ONLY_DEVICE)
		case REQREC_ENDPOINT:
			if ((uint8_t)USB_ControlRequest.wValue == FEATURE_SEL_EndpointHalt)
    470e:	80 91 8f 03 	lds	r24, 0x038F	; 0x80038f <USB_ControlRequest+0x2>
    4712:	81 11       	cpse	r24, r1
    4714:	27 c0       	rjmp	.+78     	; 0x4764 <USB_Device_ProcessControlRequest+0x124>
			{
				uint8_t EndpointIndex = ((uint8_t)USB_ControlRequest.wIndex & ENDPOINT_EPNUM_MASK);
    4716:	80 91 91 03 	lds	r24, 0x0391	; 0x800391 <USB_ControlRequest+0x4>
    471a:	8f 70       	andi	r24, 0x0F	; 15

				if (EndpointIndex == ENDPOINT_CONTROLEP)
    471c:	09 f4       	brne	.+2      	; 0x4720 <USB_Device_ProcessControlRequest+0xe0>
    471e:	d0 c0       	rjmp	.+416    	; 0x48c0 <USB_Device_ProcessControlRequest+0x280>
			 */
			static inline void Endpoint_SelectEndpoint(const uint8_t Address) ATTR_ALWAYS_INLINE;
			static inline void Endpoint_SelectEndpoint(const uint8_t Address)
			{
				#if !defined(CONTROL_ONLY_DEVICE)
					UENUM = (Address & ENDPOINT_EPNUM_MASK);
    4720:	80 93 e9 00 	sts	0x00E9, r24	; 0x8000e9 <__DATA_REGION_ORIGIN__+0x89>
			 * \return Boolean \c true if the currently selected endpoint is enabled, \c false otherwise.
			 */
			static inline bool Endpoint_IsEnabled(void) ATTR_WARN_UNUSED_RESULT ATTR_ALWAYS_INLINE;
			static inline bool Endpoint_IsEnabled(void)
			{
				return ((UECONX & (1 << EPEN)) ? true : false);
    4724:	20 91 eb 00 	lds	r18, 0x00EB	; 0x8000eb <__DATA_REGION_ORIGIN__+0x8b>
				  return;

				Endpoint_SelectEndpoint(EndpointIndex);

				if (Endpoint_IsEnabled())
    4728:	20 ff       	sbrs	r18, 0
    472a:	1c c0       	rjmp	.+56     	; 0x4764 <USB_Device_ProcessControlRequest+0x124>
				{
					if (USB_ControlRequest.bRequest == REQ_SetFeature)
    472c:	93 30       	cpi	r25, 0x03	; 3
    472e:	21 f4       	brne	.+8      	; 0x4738 <USB_Device_ProcessControlRequest+0xf8>
			 *  \ingroup Group_EndpointPacketManagement_AVR8
			 */
			static inline void Endpoint_StallTransaction(void) ATTR_ALWAYS_INLINE;
			static inline void Endpoint_StallTransaction(void)
			{
				UECONX |= (1 << STALLRQ);
    4730:	80 91 eb 00 	lds	r24, 0x00EB	; 0x8000eb <__DATA_REGION_ORIGIN__+0x8b>
    4734:	80 62       	ori	r24, 0x20	; 32
    4736:	14 c0       	rjmp	.+40     	; 0x4760 <USB_Device_ProcessControlRequest+0x120>
			 *  \ingroup Group_EndpointPacketManagement_AVR8
			 */
			static inline void Endpoint_ClearStall(void) ATTR_ALWAYS_INLINE;
			static inline void Endpoint_ClearStall(void)
			{
				UECONX |= (1 << STALLRQC);
    4738:	90 91 eb 00 	lds	r25, 0x00EB	; 0x8000eb <__DATA_REGION_ORIGIN__+0x8b>
    473c:	90 61       	ori	r25, 0x10	; 16
    473e:	90 93 eb 00 	sts	0x00EB, r25	; 0x8000eb <__DATA_REGION_ORIGIN__+0x8b>
			 *  \param[in] Address  Endpoint address whose FIFO buffers are to be reset.
			 */
			static inline void Endpoint_ResetEndpoint(const uint8_t Address) ATTR_ALWAYS_INLINE;
			static inline void Endpoint_ResetEndpoint(const uint8_t Address)
			{
				UERST = (1 << (Address & ENDPOINT_EPNUM_MASK));
    4742:	21 e0       	ldi	r18, 0x01	; 1
    4744:	30 e0       	ldi	r19, 0x00	; 0
    4746:	a9 01       	movw	r20, r18
    4748:	02 c0       	rjmp	.+4      	; 0x474e <USB_Device_ProcessControlRequest+0x10e>
    474a:	44 0f       	add	r20, r20
    474c:	55 1f       	adc	r21, r21
    474e:	8a 95       	dec	r24
    4750:	e2 f7       	brpl	.-8      	; 0x474a <USB_Device_ProcessControlRequest+0x10a>
    4752:	40 93 ea 00 	sts	0x00EA, r20	; 0x8000ea <__DATA_REGION_ORIGIN__+0x8a>
				UERST = 0;
    4756:	10 92 ea 00 	sts	0x00EA, r1	; 0x8000ea <__DATA_REGION_ORIGIN__+0x8a>

			/** Resets the data toggle of the currently selected endpoint. */
			static inline void Endpoint_ResetDataToggle(void) ATTR_ALWAYS_INLINE;
			static inline void Endpoint_ResetDataToggle(void)
			{
				UECONX |= (1 << RSTDT);
    475a:	80 91 eb 00 	lds	r24, 0x00EB	; 0x8000eb <__DATA_REGION_ORIGIN__+0x8b>
    475e:	88 60       	ori	r24, 0x08	; 8
    4760:	80 93 eb 00 	sts	0x00EB, r24	; 0x8000eb <__DATA_REGION_ORIGIN__+0x8b>
			 */
			static inline void Endpoint_SelectEndpoint(const uint8_t Address) ATTR_ALWAYS_INLINE;
			static inline void Endpoint_SelectEndpoint(const uint8_t Address)
			{
				#if !defined(CONTROL_ONLY_DEVICE)
					UENUM = (Address & ENDPOINT_EPNUM_MASK);
    4764:	10 92 e9 00 	sts	0x00E9, r1	; 0x8000e9 <__DATA_REGION_ORIGIN__+0x89>
			 *  \note This is not applicable for non CONTROL type endpoints.
			 */
			static inline void Endpoint_ClearSETUP(void) ATTR_ALWAYS_INLINE;
			static inline void Endpoint_ClearSETUP(void)
			{
				UEINTX &= ~(1 << RXSTPI);
    4768:	80 91 e8 00 	lds	r24, 0x00E8	; 0x8000e8 <__DATA_REGION_ORIGIN__+0x88>
    476c:	87 7f       	andi	r24, 0xF7	; 247
    476e:	83 c0       	rjmp	.+262    	; 0x4876 <USB_Device_ProcessControlRequest+0x236>
					USB_Device_ClearSetFeature();
				}

				break;
			case REQ_SetAddress:
				if (bmRequestType == (REQDIR_HOSTTODEVICE | REQTYPE_STANDARD | REQREC_DEVICE))
    4770:	81 11       	cpse	r24, r1
    4772:	a6 c0       	rjmp	.+332    	; 0x48c0 <USB_Device_ProcessControlRequest+0x280>
	}
}

static void USB_Device_SetAddress(void)
{
	uint8_t DeviceAddress = (USB_ControlRequest.wValue & 0x7F);
    4774:	10 91 8f 03 	lds	r17, 0x038F	; 0x80038f <USB_ControlRequest+0x2>
    4778:	1f 77       	andi	r17, 0x7F	; 127
			#endif

			static inline void USB_Device_SetDeviceAddress(const uint8_t Address) ATTR_ALWAYS_INLINE;
			static inline void USB_Device_SetDeviceAddress(const uint8_t Address)
			{
				UDADDR = (UDADDR & (1 << ADDEN)) | (Address & 0x7F);
    477a:	80 91 e3 00 	lds	r24, 0x00E3	; 0x8000e3 <__DATA_REGION_ORIGIN__+0x83>
    477e:	80 78       	andi	r24, 0x80	; 128
    4780:	81 2b       	or	r24, r17
    4782:	80 93 e3 00 	sts	0x00E3, r24	; 0x8000e3 <__DATA_REGION_ORIGIN__+0x83>
    4786:	80 91 e8 00 	lds	r24, 0x00E8	; 0x8000e8 <__DATA_REGION_ORIGIN__+0x88>
    478a:	87 7f       	andi	r24, 0xF7	; 247
    478c:	80 93 e8 00 	sts	0x00E8, r24	; 0x8000e8 <__DATA_REGION_ORIGIN__+0x88>

	USB_Device_SetDeviceAddress(DeviceAddress);

	Endpoint_ClearSETUP();

	Endpoint_ClearStatusStage();
    4790:	d1 dd       	rcall	.-1118   	; 0x4334 <Endpoint_ClearStatusStage>
			 *  \return Boolean \c true if the current endpoint is ready for an IN packet, \c false otherwise.
			 */
			static inline bool Endpoint_IsINReady(void) ATTR_WARN_UNUSED_RESULT ATTR_ALWAYS_INLINE;
			static inline bool Endpoint_IsINReady(void)
			{
				return ((UEINTX & (1 << TXINI)) ? true : false);
    4792:	80 91 e8 00 	lds	r24, 0x00E8	; 0x8000e8 <__DATA_REGION_ORIGIN__+0x88>

	while (!(Endpoint_IsINReady()));
    4796:	80 ff       	sbrs	r24, 0
    4798:	fc cf       	rjmp	.-8      	; 0x4792 <USB_Device_ProcessControlRequest+0x152>
			static inline void USB_Device_EnableDeviceAddress(const uint8_t Address) ATTR_ALWAYS_INLINE;
			static inline void USB_Device_EnableDeviceAddress(const uint8_t Address)
			{
				(void)Address;

				UDADDR |= (1 << ADDEN);
    479a:	80 91 e3 00 	lds	r24, 0x00E3	; 0x8000e3 <__DATA_REGION_ORIGIN__+0x83>
    479e:	80 68       	ori	r24, 0x80	; 128
    47a0:	80 93 e3 00 	sts	0x00E3, r24	; 0x8000e3 <__DATA_REGION_ORIGIN__+0x83>

	USB_Device_EnableDeviceAddress(DeviceAddress);

	USB_DeviceState = (DeviceAddress) ? DEVICE_STATE_Addressed : DEVICE_STATE_Default;
    47a4:	11 11       	cpse	r17, r1
    47a6:	02 c0       	rjmp	.+4      	; 0x47ac <USB_Device_ProcessControlRequest+0x16c>
    47a8:	82 e0       	ldi	r24, 0x02	; 2
    47aa:	01 c0       	rjmp	.+2      	; 0x47ae <USB_Device_ProcessControlRequest+0x16e>
    47ac:	83 e0       	ldi	r24, 0x03	; 3
    47ae:	80 93 8c 03 	sts	0x038C, r24	; 0x80038c <USB_DeviceState>
    47b2:	86 c0       	rjmp	.+268    	; 0x48c0 <USB_Device_ProcessControlRequest+0x280>
				if (bmRequestType == (REQDIR_HOSTTODEVICE | REQTYPE_STANDARD | REQREC_DEVICE))
				  USB_Device_SetAddress();

				break;
			case REQ_GetDescriptor:
				if ((bmRequestType == (REQDIR_DEVICETOHOST | REQTYPE_STANDARD | REQREC_DEVICE)) ||
    47b4:	80 58       	subi	r24, 0x80	; 128
    47b6:	82 30       	cpi	r24, 0x02	; 2
    47b8:	08 f0       	brcs	.+2      	; 0x47bc <USB_Device_ProcessControlRequest+0x17c>
    47ba:	82 c0       	rjmp	.+260    	; 0x48c0 <USB_Device_ProcessControlRequest+0x280>
	    !(defined(USE_FLASH_DESCRIPTORS) || defined(USE_EEPROM_DESCRIPTORS) || defined(USE_RAM_DESCRIPTORS))
	uint8_t DescriptorAddressSpace;
	#endif

	#if !defined(NO_INTERNAL_SERIAL) && (USE_INTERNAL_SERIAL != NO_DESCRIPTOR)
	if (USB_ControlRequest.wValue == ((DTYPE_String << 8) | USE_INTERNAL_SERIAL))
    47bc:	80 91 8f 03 	lds	r24, 0x038F	; 0x80038f <USB_ControlRequest+0x2>
    47c0:	90 91 90 03 	lds	r25, 0x0390	; 0x800390 <USB_ControlRequest+0x3>
    47c4:	8c 3d       	cpi	r24, 0xDC	; 220
    47c6:	53 e0       	ldi	r21, 0x03	; 3
    47c8:	95 07       	cpc	r25, r21
    47ca:	71 f5       	brne	.+92     	; 0x4828 <USB_Device_ProcessControlRequest+0x1e8>
	{
		USB_Descriptor_Header_t Header;
		uint16_t                UnicodeString[INTERNAL_SERIAL_LENGTH_BITS / 4];
	} SignatureDescriptor;

	SignatureDescriptor.Header.Type = DTYPE_String;
    47cc:	83 e0       	ldi	r24, 0x03	; 3
    47ce:	8a 83       	std	Y+2, r24	; 0x02
	SignatureDescriptor.Header.Size = USB_STRING_LEN(INTERNAL_SERIAL_LENGTH_BITS / 4);
    47d0:	8a e2       	ldi	r24, 0x2A	; 42
    47d2:	89 83       	std	Y+1, r24	; 0x01
			static inline uint_reg_t GetGlobalInterruptMask(void)
			{
				GCC_MEMORY_BARRIER();

				#if (ARCH == ARCH_AVR8)
				return SREG;
    47d4:	4f b7       	in	r20, 0x3f	; 63
			static inline void GlobalInterruptDisable(void)
			{
				GCC_MEMORY_BARRIER();

				#if (ARCH == ARCH_AVR8)
				cli();
    47d6:	f8 94       	cli
				__builtin_ssrf(AVR32_SR_GM_OFFSET);
				#elif (ARCH == ARCH_XMEGA)
				cli();
				#endif

				GCC_MEMORY_BARRIER();
    47d8:	de 01       	movw	r26, r28
    47da:	13 96       	adiw	r26, 0x03	; 3
				uint_reg_t CurrentGlobalInt = GetGlobalInterruptMask();
				GlobalInterruptDisable();

				uint8_t SigReadAddress = INTERNAL_SERIAL_START_ADDRESS;

				for (uint8_t SerialCharNum = 0; SerialCharNum < (INTERNAL_SERIAL_LENGTH_BITS / 4); SerialCharNum++)
    47dc:	20 e0       	ldi	r18, 0x00	; 0
			static inline void USB_Device_GetSerialString(uint16_t* const UnicodeString)
			{
				uint_reg_t CurrentGlobalInt = GetGlobalInterruptMask();
				GlobalInterruptDisable();

				uint8_t SigReadAddress = INTERNAL_SERIAL_START_ADDRESS;
    47de:	3e e0       	ldi	r19, 0x0E	; 14

				for (uint8_t SerialCharNum = 0; SerialCharNum < (INTERNAL_SERIAL_LENGTH_BITS / 4); SerialCharNum++)
				{
					uint8_t SerialByte = boot_signature_byte_get(SigReadAddress);
    47e0:	51 e2       	ldi	r21, 0x21	; 33
    47e2:	e3 2f       	mov	r30, r19
    47e4:	f0 e0       	ldi	r31, 0x00	; 0
    47e6:	50 93 57 00 	sts	0x0057, r21	; 0x800057 <__EEPROM_REGION_LENGTH__+0x7f0057>
    47ea:	e4 91       	lpm	r30, Z

					if (SerialCharNum & 0x01)
    47ec:	20 ff       	sbrs	r18, 0
    47ee:	03 c0       	rjmp	.+6      	; 0x47f6 <USB_Device_ProcessControlRequest+0x1b6>
					{
						SerialByte >>= 4;
    47f0:	e2 95       	swap	r30
    47f2:	ef 70       	andi	r30, 0x0F	; 15
						SigReadAddress++;
    47f4:	3f 5f       	subi	r19, 0xFF	; 255
					}

					SerialByte &= 0x0F;
    47f6:	ef 70       	andi	r30, 0x0F	; 15
    47f8:	8e 2f       	mov	r24, r30
    47fa:	90 e0       	ldi	r25, 0x00	; 0

					UnicodeString[SerialCharNum] = cpu_to_le16((SerialByte >= 10) ?
    47fc:	ea 30       	cpi	r30, 0x0A	; 10
    47fe:	10 f0       	brcs	.+4      	; 0x4804 <USB_Device_ProcessControlRequest+0x1c4>
    4800:	c7 96       	adiw	r24, 0x37	; 55
    4802:	01 c0       	rjmp	.+2      	; 0x4806 <USB_Device_ProcessControlRequest+0x1c6>
    4804:	c0 96       	adiw	r24, 0x30	; 48
    4806:	8d 93       	st	X+, r24
    4808:	9d 93       	st	X+, r25
				uint_reg_t CurrentGlobalInt = GetGlobalInterruptMask();
				GlobalInterruptDisable();

				uint8_t SigReadAddress = INTERNAL_SERIAL_START_ADDRESS;

				for (uint8_t SerialCharNum = 0; SerialCharNum < (INTERNAL_SERIAL_LENGTH_BITS / 4); SerialCharNum++)
    480a:	2f 5f       	subi	r18, 0xFF	; 255
    480c:	24 31       	cpi	r18, 0x14	; 20
    480e:	49 f7       	brne	.-46     	; 0x47e2 <USB_Device_ProcessControlRequest+0x1a2>
			static inline void SetGlobalInterruptMask(const uint_reg_t GlobalIntState)
			{
				GCC_MEMORY_BARRIER();

				#if (ARCH == ARCH_AVR8)
				SREG = GlobalIntState;
    4810:	4f bf       	out	0x3f, r20	; 63
			 *  \note This is not applicable for non CONTROL type endpoints.
			 */
			static inline void Endpoint_ClearSETUP(void) ATTR_ALWAYS_INLINE;
			static inline void Endpoint_ClearSETUP(void)
			{
				UEINTX &= ~(1 << RXSTPI);
    4812:	80 91 e8 00 	lds	r24, 0x00E8	; 0x8000e8 <__DATA_REGION_ORIGIN__+0x88>
    4816:	87 7f       	andi	r24, 0xF7	; 247
    4818:	80 93 e8 00 	sts	0x00E8, r24	; 0x8000e8 <__DATA_REGION_ORIGIN__+0x88>

	USB_Device_GetSerialString(SignatureDescriptor.UnicodeString);

	Endpoint_ClearSETUP();

	Endpoint_Write_Control_Stream_LE(&SignatureDescriptor, sizeof(SignatureDescriptor));
    481c:	6a e2       	ldi	r22, 0x2A	; 42
    481e:	70 e0       	ldi	r23, 0x00	; 0
    4820:	ce 01       	movw	r24, r28
    4822:	01 96       	adiw	r24, 0x01	; 1
    4824:	5c dc       	rcall	.-1864   	; 0x40de <Endpoint_Write_Control_Stream_LE>
    4826:	13 c0       	rjmp	.+38     	; 0x484e <USB_Device_ProcessControlRequest+0x20e>
		USB_Device_GetInternalSerialDescriptor();
		return;
	}
	#endif

	if ((DescriptorSize = CALLBACK_USB_GetDescriptor(USB_ControlRequest.wValue, USB_ControlRequest.wIndex,
    4828:	ae 01       	movw	r20, r28
    482a:	4f 5f       	subi	r20, 0xFF	; 255
    482c:	5f 4f       	sbci	r21, 0xFF	; 255
    482e:	60 91 91 03 	lds	r22, 0x0391	; 0x800391 <USB_ControlRequest+0x4>
    4832:	0e 94 3e 07 	call	0xe7c	; 0xe7c <CALLBACK_USB_GetDescriptor>
    4836:	bc 01       	movw	r22, r24
    4838:	89 2b       	or	r24, r25
    483a:	09 f4       	brne	.+2      	; 0x483e <USB_Device_ProcessControlRequest+0x1fe>
    483c:	41 c0       	rjmp	.+130    	; 0x48c0 <USB_Device_ProcessControlRequest+0x280>
    483e:	90 91 e8 00 	lds	r25, 0x00E8	; 0x8000e8 <__DATA_REGION_ORIGIN__+0x88>
    4842:	97 7f       	andi	r25, 0xF7	; 247
    4844:	90 93 e8 00 	sts	0x00E8, r25	; 0x8000e8 <__DATA_REGION_ORIGIN__+0x88>
	#if defined(USE_RAM_DESCRIPTORS) || !defined(ARCH_HAS_MULTI_ADDRESS_SPACE)
	Endpoint_Write_Control_Stream_LE(DescriptorPointer, DescriptorSize);
	#elif defined(USE_EEPROM_DESCRIPTORS)
	Endpoint_Write_Control_EStream_LE(DescriptorPointer, DescriptorSize);
	#elif defined(USE_FLASH_DESCRIPTORS)
	Endpoint_Write_Control_PStream_LE(DescriptorPointer, DescriptorSize);
    4848:	89 81       	ldd	r24, Y+1	; 0x01
    484a:	9a 81       	ldd	r25, Y+2	; 0x02
    484c:	a3 dc       	rcall	.-1722   	; 0x4194 <Endpoint_Write_Control_PStream_LE>
			 */
			static inline void Endpoint_ClearOUT(void) ATTR_ALWAYS_INLINE;
			static inline void Endpoint_ClearOUT(void)
			{
				#if !defined(CONTROL_ONLY_DEVICE)
					UEINTX &= ~((1 << RXOUTI) | (1 << FIFOCON));
    484e:	80 91 e8 00 	lds	r24, 0x00E8	; 0x8000e8 <__DATA_REGION_ORIGIN__+0x88>
    4852:	8b 77       	andi	r24, 0x7B	; 123
    4854:	80 93 e8 00 	sts	0x00E8, r24	; 0x8000e8 <__DATA_REGION_ORIGIN__+0x88>
    4858:	33 c0       	rjmp	.+102    	; 0x48c0 <USB_Device_ProcessControlRequest+0x280>
					USB_Device_GetDescriptor();
				}

				break;
			case REQ_GetConfiguration:
				if (bmRequestType == (REQDIR_DEVICETOHOST | REQTYPE_STANDARD | REQREC_DEVICE))
    485a:	80 38       	cpi	r24, 0x80	; 128
    485c:	89 f5       	brne	.+98     	; 0x48c0 <USB_Device_ProcessControlRequest+0x280>
			 *  \note This is not applicable for non CONTROL type endpoints.
			 */
			static inline void Endpoint_ClearSETUP(void) ATTR_ALWAYS_INLINE;
			static inline void Endpoint_ClearSETUP(void)
			{
				UEINTX &= ~(1 << RXSTPI);
    485e:	80 91 e8 00 	lds	r24, 0x00E8	; 0x8000e8 <__DATA_REGION_ORIGIN__+0x88>
    4862:	87 7f       	andi	r24, 0xF7	; 247
    4864:	80 93 e8 00 	sts	0x00E8, r24	; 0x8000e8 <__DATA_REGION_ORIGIN__+0x88>

static void USB_Device_GetConfiguration(void)
{
	Endpoint_ClearSETUP();

	Endpoint_Write_8(USB_Device_ConfigurationNumber);
    4868:	80 91 88 03 	lds	r24, 0x0388	; 0x800388 <USB_Device_ConfigurationNumber>
			 *  \param[in] Data  Data to write into the the currently selected endpoint's FIFO buffer.
			 */
			static inline void Endpoint_Write_8(const uint8_t Data) ATTR_ALWAYS_INLINE;
			static inline void Endpoint_Write_8(const uint8_t Data)
			{
				UEDATX = Data;
    486c:	80 93 f1 00 	sts	0x00F1, r24	; 0x8000f1 <__DATA_REGION_ORIGIN__+0x91>
			 */
			static inline void Endpoint_ClearIN(void) ATTR_ALWAYS_INLINE;
			static inline void Endpoint_ClearIN(void)
			{
				#if !defined(CONTROL_ONLY_DEVICE)
					UEINTX &= ~((1 << TXINI) | (1 << FIFOCON));
    4870:	80 91 e8 00 	lds	r24, 0x00E8	; 0x8000e8 <__DATA_REGION_ORIGIN__+0x88>
    4874:	8e 77       	andi	r24, 0x7E	; 126
    4876:	80 93 e8 00 	sts	0x00E8, r24	; 0x8000e8 <__DATA_REGION_ORIGIN__+0x88>
	Endpoint_ClearIN();

	Endpoint_ClearStatusStage();
    487a:	5c dd       	rcall	.-1352   	; 0x4334 <Endpoint_ClearStatusStage>
    487c:	21 c0       	rjmp	.+66     	; 0x48c0 <USB_Device_ProcessControlRequest+0x280>
				if (bmRequestType == (REQDIR_DEVICETOHOST | REQTYPE_STANDARD | REQREC_DEVICE))
				  USB_Device_GetConfiguration();

				break;
			case REQ_SetConfiguration:
				if (bmRequestType == (REQDIR_HOSTTODEVICE | REQTYPE_STANDARD | REQREC_DEVICE))
    487e:	81 11       	cpse	r24, r1
    4880:	1f c0       	rjmp	.+62     	; 0x48c0 <USB_Device_ProcessControlRequest+0x280>
}

static void USB_Device_SetConfiguration(void)
{
	#if defined(FIXED_NUM_CONFIGURATIONS)
	if ((uint8_t)USB_ControlRequest.wValue > FIXED_NUM_CONFIGURATIONS)
    4882:	80 91 8f 03 	lds	r24, 0x038F	; 0x80038f <USB_ControlRequest+0x2>
    4886:	90 91 90 03 	lds	r25, 0x0390	; 0x800390 <USB_ControlRequest+0x3>
    488a:	99 27       	eor	r25, r25
    488c:	02 97       	sbiw	r24, 0x02	; 2
    488e:	c4 f4       	brge	.+48     	; 0x48c0 <USB_Device_ProcessControlRequest+0x280>
			 *  \note This is not applicable for non CONTROL type endpoints.
			 */
			static inline void Endpoint_ClearSETUP(void) ATTR_ALWAYS_INLINE;
			static inline void Endpoint_ClearSETUP(void)
			{
				UEINTX &= ~(1 << RXSTPI);
    4890:	80 91 e8 00 	lds	r24, 0x00E8	; 0x8000e8 <__DATA_REGION_ORIGIN__+0x88>
    4894:	87 7f       	andi	r24, 0xF7	; 247
    4896:	80 93 e8 00 	sts	0x00E8, r24	; 0x8000e8 <__DATA_REGION_ORIGIN__+0x88>
	#endif
	#endif

	Endpoint_ClearSETUP();

	USB_Device_ConfigurationNumber = (uint8_t)USB_ControlRequest.wValue;
    489a:	80 91 8f 03 	lds	r24, 0x038F	; 0x80038f <USB_ControlRequest+0x2>
    489e:	80 93 88 03 	sts	0x0388, r24	; 0x800388 <USB_Device_ConfigurationNumber>

	Endpoint_ClearStatusStage();
    48a2:	48 dd       	rcall	.-1392   	; 0x4334 <Endpoint_ClearStatusStage>

	if (USB_Device_ConfigurationNumber)
    48a4:	80 91 88 03 	lds	r24, 0x0388	; 0x800388 <USB_Device_ConfigurationNumber>
    48a8:	81 11       	cpse	r24, r1
    48aa:	06 c0       	rjmp	.+12     	; 0x48b8 <USB_Device_ProcessControlRequest+0x278>
			}

			static inline bool USB_Device_IsAddressSet(void) ATTR_ALWAYS_INLINE ATTR_WARN_UNUSED_RESULT;
			static inline bool USB_Device_IsAddressSet(void)
			{
				return (UDADDR & (1 << ADDEN));
    48ac:	80 91 e3 00 	lds	r24, 0x00E3	; 0x8000e3 <__DATA_REGION_ORIGIN__+0x83>
	  USB_DeviceState = DEVICE_STATE_Configured;
	else
	  USB_DeviceState = (USB_Device_IsAddressSet()) ? DEVICE_STATE_Configured : DEVICE_STATE_Powered;
    48b0:	87 fd       	sbrc	r24, 7
    48b2:	02 c0       	rjmp	.+4      	; 0x48b8 <USB_Device_ProcessControlRequest+0x278>
    48b4:	81 e0       	ldi	r24, 0x01	; 1
    48b6:	01 c0       	rjmp	.+2      	; 0x48ba <USB_Device_ProcessControlRequest+0x27a>
    48b8:	84 e0       	ldi	r24, 0x04	; 4
    48ba:	80 93 8c 03 	sts	0x038C, r24	; 0x80038c <USB_DeviceState>

	EVENT_USB_Device_ConfigurationChanged();
    48be:	2b d1       	rcall	.+598    	; 0x4b16 <EVENT_USB_Device_ConfigurationChanged>
			 *  \return Boolean \c true if the selected endpoint has received a SETUP packet, \c false otherwise.
			 */
			static inline bool Endpoint_IsSETUPReceived(void) ATTR_WARN_UNUSED_RESULT ATTR_ALWAYS_INLINE;
			static inline bool Endpoint_IsSETUPReceived(void)
			{
				return ((UEINTX & (1 << RXSTPI)) ? true : false);
    48c0:	80 91 e8 00 	lds	r24, 0x00E8	; 0x8000e8 <__DATA_REGION_ORIGIN__+0x88>
			default:
				break;
		}
	}

	if (Endpoint_IsSETUPReceived())
    48c4:	83 ff       	sbrs	r24, 3
    48c6:	0a c0       	rjmp	.+20     	; 0x48dc <USB_Device_ProcessControlRequest+0x29c>
			 *  \note This is not applicable for non CONTROL type endpoints.
			 */
			static inline void Endpoint_ClearSETUP(void) ATTR_ALWAYS_INLINE;
			static inline void Endpoint_ClearSETUP(void)
			{
				UEINTX &= ~(1 << RXSTPI);
    48c8:	80 91 e8 00 	lds	r24, 0x00E8	; 0x8000e8 <__DATA_REGION_ORIGIN__+0x88>
    48cc:	87 7f       	andi	r24, 0xF7	; 247
    48ce:	80 93 e8 00 	sts	0x00E8, r24	; 0x8000e8 <__DATA_REGION_ORIGIN__+0x88>
			 *  \ingroup Group_EndpointPacketManagement_AVR8
			 */
			static inline void Endpoint_StallTransaction(void) ATTR_ALWAYS_INLINE;
			static inline void Endpoint_StallTransaction(void)
			{
				UECONX |= (1 << STALLRQ);
    48d2:	80 91 eb 00 	lds	r24, 0x00EB	; 0x8000eb <__DATA_REGION_ORIGIN__+0x8b>
    48d6:	80 62       	ori	r24, 0x20	; 32
    48d8:	80 93 eb 00 	sts	0x00EB, r24	; 0x8000eb <__DATA_REGION_ORIGIN__+0x8b>
	{
		Endpoint_ClearSETUP();
		Endpoint_StallTransaction();
	}
}
    48dc:	aa 96       	adiw	r28, 0x2a	; 42
    48de:	0f b6       	in	r0, 0x3f	; 63
    48e0:	f8 94       	cli
    48e2:	de bf       	out	0x3e, r29	; 62
    48e4:	0f be       	out	0x3f, r0	; 63
    48e6:	cd bf       	out	0x3d, r28	; 61
    48e8:	df 91       	pop	r29
    48ea:	cf 91       	pop	r28
    48ec:	1f 91       	pop	r17
    48ee:	08 95       	ret

000048f0 <USB_Event_Stub>:
#define  __INCLUDE_FROM_EVENTS_C
#define  __INCLUDE_FROM_USB_DRIVER
#include "Events.h"

void USB_Event_Stub(void)
{
    48f0:	08 95       	ret

000048f2 <USB_USBTask>:
#if defined(USB_CAN_BE_DEVICE) && !defined(DEVICE_STATE_AS_GPIOR)
volatile uint8_t     USB_DeviceState;
#endif

void USB_USBTask(void)
{
    48f2:	cf 93       	push	r28
}

#if defined(USB_CAN_BE_DEVICE)
static void USB_DeviceTask(void)
{
	if (USB_DeviceState == DEVICE_STATE_Unattached)
    48f4:	80 91 8c 03 	lds	r24, 0x038C	; 0x80038c <USB_DeviceState>
    48f8:	88 23       	and	r24, r24
    48fa:	99 f0       	breq	.+38     	; 0x4922 <USB_USBTask+0x30>
			 */
			static inline uint8_t Endpoint_GetCurrentEndpoint(void) ATTR_WARN_UNUSED_RESULT ATTR_ALWAYS_INLINE;
			static inline uint8_t Endpoint_GetCurrentEndpoint(void)
			{
				#if !defined(CONTROL_ONLY_DEVICE)
					return ((UENUM & ENDPOINT_EPNUM_MASK) | Endpoint_GetEndpointDirection());
    48fc:	c0 91 e9 00 	lds	r28, 0x00E9	; 0x8000e9 <__DATA_REGION_ORIGIN__+0x89>
    4900:	cf 70       	andi	r28, 0x0F	; 15
			 *  \return The currently selected endpoint's direction, as a \c ENDPOINT_DIR_* mask.
			 */
			static inline uint8_t Endpoint_GetEndpointDirection(void) ATTR_WARN_UNUSED_RESULT ATTR_ALWAYS_INLINE;
			static inline uint8_t Endpoint_GetEndpointDirection(void)
			{
				return (UECFG0X & (1 << EPDIR)) ? ENDPOINT_DIR_IN : ENDPOINT_DIR_OUT;
    4902:	90 91 ec 00 	lds	r25, 0x00EC	; 0x8000ec <__DATA_REGION_ORIGIN__+0x8c>
    4906:	89 2f       	mov	r24, r25
    4908:	81 70       	andi	r24, 0x01	; 1
    490a:	90 fd       	sbrc	r25, 0
    490c:	80 e8       	ldi	r24, 0x80	; 128
			 */
			static inline uint8_t Endpoint_GetCurrentEndpoint(void) ATTR_WARN_UNUSED_RESULT ATTR_ALWAYS_INLINE;
			static inline uint8_t Endpoint_GetCurrentEndpoint(void)
			{
				#if !defined(CONTROL_ONLY_DEVICE)
					return ((UENUM & ENDPOINT_EPNUM_MASK) | Endpoint_GetEndpointDirection());
    490e:	c8 2b       	or	r28, r24
			 */
			static inline void Endpoint_SelectEndpoint(const uint8_t Address) ATTR_ALWAYS_INLINE;
			static inline void Endpoint_SelectEndpoint(const uint8_t Address)
			{
				#if !defined(CONTROL_ONLY_DEVICE)
					UENUM = (Address & ENDPOINT_EPNUM_MASK);
    4910:	10 92 e9 00 	sts	0x00E9, r1	; 0x8000e9 <__DATA_REGION_ORIGIN__+0x89>
			 *  \return Boolean \c true if the selected endpoint has received a SETUP packet, \c false otherwise.
			 */
			static inline bool Endpoint_IsSETUPReceived(void) ATTR_WARN_UNUSED_RESULT ATTR_ALWAYS_INLINE;
			static inline bool Endpoint_IsSETUPReceived(void)
			{
				return ((UEINTX & (1 << RXSTPI)) ? true : false);
    4914:	80 91 e8 00 	lds	r24, 0x00E8	; 0x8000e8 <__DATA_REGION_ORIGIN__+0x88>

	uint8_t PrevEndpoint = Endpoint_GetCurrentEndpoint();

	Endpoint_SelectEndpoint(ENDPOINT_CONTROLEP);

	if (Endpoint_IsSETUPReceived())
    4918:	83 fd       	sbrc	r24, 3
	  USB_Device_ProcessControlRequest();
    491a:	92 de       	rcall	.-732    	; 0x4640 <USB_Device_ProcessControlRequest>
			 */
			static inline void Endpoint_SelectEndpoint(const uint8_t Address) ATTR_ALWAYS_INLINE;
			static inline void Endpoint_SelectEndpoint(const uint8_t Address)
			{
				#if !defined(CONTROL_ONLY_DEVICE)
					UENUM = (Address & ENDPOINT_EPNUM_MASK);
    491c:	cf 70       	andi	r28, 0x0F	; 15
    491e:	c0 93 e9 00 	sts	0x00E9, r28	; 0x8000e9 <__DATA_REGION_ORIGIN__+0x89>
	#elif defined(USB_CAN_BE_HOST)
		USB_HostTask();
	#elif defined(USB_CAN_BE_DEVICE)
		USB_DeviceTask();
	#endif
}
    4922:	cf 91       	pop	r28
    4924:	08 95       	ret

00004926 <voMS1000_Tasks>:
	LLS_voTask();
	
	
}

void voMS1000_Tasks(){
    4926:	08 95       	ret

00004928 <voMS10_Tasks>:
	
	
}

void voMS10_Tasks(void){
	voKeyEvent_Task();
    4928:	0c 94 6a 0a 	jmp	0x14d4	; 0x14d4 <voKeyEvent_Task>

0000492c <voMS100_Tasks>:
	
}

void voMS100_Tasks(void){
	WLM_voTask();
    492c:	dc d9       	rcall	.-3144   	; 0x3ce6 <WLM_voTask>
	voTMS_Task();
    492e:	4e d9       	rcall	.-3428   	; 0x3bcc <voTMS_Task>
	voPSE_Task();
    4930:	0f d9       	rcall	.-3554   	; 0x3b50 <voPSE_Task>
    4932:	0e 94 11 0a 	call	0x1422	; 0x1422 <voBTC_Task>
	voBTC_Task();
    4936:	0e 94 31 1c 	call	0x3862	; 0x3862 <voHMon_Task>
	
	voHMon_Task();
    493a:	0c 94 21 0c 	jmp	0x1842	; 0x1842 <voCoffeeFSM_Task>

0000493e <voMS50_Tasks>:
	voCoffeeFSM_Task();
    493e:	0e 94 f9 18 	call	0x31f2	; 0x31f2 <DPS_voTask>
}

void voMS50_Tasks(void){
	/* We will update the Display here and may even handle Blinking ICONs */
	DPS_voTask();
	LLS_voTask();
    4942:	04 c8       	rjmp	.-4088   	; 0x394c <LLS_voTask>

00004944 <voMS1_Task>:
    4944:	08 95       	ret

00004946 <voUSB_Task>:


void voUSB_Task(  )
{
	/* Must throw away unused bytes from the host, or it will lock up while waiting for the device */
	int16_t Data = CDC_Device_ReceiveByte(&VirtualSerial_CDC_Interface);
    4946:	87 e2       	ldi	r24, 0x27	; 39
    4948:	91 e0       	ldi	r25, 0x01	; 1
    494a:	cf da       	rcall	.-2658   	; 0x3eea <CDC_Device_ReceiveByte>
	if(Data >= 0)
    494c:	97 ff       	sbrs	r25, 7
	{
		/* We need to colect the Data for processing here */
		CMDI_boAddCharToBuffer(Data);
    494e:	0e 94 e3 0e 	call	0x1dc6	; 0x1dc6 <CMDI_boAddCharToBuffer>
		/* First we put the Data to the FiFo and execute the Data if we find an Enter */
	}
	CDC_Device_USBTask(&VirtualSerial_CDC_Interface);
    4952:	87 e2       	ldi	r24, 0x27	; 39
    4954:	91 e0       	ldi	r25, 0x01	; 1
	USB_USBTask();
    4956:	b3 da       	rcall	.-2714   	; 0x3ebe <CDC_Device_USBTask>
    4958:	cc cf       	rjmp	.-104    	; 0x48f2 <USB_USBTask>

0000495a <voProcessTimerOBJ>:
}

/* This is currently prone to jitter and drift*/
void voProcessTimerOBJ(volatile TIMEROBJ_t* ptrTimerOBJ ){
    495a:	cf 93       	push	r28
    495c:	df 93       	push	r29
    495e:	ec 01       	movw	r28, r24

uint16_t u16_current_time=u16GetSystemTicksMS();
    4960:	0e 94 7a 09 	call	0x12f4	; 0x12f4 <u16GetSystemTicksMS>
/* Here we execute the Coffemaker parts if requiered */
uint16_t u16Delta = 0;
/* We need to move the Time axis here */


uint16_t u16intervall = ptrTimerOBJ->u16_intervall;
    4964:	2a 81       	ldd	r18, Y+2	; 0x02
    4966:	3b 81       	ldd	r19, Y+3	; 0x03
/* Everything here is run at XXXms Slots */
	if(ptrTimerOBJ->u16_intervall>0){
    4968:	4a 81       	ldd	r20, Y+2	; 0x02
    496a:	5b 81       	ldd	r21, Y+3	; 0x03
    496c:	45 2b       	or	r20, r21
    496e:	e1 f0       	breq	.+56     	; 0x49a8 <voProcessTimerOBJ+0x4e>
		/* Everything here is run at XXXms Slots */
		if(ptrTimerOBJ->u16_lastrun > u16_current_time ){
    4970:	48 81       	ld	r20, Y
    4972:	59 81       	ldd	r21, Y+1	; 0x01
    4974:	84 17       	cp	r24, r20
    4976:	95 07       	cpc	r25, r21
    4978:	30 f4       	brcc	.+12     	; 0x4986 <voProcessTimerOBJ+0x2c>
			/* our time delta is now  ( UINT16_MAX - u16_lastrun ) + u16_current_time */
			u16Delta = ( ( UINT16_MAX - ptrTimerOBJ->u16_lastrun) +u16_current_time  );
    497a:	48 81       	ld	r20, Y
    497c:	59 81       	ldd	r21, Y+1	; 0x01
			if( u16Delta > u16intervall){
    497e:	84 1b       	sub	r24, r20
    4980:	95 0b       	sbc	r25, r21
    4982:	01 97       	sbiw	r24, 0x01	; 1
    4984:	04 c0       	rjmp	.+8      	; 0x498e <voProcessTimerOBJ+0x34>
				/* This will fix the drift */
				ptrTimerOBJ->u16_lastrun = ptrTimerOBJ->u16_lastrun+ptrTimerOBJ->u16_intervall;
			}
		} else {
			/* our delta is u16current_time - u16_lastrun */
			u16Delta = ( u16_current_time -ptrTimerOBJ->u16_lastrun  ) ;
    4986:	48 81       	ld	r20, Y
    4988:	59 81       	ldd	r21, Y+1	; 0x01
			if( u16Delta > u16intervall ){
    498a:	84 1b       	sub	r24, r20
    498c:	95 0b       	sbc	r25, r21
    498e:	28 17       	cp	r18, r24
    4990:	39 07       	cpc	r19, r25
    4992:	50 f4       	brcc	.+20     	; 0x49a8 <voProcessTimerOBJ+0x4e>
				ptrTimerOBJ->RunRequiered=1;
    4994:	81 e0       	ldi	r24, 0x01	; 1
    4996:	8c 83       	std	Y+4, r24	; 0x04
				/* ptrTimerOBJ->u16_lastrun = u16_current_time; */
				/* This will fix the drift */
				ptrTimerOBJ->u16_lastrun = ptrTimerOBJ->u16_lastrun+ptrTimerOBJ->u16_intervall;
    4998:	28 81       	ld	r18, Y
    499a:	39 81       	ldd	r19, Y+1	; 0x01
    499c:	8a 81       	ldd	r24, Y+2	; 0x02
    499e:	9b 81       	ldd	r25, Y+3	; 0x03
    49a0:	82 0f       	add	r24, r18
    49a2:	93 1f       	adc	r25, r19
    49a4:	99 83       	std	Y+1, r25	; 0x01
    49a6:	88 83       	st	Y, r24
			}
		}
	}
}
    49a8:	df 91       	pop	r29
    49aa:	cf 91       	pop	r28
    49ac:	08 95       	ret

000049ae <voScheduler>:
	TIMER(1000, voMS1000_Tasks ),	/* 1000ms Timer */

};


void voScheduler( ) {
    49ae:	0f 93       	push	r16
    49b0:	1f 93       	push	r17
    49b2:	cf 93       	push	r28
    49b4:	df 93       	push	r29
    49b6:	04 e0       	ldi	r16, 0x04	; 4
    49b8:	11 e0       	ldi	r17, 0x01	; 1
    49ba:	c0 e0       	ldi	r28, 0x00	; 0
    49bc:	d0 e0       	ldi	r29, 0x00	; 0

uint8_t u8NoOfTimer= (sizeof(Timer_OBJ)/sizeof(TIMEROBJ_t));

for(uint8_t i=0;i<u8NoOfTimer;i++){
	voProcessTimerOBJ(&Timer_OBJ[i]);
    49be:	c8 01       	movw	r24, r16
    49c0:	cc df       	rcall	.-104    	; 0x495a <voProcessTimerOBJ>
	if(Timer_OBJ[i].RunRequiered!=0){
    49c2:	ce 01       	movw	r24, r28
    49c4:	67 e0       	ldi	r22, 0x07	; 7
    49c6:	70 e0       	ldi	r23, 0x00	; 0
    49c8:	ad d0       	rcall	.+346    	; 0x4b24 <__mulhi3>
    49ca:	fc 01       	movw	r30, r24
    49cc:	ec 5f       	subi	r30, 0xFC	; 252
    49ce:	fe 4f       	sbci	r31, 0xFE	; 254
    49d0:	84 81       	ldd	r24, Z+4	; 0x04
    49d2:	88 23       	and	r24, r24
    49d4:	81 f0       	breq	.+32     	; 0x49f6 <voScheduler+0x48>
		if(Timer_OBJ[i].fncptrCallBack!=NULL){
    49d6:	85 81       	ldd	r24, Z+5	; 0x05
    49d8:	96 81       	ldd	r25, Z+6	; 0x06
    49da:	89 2b       	or	r24, r25
    49dc:	21 f0       	breq	.+8      	; 0x49e6 <voScheduler+0x38>
			Timer_OBJ[i].fncptrCallBack();
    49de:	05 80       	ldd	r0, Z+5	; 0x05
    49e0:	f6 81       	ldd	r31, Z+6	; 0x06
    49e2:	e0 2d       	mov	r30, r0
    49e4:	09 95       	icall
		}
		Timer_OBJ[i].RunRequiered=0;
    49e6:	ce 01       	movw	r24, r28
    49e8:	67 e0       	ldi	r22, 0x07	; 7
    49ea:	70 e0       	ldi	r23, 0x00	; 0
    49ec:	9b d0       	rcall	.+310    	; 0x4b24 <__mulhi3>
    49ee:	8c 5f       	subi	r24, 0xFC	; 252
    49f0:	9e 4f       	sbci	r25, 0xFE	; 254
    49f2:	fc 01       	movw	r30, r24
    49f4:	14 82       	std	Z+4, r1	; 0x04
    49f6:	21 96       	adiw	r28, 0x01	; 1
    49f8:	09 5f       	subi	r16, 0xF9	; 249
    49fa:	1f 4f       	sbci	r17, 0xFF	; 255

void voScheduler( ) {

uint8_t u8NoOfTimer= (sizeof(Timer_OBJ)/sizeof(TIMEROBJ_t));

for(uint8_t i=0;i<u8NoOfTimer;i++){
    49fc:	c5 30       	cpi	r28, 0x05	; 5
    49fe:	d1 05       	cpc	r29, r1
    4a00:	f1 f6       	brne	.-68     	; 0x49be <voScheduler+0x10>

/* This is the run always part for the USB Stack */
voUSB_Task();
		
	
}
    4a02:	df 91       	pop	r29
    4a04:	cf 91       	pop	r28
    4a06:	1f 91       	pop	r17
		Timer_OBJ[i].RunRequiered=0;
	}
}

/* This is the run always part for the USB Stack */
voUSB_Task();
    4a08:	0f 91       	pop	r16
    4a0a:	9d cf       	rjmp	.-198    	; 0x4946 <voUSB_Task>

00004a0c <SetupHardware>:
/* Configuration for the MkI Hardware */
void SetupHardware(void)
{
#if (ARCH == ARCH_AVR8)
	/* Disable watchdog if enabled by bootloader/fuses */
	MCUSR &= ~(1 << WDRF);
    4a0c:	84 b7       	in	r24, 0x34	; 52
    4a0e:	87 7f       	andi	r24, 0xF7	; 247
    4a10:	84 bf       	out	0x34, r24	; 52
		);
	}
	else
	{
        uint8_t register temp_reg;
		__asm__ __volatile__ (
    4a12:	0f b6       	in	r0, 0x3f	; 63
    4a14:	f8 94       	cli
    4a16:	a8 95       	wdr
    4a18:	80 91 60 00 	lds	r24, 0x0060	; 0x800060 <__DATA_REGION_ORIGIN__>
    4a1c:	88 61       	ori	r24, 0x18	; 24
    4a1e:	80 93 60 00 	sts	0x0060, r24	; 0x800060 <__DATA_REGION_ORIGIN__>
    4a22:	10 92 60 00 	sts	0x0060, r1	; 0x800060 <__DATA_REGION_ORIGIN__>
    4a26:	0f be       	out	0x3f, r0	; 63
from 1 to 129. Thus, one does not need to use \c clock_div_t type as argument.
*/
void clock_prescale_set(clock_div_t __x)
{
    uint8_t __tmp = _BV(CLKPCE);
    __asm__ __volatile__ (
    4a28:	90 e0       	ldi	r25, 0x00	; 0
    4a2a:	80 e8       	ldi	r24, 0x80	; 128
    4a2c:	0f b6       	in	r0, 0x3f	; 63
    4a2e:	f8 94       	cli
    4a30:	80 93 61 00 	sts	0x0061, r24	; 0x800061 <__DATA_REGION_ORIGIN__+0x1>
    4a34:	90 93 61 00 	sts	0x0061, r25	; 0x800061 <__DATA_REGION_ORIGIN__+0x1>
    4a38:	0f be       	out	0x3f, r0	; 63
#elif (ARCH == ARCH_XMEGA)
	#error "ARCH NOT SUPPORTED BY COFFEE MAKER MKI"
#endif

	/* Hardware Initialization */
	USB_Init();
    4a3a:	07 dd       	rcall	.-1522   	; 0x444a <USB_Init>
	
	GPIO_Init();
    4a3c:	0e 94 6e 07 	call	0xedc	; 0xedc <GPIO_Init>
	voSetPumpPowerState(POWER_OFF);
    4a40:	81 e0       	ldi	r24, 0x01	; 1
    4a42:	0e 94 f5 07 	call	0xfea	; 0xfea <voSetPumpPowerState>
	voSetHeaterPowerState(POWER_OFF);
    4a46:	81 e0       	ldi	r24, 0x01	; 1
    4a48:	0e 94 e6 07 	call	0xfcc	; 0xfcc <voSetHeaterPowerState>
	
	voSetLedState(0,LED_OFF);
    4a4c:	61 e0       	ldi	r22, 0x01	; 1
    4a4e:	80 e0       	ldi	r24, 0x00	; 0
    4a50:	0e 94 83 07 	call	0xf06	; 0xf06 <voSetLedState>
	voSetLedState(1,LED_OFF);
    4a54:	61 e0       	ldi	r22, 0x01	; 1
    4a56:	81 e0       	ldi	r24, 0x01	; 1
    4a58:	0e 94 83 07 	call	0xf06	; 0xf06 <voSetLedState>
	voSetLedState(2,LED_OFF);
    4a5c:	61 e0       	ldi	r22, 0x01	; 1
    4a5e:	82 e0       	ldi	r24, 0x02	; 2
    4a60:	0e 94 83 07 	call	0xf06	; 0xf06 <voSetLedState>
	
	
	voMCP3202_Init();
    4a64:	0c 94 ff 07 	jmp	0xffe	; 0xffe <voMCP3202_Init>

00004a68 <main>:
which task needs to be run next
 
*/

int main(void)
{
    4a68:	cf 93       	push	r28
    4a6a:	df 93       	push	r29
    4a6c:	cd b7       	in	r28, 0x3d	; 61
    4a6e:	de b7       	in	r29, 0x3e	; 62
    4a70:	2e 97       	sbiw	r28, 0x0e	; 14
    4a72:	0f b6       	in	r0, 0x3f	; 63
    4a74:	f8 94       	cli
    4a76:	de bf       	out	0x3e, r29	; 62
    4a78:	0f be       	out	0x3f, r0	; 63
    4a7a:	cd bf       	out	0x3d, r28	; 61
	SetupHardware();
    4a7c:	c7 df       	rcall	.-114    	; 0x4a0c <SetupHardware>
    4a7e:	84 e1       	ldi	r24, 0x14	; 20
	#else
		//round up by default
		__ticks_dc = (uint32_t)(ceil(fabs(__tmp)));
	#endif

	__builtin_avr_delay_cycles(__ticks_dc);
    4a80:	2f ef       	ldi	r18, 0xFF	; 255
    4a82:	31 ee       	ldi	r19, 0xE1	; 225
    4a84:	94 e0       	ldi	r25, 0x04	; 4
    4a86:	21 50       	subi	r18, 0x01	; 1
    4a88:	30 40       	sbci	r19, 0x00	; 0
    4a8a:	90 40       	sbci	r25, 0x00	; 0
    4a8c:	e1 f7       	brne	.-8      	; 0x4a86 <main+0x1e>
    4a8e:	00 c0       	rjmp	.+0      	; 0x4a90 <main+0x28>
    4a90:	00 00       	nop
    4a92:	81 50       	subi	r24, 0x01	; 1
	//We need to wait a few seconds until all pins are stable
	for(uint8_t i=0; i<20;i++ ){
    4a94:	a9 f7       	brne	.-22     	; 0x4a80 <main+0x18>
		_delay_ms(100);
	}
	//Next is to power up the machine
	voEEFS_Init();
    4a96:	0e 94 c5 1b 	call	0x378a	; 0x378a <voEEFS_Init>
	/* Create a regular character stream for the interface so that it can be used with the stdio.h functions */
	FILE USBSerialStream;
	CDC_Device_CreateStream(&VirtualSerial_CDC_Interface, &USBSerialStream);
    4a9a:	be 01       	movw	r22, r28
    4a9c:	6f 5f       	subi	r22, 0xFF	; 255
    4a9e:	7f 4f       	sbci	r23, 0xFF	; 255
    4aa0:	87 e2       	ldi	r24, 0x27	; 39
    4aa2:	91 e0       	ldi	r25, 0x01	; 1
    4aa4:	58 da       	rcall	.-2896   	; 0x3f56 <CDC_Device_CreateStream>
	voSetUSBStream(USBSerialStream);
    4aa6:	c9 80       	ldd	r12, Y+1	; 0x01
    4aa8:	da 80       	ldd	r13, Y+2	; 0x02
    4aaa:	eb 80       	ldd	r14, Y+3	; 0x03
    4aac:	fc 80       	ldd	r15, Y+4	; 0x04
    4aae:	0d 81       	ldd	r16, Y+5	; 0x05
    4ab0:	1e 81       	ldd	r17, Y+6	; 0x06
    4ab2:	2f 81       	ldd	r18, Y+7	; 0x07
    4ab4:	38 85       	ldd	r19, Y+8	; 0x08
    4ab6:	49 85       	ldd	r20, Y+9	; 0x09
    4ab8:	5a 85       	ldd	r21, Y+10	; 0x0a
    4aba:	6b 85       	ldd	r22, Y+11	; 0x0b
    4abc:	7c 85       	ldd	r23, Y+12	; 0x0c
    4abe:	8d 85       	ldd	r24, Y+13	; 0x0d
    4ac0:	9e 85       	ldd	r25, Y+14	; 0x0e
    4ac2:	db d8       	rcall	.-3658   	; 0x3c7a <voSetUSBStream>
			static inline void GlobalInterruptEnable(void)
			{
				GCC_MEMORY_BARRIER();

				#if (ARCH == ARCH_AVR8)
				sei();
    4ac4:	78 94       	sei
	GlobalInterruptEnable();
	voInit_HwTimer();
    4ac6:	0e 94 79 09 	call	0x12f2	; 0x12f2 <voInit_HwTimer>
	
	/* Service init */
	voBLTMP_InitBoilerTemp();
    4aca:	0e 94 2a 0a 	call	0x1454	; 0x1454 <voBLTMP_InitBoilerTemp>
	voPWRMTR_InitPowermeter();
    4ace:	0e 94 38 1d 	call	0x3a70	; 0x3a70 <voPWRMTR_InitPowermeter>
	
	/* Setup the Tasks */
	voHPC_TaskInit();
    4ad2:	0e 94 81 1c 	call	0x3902	; 0x3902 <voHPC_TaskInit>
	voHMon_Init();
    4ad6:	0e 94 29 1c 	call	0x3852	; 0x3852 <voHMon_Init>
	voKeyEvent_TaskInit();
    4ada:	0e 94 4d 0a 	call	0x149a	; 0x149a <voKeyEvent_TaskInit>
	voPSE_TaskInit();
    4ade:	30 d8       	rcall	.-4000   	; 0x3b40 <voPSE_TaskInit>
	voCoffeeFSM_TaskInit();
    4ae0:	0e 94 04 0b 	call	0x1608	; 0x1608 <voCoffeeFSM_TaskInit>
	voBTC_TaskInit();
    4ae4:	0e 94 09 0a 	call	0x1412	; 0x1412 <voBTC_TaskInit>
	voTMS_InitTask();
    4ae8:	62 d8       	rcall	.-3900   	; 0x3bae <voTMS_InitTask>
	
	LLS_voInitTask();
    4aea:	0e 94 90 1c 	call	0x3920	; 0x3920 <LLS_voInitTask>
	DPS_Init();
    4aee:	0e 94 f8 18 	call	0x31f0	; 0x31f0 <DPS_Init>
	i2c_init();
    4af2:	0e 94 e3 06 	call	0xdc6	; 0xdc6 <i2c_init>
	CMDI_voInit();
    4af6:	0e 94 da 0e 	call	0x1db4	; 0x1db4 <CMDI_voInit>
	
	

	
	boCoffeeFSM_LoadProgramm(0);
    4afa:	80 e0       	ldi	r24, 0x00	; 0
    4afc:	0e 94 07 0b 	call	0x160e	; 0x160e <boCoffeeFSM_LoadProgramm>
	voCoffeeFSM_LoadSystemSettings();
	while( 1==1 ) 
	{
		
		voScheduler();
    4b00:	0e 94 3f 0b 	call	0x167e	; 0x167e <voCoffeeFSM_LoadSystemSettings>
		voUSB_Task();
    4b04:	54 df       	rcall	.-344    	; 0x49ae <voScheduler>
    4b06:	1f df       	rcall	.-450    	; 0x4946 <voUSB_Task>
		CMDI_voTask();
    4b08:	0e 94 af 11 	call	0x235e	; 0x235e <CMDI_voTask>
    4b0c:	fb cf       	rjmp	.-10     	; 0x4b04 <main+0x9c>

00004b0e <EVENT_USB_Device_Connect>:
}

/** Event handler for the library USB Connection event. */
void EVENT_USB_Device_Connect(void)
{
	voSetConnected(true);
    4b0e:	81 e0       	ldi	r24, 0x01	; 1
    4b10:	ae c8       	rjmp	.-3748   	; 0x3c6e <voSetConnected>

00004b12 <EVENT_USB_Device_Disconnect>:
}

/** Event handler for the library USB Disconnection event. */
void EVENT_USB_Device_Disconnect(void)
{
	voSetConnected(false);
    4b12:	80 e0       	ldi	r24, 0x00	; 0
    4b14:	ac c8       	rjmp	.-3752   	; 0x3c6e <voSetConnected>

00004b16 <EVENT_USB_Device_ConfigurationChanged>:
/** Event handler for the library USB Configuration Changed event. */
void EVENT_USB_Device_ConfigurationChanged(void)
{
	bool ConfigSuccess = true;

	ConfigSuccess &= CDC_Device_ConfigureEndpoints(&VirtualSerial_CDC_Interface);
    4b16:	87 e2       	ldi	r24, 0x27	; 39
    4b18:	91 e0       	ldi	r25, 0x01	; 1
    4b1a:	47 c9       	rjmp	.-3442   	; 0x3daa <CDC_Device_ConfigureEndpoints>

00004b1c <EVENT_USB_Device_ControlRequest>:
}

/** Event handler for the library USB Control Request reception event. */
void EVENT_USB_Device_ControlRequest(void)
{
	CDC_Device_ProcessControlRequest(&VirtualSerial_CDC_Interface);
    4b1c:	87 e2       	ldi	r24, 0x27	; 39
    4b1e:	91 e0       	ldi	r25, 0x01	; 1
    4b20:	2e ca       	rjmp	.-2980   	; 0x3f7e <CDC_Device_ProcessControlRequest>

00004b22 <EVENT_CDC_Device_ControLineStateChanged>:
 *  control lines sent from the host..
 *
 *  \param[in] CDCInterfaceInfo  Pointer to the CDC class interface configuration structure being referenced
 */
void EVENT_CDC_Device_ControLineStateChanged(USB_ClassInfo_CDC_Device_t *const CDCInterfaceInfo)
{
    4b22:	08 95       	ret

00004b24 <__mulhi3>:
    4b24:	00 24       	eor	r0, r0
    4b26:	55 27       	eor	r21, r21
    4b28:	04 c0       	rjmp	.+8      	; 0x4b32 <__mulhi3+0xe>
    4b2a:	08 0e       	add	r0, r24
    4b2c:	59 1f       	adc	r21, r25
    4b2e:	88 0f       	add	r24, r24
    4b30:	99 1f       	adc	r25, r25
    4b32:	00 97       	sbiw	r24, 0x00	; 0
    4b34:	29 f0       	breq	.+10     	; 0x4b40 <__mulhi3+0x1c>
    4b36:	76 95       	lsr	r23
    4b38:	67 95       	ror	r22
    4b3a:	b8 f3       	brcs	.-18     	; 0x4b2a <__mulhi3+0x6>
    4b3c:	71 05       	cpc	r23, r1
    4b3e:	b9 f7       	brne	.-18     	; 0x4b2e <__mulhi3+0xa>
    4b40:	80 2d       	mov	r24, r0
    4b42:	95 2f       	mov	r25, r21
    4b44:	08 95       	ret

00004b46 <__mulsi3>:
    4b46:	ee 27       	eor	r30, r30
    4b48:	ff 27       	eor	r31, r31

00004b4a <__mulsi3_helper>:
    4b4a:	aa 27       	eor	r26, r26
    4b4c:	bb 27       	eor	r27, r27
    4b4e:	08 c0       	rjmp	.+16     	; 0x4b60 <__mulsi3_helper+0x16>
    4b50:	a2 0f       	add	r26, r18
    4b52:	b3 1f       	adc	r27, r19
    4b54:	e4 1f       	adc	r30, r20
    4b56:	f5 1f       	adc	r31, r21
    4b58:	22 0f       	add	r18, r18
    4b5a:	33 1f       	adc	r19, r19
    4b5c:	44 1f       	adc	r20, r20
    4b5e:	55 1f       	adc	r21, r21
    4b60:	96 95       	lsr	r25
    4b62:	87 95       	ror	r24
    4b64:	77 95       	ror	r23
    4b66:	67 95       	ror	r22
    4b68:	98 f3       	brcs	.-26     	; 0x4b50 <__mulsi3_helper+0x6>
    4b6a:	70 40       	sbci	r23, 0x00	; 0
    4b6c:	a9 f7       	brne	.-22     	; 0x4b58 <__mulsi3_helper+0xe>
    4b6e:	00 97       	sbiw	r24, 0x00	; 0
    4b70:	99 f7       	brne	.-26     	; 0x4b58 <__mulsi3_helper+0xe>
    4b72:	bd 01       	movw	r22, r26
    4b74:	cf 01       	movw	r24, r30
    4b76:	08 95       	ret

00004b78 <__udivmodhi4>:
    4b78:	aa 1b       	sub	r26, r26
    4b7a:	bb 1b       	sub	r27, r27
    4b7c:	51 e1       	ldi	r21, 0x11	; 17
    4b7e:	07 c0       	rjmp	.+14     	; 0x4b8e <__udivmodhi4_ep>

00004b80 <__udivmodhi4_loop>:
    4b80:	aa 1f       	adc	r26, r26
    4b82:	bb 1f       	adc	r27, r27
    4b84:	a6 17       	cp	r26, r22
    4b86:	b7 07       	cpc	r27, r23
    4b88:	10 f0       	brcs	.+4      	; 0x4b8e <__udivmodhi4_ep>
    4b8a:	a6 1b       	sub	r26, r22
    4b8c:	b7 0b       	sbc	r27, r23

00004b8e <__udivmodhi4_ep>:
    4b8e:	88 1f       	adc	r24, r24
    4b90:	99 1f       	adc	r25, r25
    4b92:	5a 95       	dec	r21
    4b94:	a9 f7       	brne	.-22     	; 0x4b80 <__udivmodhi4_loop>
    4b96:	80 95       	com	r24
    4b98:	90 95       	com	r25
    4b9a:	bc 01       	movw	r22, r24
    4b9c:	cd 01       	movw	r24, r26
    4b9e:	08 95       	ret

00004ba0 <__udivmodsi4>:
    4ba0:	a1 e2       	ldi	r26, 0x21	; 33
    4ba2:	1a 2e       	mov	r1, r26
    4ba4:	aa 1b       	sub	r26, r26
    4ba6:	bb 1b       	sub	r27, r27
    4ba8:	fd 01       	movw	r30, r26
    4baa:	0d c0       	rjmp	.+26     	; 0x4bc6 <__udivmodsi4_ep>

00004bac <__udivmodsi4_loop>:
    4bac:	aa 1f       	adc	r26, r26
    4bae:	bb 1f       	adc	r27, r27
    4bb0:	ee 1f       	adc	r30, r30
    4bb2:	ff 1f       	adc	r31, r31
    4bb4:	a2 17       	cp	r26, r18
    4bb6:	b3 07       	cpc	r27, r19
    4bb8:	e4 07       	cpc	r30, r20
    4bba:	f5 07       	cpc	r31, r21
    4bbc:	20 f0       	brcs	.+8      	; 0x4bc6 <__udivmodsi4_ep>
    4bbe:	a2 1b       	sub	r26, r18
    4bc0:	b3 0b       	sbc	r27, r19
    4bc2:	e4 0b       	sbc	r30, r20
    4bc4:	f5 0b       	sbc	r31, r21

00004bc6 <__udivmodsi4_ep>:
    4bc6:	66 1f       	adc	r22, r22
    4bc8:	77 1f       	adc	r23, r23
    4bca:	88 1f       	adc	r24, r24
    4bcc:	99 1f       	adc	r25, r25
    4bce:	1a 94       	dec	r1
    4bd0:	69 f7       	brne	.-38     	; 0x4bac <__udivmodsi4_loop>
    4bd2:	60 95       	com	r22
    4bd4:	70 95       	com	r23
    4bd6:	80 95       	com	r24
    4bd8:	90 95       	com	r25
    4bda:	9b 01       	movw	r18, r22
    4bdc:	ac 01       	movw	r20, r24
    4bde:	bd 01       	movw	r22, r26
    4be0:	cf 01       	movw	r24, r30
    4be2:	08 95       	ret

00004be4 <__divmodsi4>:
    4be4:	05 2e       	mov	r0, r21
    4be6:	97 fb       	bst	r25, 7
    4be8:	16 f4       	brtc	.+4      	; 0x4bee <__divmodsi4+0xa>
    4bea:	00 94       	com	r0
    4bec:	0f d0       	rcall	.+30     	; 0x4c0c <__negsi2>
    4bee:	57 fd       	sbrc	r21, 7
    4bf0:	05 d0       	rcall	.+10     	; 0x4bfc <__divmodsi4_neg2>
    4bf2:	d6 df       	rcall	.-84     	; 0x4ba0 <__udivmodsi4>
    4bf4:	07 fc       	sbrc	r0, 7
    4bf6:	02 d0       	rcall	.+4      	; 0x4bfc <__divmodsi4_neg2>
    4bf8:	46 f4       	brtc	.+16     	; 0x4c0a <__divmodsi4_exit>
    4bfa:	08 c0       	rjmp	.+16     	; 0x4c0c <__negsi2>

00004bfc <__divmodsi4_neg2>:
    4bfc:	50 95       	com	r21
    4bfe:	40 95       	com	r20
    4c00:	30 95       	com	r19
    4c02:	21 95       	neg	r18
    4c04:	3f 4f       	sbci	r19, 0xFF	; 255
    4c06:	4f 4f       	sbci	r20, 0xFF	; 255
    4c08:	5f 4f       	sbci	r21, 0xFF	; 255

00004c0a <__divmodsi4_exit>:
    4c0a:	08 95       	ret

00004c0c <__negsi2>:
    4c0c:	90 95       	com	r25
    4c0e:	80 95       	com	r24
    4c10:	70 95       	com	r23
    4c12:	61 95       	neg	r22
    4c14:	7f 4f       	sbci	r23, 0xFF	; 255
    4c16:	8f 4f       	sbci	r24, 0xFF	; 255
    4c18:	9f 4f       	sbci	r25, 0xFF	; 255
    4c1a:	08 95       	ret

00004c1c <strcmp_P>:
    4c1c:	fb 01       	movw	r30, r22
    4c1e:	dc 01       	movw	r26, r24
    4c20:	8d 91       	ld	r24, X+
    4c22:	05 90       	lpm	r0, Z+
    4c24:	80 19       	sub	r24, r0
    4c26:	01 10       	cpse	r0, r1
    4c28:	d9 f3       	breq	.-10     	; 0x4c20 <strcmp_P+0x4>
    4c2a:	99 0b       	sbc	r25, r25
    4c2c:	08 95       	ret

00004c2e <fprintf>:
    4c2e:	a0 e0       	ldi	r26, 0x00	; 0
    4c30:	b0 e0       	ldi	r27, 0x00	; 0
    4c32:	ec e1       	ldi	r30, 0x1C	; 28
    4c34:	f6 e2       	ldi	r31, 0x26	; 38
    4c36:	07 c3       	rjmp	.+1550   	; 0x5246 <__prologue_saves__+0x20>
    4c38:	ae 01       	movw	r20, r28
    4c3a:	47 5f       	subi	r20, 0xF7	; 247
    4c3c:	5f 4f       	sbci	r21, 0xFF	; 255
    4c3e:	6f 81       	ldd	r22, Y+7	; 0x07
    4c40:	78 85       	ldd	r23, Y+8	; 0x08
    4c42:	8d 81       	ldd	r24, Y+5	; 0x05
    4c44:	9e 81       	ldd	r25, Y+6	; 0x06
    4c46:	43 d0       	rcall	.+134    	; 0x4cce <vfprintf>
    4c48:	e2 e0       	ldi	r30, 0x02	; 2
    4c4a:	19 c3       	rjmp	.+1586   	; 0x527e <__epilogue_restores__+0x20>

00004c4c <fprintf_P>:
    4c4c:	a0 e0       	ldi	r26, 0x00	; 0
    4c4e:	b0 e0       	ldi	r27, 0x00	; 0
    4c50:	eb e2       	ldi	r30, 0x2B	; 43
    4c52:	f6 e2       	ldi	r31, 0x26	; 38
    4c54:	f6 c2       	rjmp	.+1516   	; 0x5242 <__prologue_saves__+0x1c>
    4c56:	0f 81       	ldd	r16, Y+7	; 0x07
    4c58:	18 85       	ldd	r17, Y+8	; 0x08
    4c5a:	f8 01       	movw	r30, r16
    4c5c:	83 81       	ldd	r24, Z+3	; 0x03
    4c5e:	88 60       	ori	r24, 0x08	; 8
    4c60:	83 83       	std	Z+3, r24	; 0x03
    4c62:	ae 01       	movw	r20, r28
    4c64:	45 5f       	subi	r20, 0xF5	; 245
    4c66:	5f 4f       	sbci	r21, 0xFF	; 255
    4c68:	69 85       	ldd	r22, Y+9	; 0x09
    4c6a:	7a 85       	ldd	r23, Y+10	; 0x0a
    4c6c:	c8 01       	movw	r24, r16
    4c6e:	2f d0       	rcall	.+94     	; 0x4cce <vfprintf>
    4c70:	f8 01       	movw	r30, r16
    4c72:	23 81       	ldd	r18, Z+3	; 0x03
    4c74:	27 7f       	andi	r18, 0xF7	; 247
    4c76:	23 83       	std	Z+3, r18	; 0x03
    4c78:	e4 e0       	ldi	r30, 0x04	; 4
    4c7a:	ff c2       	rjmp	.+1534   	; 0x527a <__epilogue_restores__+0x1c>

00004c7c <fputs>:
    4c7c:	ef 92       	push	r14
    4c7e:	ff 92       	push	r15
    4c80:	0f 93       	push	r16
    4c82:	1f 93       	push	r17
    4c84:	cf 93       	push	r28
    4c86:	df 93       	push	r29
    4c88:	db 01       	movw	r26, r22
    4c8a:	13 96       	adiw	r26, 0x03	; 3
    4c8c:	2c 91       	ld	r18, X
    4c8e:	21 ff       	sbrs	r18, 1
    4c90:	18 c0       	rjmp	.+48     	; 0x4cc2 <fputs+0x46>
    4c92:	8b 01       	movw	r16, r22
    4c94:	7c 01       	movw	r14, r24
    4c96:	d0 e0       	ldi	r29, 0x00	; 0
    4c98:	c0 e0       	ldi	r28, 0x00	; 0
    4c9a:	f7 01       	movw	r30, r14
    4c9c:	81 91       	ld	r24, Z+
    4c9e:	7f 01       	movw	r14, r30
    4ca0:	88 23       	and	r24, r24
    4ca2:	61 f0       	breq	.+24     	; 0x4cbc <fputs+0x40>
    4ca4:	d8 01       	movw	r26, r16
    4ca6:	18 96       	adiw	r26, 0x08	; 8
    4ca8:	ed 91       	ld	r30, X+
    4caa:	fc 91       	ld	r31, X
    4cac:	19 97       	sbiw	r26, 0x09	; 9
    4cae:	b8 01       	movw	r22, r16
    4cb0:	09 95       	icall
    4cb2:	89 2b       	or	r24, r25
    4cb4:	91 f3       	breq	.-28     	; 0x4c9a <fputs+0x1e>
    4cb6:	df ef       	ldi	r29, 0xFF	; 255
    4cb8:	cf ef       	ldi	r28, 0xFF	; 255
    4cba:	ef cf       	rjmp	.-34     	; 0x4c9a <fputs+0x1e>
    4cbc:	8d 2f       	mov	r24, r29
    4cbe:	9c 2f       	mov	r25, r28
    4cc0:	02 c0       	rjmp	.+4      	; 0x4cc6 <fputs+0x4a>
    4cc2:	8f ef       	ldi	r24, 0xFF	; 255
    4cc4:	9f ef       	ldi	r25, 0xFF	; 255
    4cc6:	cd b7       	in	r28, 0x3d	; 61
    4cc8:	de b7       	in	r29, 0x3e	; 62
    4cca:	e6 e0       	ldi	r30, 0x06	; 6
    4ccc:	d4 c2       	rjmp	.+1448   	; 0x5276 <__epilogue_restores__+0x18>

00004cce <vfprintf>:
    4cce:	ab e0       	ldi	r26, 0x0B	; 11
    4cd0:	b0 e0       	ldi	r27, 0x00	; 0
    4cd2:	ec e6       	ldi	r30, 0x6C	; 108
    4cd4:	f6 e2       	ldi	r31, 0x26	; 38
    4cd6:	a7 c2       	rjmp	.+1358   	; 0x5226 <__prologue_saves__>
    4cd8:	6c 01       	movw	r12, r24
    4cda:	7b 01       	movw	r14, r22
    4cdc:	8a 01       	movw	r16, r20
    4cde:	fc 01       	movw	r30, r24
    4ce0:	17 82       	std	Z+7, r1	; 0x07
    4ce2:	16 82       	std	Z+6, r1	; 0x06
    4ce4:	83 81       	ldd	r24, Z+3	; 0x03
    4ce6:	81 ff       	sbrs	r24, 1
    4ce8:	c0 c1       	rjmp	.+896    	; 0x506a <vfprintf+0x39c>
    4cea:	ce 01       	movw	r24, r28
    4cec:	01 96       	adiw	r24, 0x01	; 1
    4cee:	3c 01       	movw	r6, r24
    4cf0:	f6 01       	movw	r30, r12
    4cf2:	93 81       	ldd	r25, Z+3	; 0x03
    4cf4:	f7 01       	movw	r30, r14
    4cf6:	93 fd       	sbrc	r25, 3
    4cf8:	85 91       	lpm	r24, Z+
    4cfa:	93 ff       	sbrs	r25, 3
    4cfc:	81 91       	ld	r24, Z+
    4cfe:	7f 01       	movw	r14, r30
    4d00:	88 23       	and	r24, r24
    4d02:	09 f4       	brne	.+2      	; 0x4d06 <vfprintf+0x38>
    4d04:	ae c1       	rjmp	.+860    	; 0x5062 <vfprintf+0x394>
    4d06:	85 32       	cpi	r24, 0x25	; 37
    4d08:	39 f4       	brne	.+14     	; 0x4d18 <vfprintf+0x4a>
    4d0a:	93 fd       	sbrc	r25, 3
    4d0c:	85 91       	lpm	r24, Z+
    4d0e:	93 ff       	sbrs	r25, 3
    4d10:	81 91       	ld	r24, Z+
    4d12:	7f 01       	movw	r14, r30
    4d14:	85 32       	cpi	r24, 0x25	; 37
    4d16:	21 f4       	brne	.+8      	; 0x4d20 <vfprintf+0x52>
    4d18:	b6 01       	movw	r22, r12
    4d1a:	90 e0       	ldi	r25, 0x00	; 0
    4d1c:	c1 d1       	rcall	.+898    	; 0x50a0 <fputc>
    4d1e:	e8 cf       	rjmp	.-48     	; 0x4cf0 <vfprintf+0x22>
    4d20:	91 2c       	mov	r9, r1
    4d22:	21 2c       	mov	r2, r1
    4d24:	31 2c       	mov	r3, r1
    4d26:	ff e1       	ldi	r31, 0x1F	; 31
    4d28:	f3 15       	cp	r31, r3
    4d2a:	e0 f0       	brcs	.+56     	; 0x4d64 <vfprintf+0x96>
    4d2c:	8b 32       	cpi	r24, 0x2B	; 43
    4d2e:	79 f0       	breq	.+30     	; 0x4d4e <vfprintf+0x80>
    4d30:	38 f4       	brcc	.+14     	; 0x4d40 <vfprintf+0x72>
    4d32:	80 32       	cpi	r24, 0x20	; 32
    4d34:	79 f0       	breq	.+30     	; 0x4d54 <vfprintf+0x86>
    4d36:	83 32       	cpi	r24, 0x23	; 35
    4d38:	a9 f4       	brne	.+42     	; 0x4d64 <vfprintf+0x96>
    4d3a:	23 2d       	mov	r18, r3
    4d3c:	20 61       	ori	r18, 0x10	; 16
    4d3e:	10 c0       	rjmp	.+32     	; 0x4d60 <vfprintf+0x92>
    4d40:	8d 32       	cpi	r24, 0x2D	; 45
    4d42:	59 f0       	breq	.+22     	; 0x4d5a <vfprintf+0x8c>
    4d44:	80 33       	cpi	r24, 0x30	; 48
    4d46:	71 f4       	brne	.+28     	; 0x4d64 <vfprintf+0x96>
    4d48:	23 2d       	mov	r18, r3
    4d4a:	21 60       	ori	r18, 0x01	; 1
    4d4c:	09 c0       	rjmp	.+18     	; 0x4d60 <vfprintf+0x92>
    4d4e:	83 2d       	mov	r24, r3
    4d50:	82 60       	ori	r24, 0x02	; 2
    4d52:	38 2e       	mov	r3, r24
    4d54:	e3 2d       	mov	r30, r3
    4d56:	e4 60       	ori	r30, 0x04	; 4
    4d58:	22 c0       	rjmp	.+68     	; 0x4d9e <vfprintf+0xd0>
    4d5a:	f3 2d       	mov	r31, r3
    4d5c:	f8 60       	ori	r31, 0x08	; 8
    4d5e:	25 c0       	rjmp	.+74     	; 0x4daa <vfprintf+0xdc>
    4d60:	32 2e       	mov	r3, r18
    4d62:	27 c0       	rjmp	.+78     	; 0x4db2 <vfprintf+0xe4>
    4d64:	37 fc       	sbrc	r3, 7
    4d66:	2d c0       	rjmp	.+90     	; 0x4dc2 <vfprintf+0xf4>
    4d68:	20 ed       	ldi	r18, 0xD0	; 208
    4d6a:	28 0f       	add	r18, r24
    4d6c:	2a 30       	cpi	r18, 0x0A	; 10
    4d6e:	88 f4       	brcc	.+34     	; 0x4d92 <vfprintf+0xc4>
    4d70:	36 fe       	sbrs	r3, 6
    4d72:	06 c0       	rjmp	.+12     	; 0x4d80 <vfprintf+0xb2>
    4d74:	89 2d       	mov	r24, r9
    4d76:	6a e0       	ldi	r22, 0x0A	; 10
    4d78:	4d d2       	rcall	.+1178   	; 0x5214 <__mulqi3>
    4d7a:	92 2e       	mov	r9, r18
    4d7c:	98 0e       	add	r9, r24
    4d7e:	19 c0       	rjmp	.+50     	; 0x4db2 <vfprintf+0xe4>
    4d80:	82 2d       	mov	r24, r2
    4d82:	6a e0       	ldi	r22, 0x0A	; 10
    4d84:	47 d2       	rcall	.+1166   	; 0x5214 <__mulqi3>
    4d86:	22 2e       	mov	r2, r18
    4d88:	28 0e       	add	r2, r24
    4d8a:	83 2d       	mov	r24, r3
    4d8c:	80 62       	ori	r24, 0x20	; 32
    4d8e:	38 2e       	mov	r3, r24
    4d90:	10 c0       	rjmp	.+32     	; 0x4db2 <vfprintf+0xe4>
    4d92:	8e 32       	cpi	r24, 0x2E	; 46
    4d94:	31 f4       	brne	.+12     	; 0x4da2 <vfprintf+0xd4>
    4d96:	36 fc       	sbrc	r3, 6
    4d98:	64 c1       	rjmp	.+712    	; 0x5062 <vfprintf+0x394>
    4d9a:	e3 2d       	mov	r30, r3
    4d9c:	e0 64       	ori	r30, 0x40	; 64
    4d9e:	3e 2e       	mov	r3, r30
    4da0:	08 c0       	rjmp	.+16     	; 0x4db2 <vfprintf+0xe4>
    4da2:	8c 36       	cpi	r24, 0x6C	; 108
    4da4:	21 f4       	brne	.+8      	; 0x4dae <vfprintf+0xe0>
    4da6:	f3 2d       	mov	r31, r3
    4da8:	f0 68       	ori	r31, 0x80	; 128
    4daa:	3f 2e       	mov	r3, r31
    4dac:	02 c0       	rjmp	.+4      	; 0x4db2 <vfprintf+0xe4>
    4dae:	88 36       	cpi	r24, 0x68	; 104
    4db0:	41 f4       	brne	.+16     	; 0x4dc2 <vfprintf+0xf4>
    4db2:	f7 01       	movw	r30, r14
    4db4:	93 fd       	sbrc	r25, 3
    4db6:	85 91       	lpm	r24, Z+
    4db8:	93 ff       	sbrs	r25, 3
    4dba:	81 91       	ld	r24, Z+
    4dbc:	7f 01       	movw	r14, r30
    4dbe:	81 11       	cpse	r24, r1
    4dc0:	b2 cf       	rjmp	.-156    	; 0x4d26 <vfprintf+0x58>
    4dc2:	98 2f       	mov	r25, r24
    4dc4:	9f 7d       	andi	r25, 0xDF	; 223
    4dc6:	95 54       	subi	r25, 0x45	; 69
    4dc8:	93 30       	cpi	r25, 0x03	; 3
    4dca:	28 f4       	brcc	.+10     	; 0x4dd6 <vfprintf+0x108>
    4dcc:	0c 5f       	subi	r16, 0xFC	; 252
    4dce:	1f 4f       	sbci	r17, 0xFF	; 255
    4dd0:	2f e3       	ldi	r18, 0x3F	; 63
    4dd2:	29 83       	std	Y+1, r18	; 0x01
    4dd4:	0d c0       	rjmp	.+26     	; 0x4df0 <vfprintf+0x122>
    4dd6:	83 36       	cpi	r24, 0x63	; 99
    4dd8:	31 f0       	breq	.+12     	; 0x4de6 <vfprintf+0x118>
    4dda:	83 37       	cpi	r24, 0x73	; 115
    4ddc:	71 f0       	breq	.+28     	; 0x4dfa <vfprintf+0x12c>
    4dde:	83 35       	cpi	r24, 0x53	; 83
    4de0:	09 f0       	breq	.+2      	; 0x4de4 <vfprintf+0x116>
    4de2:	55 c0       	rjmp	.+170    	; 0x4e8e <vfprintf+0x1c0>
    4de4:	20 c0       	rjmp	.+64     	; 0x4e26 <vfprintf+0x158>
    4de6:	f8 01       	movw	r30, r16
    4de8:	80 81       	ld	r24, Z
    4dea:	89 83       	std	Y+1, r24	; 0x01
    4dec:	0e 5f       	subi	r16, 0xFE	; 254
    4dee:	1f 4f       	sbci	r17, 0xFF	; 255
    4df0:	88 24       	eor	r8, r8
    4df2:	83 94       	inc	r8
    4df4:	91 2c       	mov	r9, r1
    4df6:	53 01       	movw	r10, r6
    4df8:	12 c0       	rjmp	.+36     	; 0x4e1e <vfprintf+0x150>
    4dfa:	28 01       	movw	r4, r16
    4dfc:	f2 e0       	ldi	r31, 0x02	; 2
    4dfe:	4f 0e       	add	r4, r31
    4e00:	51 1c       	adc	r5, r1
    4e02:	f8 01       	movw	r30, r16
    4e04:	a0 80       	ld	r10, Z
    4e06:	b1 80       	ldd	r11, Z+1	; 0x01
    4e08:	36 fe       	sbrs	r3, 6
    4e0a:	03 c0       	rjmp	.+6      	; 0x4e12 <vfprintf+0x144>
    4e0c:	69 2d       	mov	r22, r9
    4e0e:	70 e0       	ldi	r23, 0x00	; 0
    4e10:	02 c0       	rjmp	.+4      	; 0x4e16 <vfprintf+0x148>
    4e12:	6f ef       	ldi	r22, 0xFF	; 255
    4e14:	7f ef       	ldi	r23, 0xFF	; 255
    4e16:	c5 01       	movw	r24, r10
    4e18:	38 d1       	rcall	.+624    	; 0x508a <strnlen>
    4e1a:	4c 01       	movw	r8, r24
    4e1c:	82 01       	movw	r16, r4
    4e1e:	f3 2d       	mov	r31, r3
    4e20:	ff 77       	andi	r31, 0x7F	; 127
    4e22:	3f 2e       	mov	r3, r31
    4e24:	15 c0       	rjmp	.+42     	; 0x4e50 <vfprintf+0x182>
    4e26:	28 01       	movw	r4, r16
    4e28:	22 e0       	ldi	r18, 0x02	; 2
    4e2a:	42 0e       	add	r4, r18
    4e2c:	51 1c       	adc	r5, r1
    4e2e:	f8 01       	movw	r30, r16
    4e30:	a0 80       	ld	r10, Z
    4e32:	b1 80       	ldd	r11, Z+1	; 0x01
    4e34:	36 fe       	sbrs	r3, 6
    4e36:	03 c0       	rjmp	.+6      	; 0x4e3e <vfprintf+0x170>
    4e38:	69 2d       	mov	r22, r9
    4e3a:	70 e0       	ldi	r23, 0x00	; 0
    4e3c:	02 c0       	rjmp	.+4      	; 0x4e42 <vfprintf+0x174>
    4e3e:	6f ef       	ldi	r22, 0xFF	; 255
    4e40:	7f ef       	ldi	r23, 0xFF	; 255
    4e42:	c5 01       	movw	r24, r10
    4e44:	17 d1       	rcall	.+558    	; 0x5074 <strnlen_P>
    4e46:	4c 01       	movw	r8, r24
    4e48:	f3 2d       	mov	r31, r3
    4e4a:	f0 68       	ori	r31, 0x80	; 128
    4e4c:	3f 2e       	mov	r3, r31
    4e4e:	82 01       	movw	r16, r4
    4e50:	33 fc       	sbrc	r3, 3
    4e52:	19 c0       	rjmp	.+50     	; 0x4e86 <vfprintf+0x1b8>
    4e54:	82 2d       	mov	r24, r2
    4e56:	90 e0       	ldi	r25, 0x00	; 0
    4e58:	88 16       	cp	r8, r24
    4e5a:	99 06       	cpc	r9, r25
    4e5c:	a0 f4       	brcc	.+40     	; 0x4e86 <vfprintf+0x1b8>
    4e5e:	b6 01       	movw	r22, r12
    4e60:	80 e2       	ldi	r24, 0x20	; 32
    4e62:	90 e0       	ldi	r25, 0x00	; 0
    4e64:	1d d1       	rcall	.+570    	; 0x50a0 <fputc>
    4e66:	2a 94       	dec	r2
    4e68:	f5 cf       	rjmp	.-22     	; 0x4e54 <vfprintf+0x186>
    4e6a:	f5 01       	movw	r30, r10
    4e6c:	37 fc       	sbrc	r3, 7
    4e6e:	85 91       	lpm	r24, Z+
    4e70:	37 fe       	sbrs	r3, 7
    4e72:	81 91       	ld	r24, Z+
    4e74:	5f 01       	movw	r10, r30
    4e76:	b6 01       	movw	r22, r12
    4e78:	90 e0       	ldi	r25, 0x00	; 0
    4e7a:	12 d1       	rcall	.+548    	; 0x50a0 <fputc>
    4e7c:	21 10       	cpse	r2, r1
    4e7e:	2a 94       	dec	r2
    4e80:	21 e0       	ldi	r18, 0x01	; 1
    4e82:	82 1a       	sub	r8, r18
    4e84:	91 08       	sbc	r9, r1
    4e86:	81 14       	cp	r8, r1
    4e88:	91 04       	cpc	r9, r1
    4e8a:	79 f7       	brne	.-34     	; 0x4e6a <vfprintf+0x19c>
    4e8c:	e1 c0       	rjmp	.+450    	; 0x5050 <vfprintf+0x382>
    4e8e:	84 36       	cpi	r24, 0x64	; 100
    4e90:	11 f0       	breq	.+4      	; 0x4e96 <vfprintf+0x1c8>
    4e92:	89 36       	cpi	r24, 0x69	; 105
    4e94:	39 f5       	brne	.+78     	; 0x4ee4 <vfprintf+0x216>
    4e96:	f8 01       	movw	r30, r16
    4e98:	37 fe       	sbrs	r3, 7
    4e9a:	07 c0       	rjmp	.+14     	; 0x4eaa <vfprintf+0x1dc>
    4e9c:	60 81       	ld	r22, Z
    4e9e:	71 81       	ldd	r23, Z+1	; 0x01
    4ea0:	82 81       	ldd	r24, Z+2	; 0x02
    4ea2:	93 81       	ldd	r25, Z+3	; 0x03
    4ea4:	0c 5f       	subi	r16, 0xFC	; 252
    4ea6:	1f 4f       	sbci	r17, 0xFF	; 255
    4ea8:	08 c0       	rjmp	.+16     	; 0x4eba <vfprintf+0x1ec>
    4eaa:	60 81       	ld	r22, Z
    4eac:	71 81       	ldd	r23, Z+1	; 0x01
    4eae:	07 2e       	mov	r0, r23
    4eb0:	00 0c       	add	r0, r0
    4eb2:	88 0b       	sbc	r24, r24
    4eb4:	99 0b       	sbc	r25, r25
    4eb6:	0e 5f       	subi	r16, 0xFE	; 254
    4eb8:	1f 4f       	sbci	r17, 0xFF	; 255
    4eba:	f3 2d       	mov	r31, r3
    4ebc:	ff 76       	andi	r31, 0x6F	; 111
    4ebe:	3f 2e       	mov	r3, r31
    4ec0:	97 ff       	sbrs	r25, 7
    4ec2:	09 c0       	rjmp	.+18     	; 0x4ed6 <vfprintf+0x208>
    4ec4:	90 95       	com	r25
    4ec6:	80 95       	com	r24
    4ec8:	70 95       	com	r23
    4eca:	61 95       	neg	r22
    4ecc:	7f 4f       	sbci	r23, 0xFF	; 255
    4ece:	8f 4f       	sbci	r24, 0xFF	; 255
    4ed0:	9f 4f       	sbci	r25, 0xFF	; 255
    4ed2:	f0 68       	ori	r31, 0x80	; 128
    4ed4:	3f 2e       	mov	r3, r31
    4ed6:	2a e0       	ldi	r18, 0x0A	; 10
    4ed8:	30 e0       	ldi	r19, 0x00	; 0
    4eda:	a3 01       	movw	r20, r6
    4edc:	1d d1       	rcall	.+570    	; 0x5118 <__ultoa_invert>
    4ede:	88 2e       	mov	r8, r24
    4ee0:	86 18       	sub	r8, r6
    4ee2:	44 c0       	rjmp	.+136    	; 0x4f6c <vfprintf+0x29e>
    4ee4:	85 37       	cpi	r24, 0x75	; 117
    4ee6:	31 f4       	brne	.+12     	; 0x4ef4 <vfprintf+0x226>
    4ee8:	23 2d       	mov	r18, r3
    4eea:	2f 7e       	andi	r18, 0xEF	; 239
    4eec:	b2 2e       	mov	r11, r18
    4eee:	2a e0       	ldi	r18, 0x0A	; 10
    4ef0:	30 e0       	ldi	r19, 0x00	; 0
    4ef2:	25 c0       	rjmp	.+74     	; 0x4f3e <vfprintf+0x270>
    4ef4:	93 2d       	mov	r25, r3
    4ef6:	99 7f       	andi	r25, 0xF9	; 249
    4ef8:	b9 2e       	mov	r11, r25
    4efa:	8f 36       	cpi	r24, 0x6F	; 111
    4efc:	c1 f0       	breq	.+48     	; 0x4f2e <vfprintf+0x260>
    4efe:	18 f4       	brcc	.+6      	; 0x4f06 <vfprintf+0x238>
    4f00:	88 35       	cpi	r24, 0x58	; 88
    4f02:	79 f0       	breq	.+30     	; 0x4f22 <vfprintf+0x254>
    4f04:	ae c0       	rjmp	.+348    	; 0x5062 <vfprintf+0x394>
    4f06:	80 37       	cpi	r24, 0x70	; 112
    4f08:	19 f0       	breq	.+6      	; 0x4f10 <vfprintf+0x242>
    4f0a:	88 37       	cpi	r24, 0x78	; 120
    4f0c:	21 f0       	breq	.+8      	; 0x4f16 <vfprintf+0x248>
    4f0e:	a9 c0       	rjmp	.+338    	; 0x5062 <vfprintf+0x394>
    4f10:	e9 2f       	mov	r30, r25
    4f12:	e0 61       	ori	r30, 0x10	; 16
    4f14:	be 2e       	mov	r11, r30
    4f16:	b4 fe       	sbrs	r11, 4
    4f18:	0d c0       	rjmp	.+26     	; 0x4f34 <vfprintf+0x266>
    4f1a:	fb 2d       	mov	r31, r11
    4f1c:	f4 60       	ori	r31, 0x04	; 4
    4f1e:	bf 2e       	mov	r11, r31
    4f20:	09 c0       	rjmp	.+18     	; 0x4f34 <vfprintf+0x266>
    4f22:	34 fe       	sbrs	r3, 4
    4f24:	0a c0       	rjmp	.+20     	; 0x4f3a <vfprintf+0x26c>
    4f26:	29 2f       	mov	r18, r25
    4f28:	26 60       	ori	r18, 0x06	; 6
    4f2a:	b2 2e       	mov	r11, r18
    4f2c:	06 c0       	rjmp	.+12     	; 0x4f3a <vfprintf+0x26c>
    4f2e:	28 e0       	ldi	r18, 0x08	; 8
    4f30:	30 e0       	ldi	r19, 0x00	; 0
    4f32:	05 c0       	rjmp	.+10     	; 0x4f3e <vfprintf+0x270>
    4f34:	20 e1       	ldi	r18, 0x10	; 16
    4f36:	30 e0       	ldi	r19, 0x00	; 0
    4f38:	02 c0       	rjmp	.+4      	; 0x4f3e <vfprintf+0x270>
    4f3a:	20 e1       	ldi	r18, 0x10	; 16
    4f3c:	32 e0       	ldi	r19, 0x02	; 2
    4f3e:	f8 01       	movw	r30, r16
    4f40:	b7 fe       	sbrs	r11, 7
    4f42:	07 c0       	rjmp	.+14     	; 0x4f52 <vfprintf+0x284>
    4f44:	60 81       	ld	r22, Z
    4f46:	71 81       	ldd	r23, Z+1	; 0x01
    4f48:	82 81       	ldd	r24, Z+2	; 0x02
    4f4a:	93 81       	ldd	r25, Z+3	; 0x03
    4f4c:	0c 5f       	subi	r16, 0xFC	; 252
    4f4e:	1f 4f       	sbci	r17, 0xFF	; 255
    4f50:	06 c0       	rjmp	.+12     	; 0x4f5e <vfprintf+0x290>
    4f52:	60 81       	ld	r22, Z
    4f54:	71 81       	ldd	r23, Z+1	; 0x01
    4f56:	80 e0       	ldi	r24, 0x00	; 0
    4f58:	90 e0       	ldi	r25, 0x00	; 0
    4f5a:	0e 5f       	subi	r16, 0xFE	; 254
    4f5c:	1f 4f       	sbci	r17, 0xFF	; 255
    4f5e:	a3 01       	movw	r20, r6
    4f60:	db d0       	rcall	.+438    	; 0x5118 <__ultoa_invert>
    4f62:	88 2e       	mov	r8, r24
    4f64:	86 18       	sub	r8, r6
    4f66:	fb 2d       	mov	r31, r11
    4f68:	ff 77       	andi	r31, 0x7F	; 127
    4f6a:	3f 2e       	mov	r3, r31
    4f6c:	36 fe       	sbrs	r3, 6
    4f6e:	0d c0       	rjmp	.+26     	; 0x4f8a <vfprintf+0x2bc>
    4f70:	23 2d       	mov	r18, r3
    4f72:	2e 7f       	andi	r18, 0xFE	; 254
    4f74:	a2 2e       	mov	r10, r18
    4f76:	89 14       	cp	r8, r9
    4f78:	58 f4       	brcc	.+22     	; 0x4f90 <vfprintf+0x2c2>
    4f7a:	34 fe       	sbrs	r3, 4
    4f7c:	0b c0       	rjmp	.+22     	; 0x4f94 <vfprintf+0x2c6>
    4f7e:	32 fc       	sbrc	r3, 2
    4f80:	09 c0       	rjmp	.+18     	; 0x4f94 <vfprintf+0x2c6>
    4f82:	83 2d       	mov	r24, r3
    4f84:	8e 7e       	andi	r24, 0xEE	; 238
    4f86:	a8 2e       	mov	r10, r24
    4f88:	05 c0       	rjmp	.+10     	; 0x4f94 <vfprintf+0x2c6>
    4f8a:	b8 2c       	mov	r11, r8
    4f8c:	a3 2c       	mov	r10, r3
    4f8e:	03 c0       	rjmp	.+6      	; 0x4f96 <vfprintf+0x2c8>
    4f90:	b8 2c       	mov	r11, r8
    4f92:	01 c0       	rjmp	.+2      	; 0x4f96 <vfprintf+0x2c8>
    4f94:	b9 2c       	mov	r11, r9
    4f96:	a4 fe       	sbrs	r10, 4
    4f98:	0f c0       	rjmp	.+30     	; 0x4fb8 <vfprintf+0x2ea>
    4f9a:	fe 01       	movw	r30, r28
    4f9c:	e8 0d       	add	r30, r8
    4f9e:	f1 1d       	adc	r31, r1
    4fa0:	80 81       	ld	r24, Z
    4fa2:	80 33       	cpi	r24, 0x30	; 48
    4fa4:	21 f4       	brne	.+8      	; 0x4fae <vfprintf+0x2e0>
    4fa6:	9a 2d       	mov	r25, r10
    4fa8:	99 7e       	andi	r25, 0xE9	; 233
    4faa:	a9 2e       	mov	r10, r25
    4fac:	09 c0       	rjmp	.+18     	; 0x4fc0 <vfprintf+0x2f2>
    4fae:	a2 fe       	sbrs	r10, 2
    4fb0:	06 c0       	rjmp	.+12     	; 0x4fbe <vfprintf+0x2f0>
    4fb2:	b3 94       	inc	r11
    4fb4:	b3 94       	inc	r11
    4fb6:	04 c0       	rjmp	.+8      	; 0x4fc0 <vfprintf+0x2f2>
    4fb8:	8a 2d       	mov	r24, r10
    4fba:	86 78       	andi	r24, 0x86	; 134
    4fbc:	09 f0       	breq	.+2      	; 0x4fc0 <vfprintf+0x2f2>
    4fbe:	b3 94       	inc	r11
    4fc0:	a3 fc       	sbrc	r10, 3
    4fc2:	10 c0       	rjmp	.+32     	; 0x4fe4 <vfprintf+0x316>
    4fc4:	a0 fe       	sbrs	r10, 0
    4fc6:	06 c0       	rjmp	.+12     	; 0x4fd4 <vfprintf+0x306>
    4fc8:	b2 14       	cp	r11, r2
    4fca:	80 f4       	brcc	.+32     	; 0x4fec <vfprintf+0x31e>
    4fcc:	28 0c       	add	r2, r8
    4fce:	92 2c       	mov	r9, r2
    4fd0:	9b 18       	sub	r9, r11
    4fd2:	0d c0       	rjmp	.+26     	; 0x4fee <vfprintf+0x320>
    4fd4:	b2 14       	cp	r11, r2
    4fd6:	58 f4       	brcc	.+22     	; 0x4fee <vfprintf+0x320>
    4fd8:	b6 01       	movw	r22, r12
    4fda:	80 e2       	ldi	r24, 0x20	; 32
    4fdc:	90 e0       	ldi	r25, 0x00	; 0
    4fde:	60 d0       	rcall	.+192    	; 0x50a0 <fputc>
    4fe0:	b3 94       	inc	r11
    4fe2:	f8 cf       	rjmp	.-16     	; 0x4fd4 <vfprintf+0x306>
    4fe4:	b2 14       	cp	r11, r2
    4fe6:	18 f4       	brcc	.+6      	; 0x4fee <vfprintf+0x320>
    4fe8:	2b 18       	sub	r2, r11
    4fea:	02 c0       	rjmp	.+4      	; 0x4ff0 <vfprintf+0x322>
    4fec:	98 2c       	mov	r9, r8
    4fee:	21 2c       	mov	r2, r1
    4ff0:	a4 fe       	sbrs	r10, 4
    4ff2:	0f c0       	rjmp	.+30     	; 0x5012 <vfprintf+0x344>
    4ff4:	b6 01       	movw	r22, r12
    4ff6:	80 e3       	ldi	r24, 0x30	; 48
    4ff8:	90 e0       	ldi	r25, 0x00	; 0
    4ffa:	52 d0       	rcall	.+164    	; 0x50a0 <fputc>
    4ffc:	a2 fe       	sbrs	r10, 2
    4ffe:	16 c0       	rjmp	.+44     	; 0x502c <vfprintf+0x35e>
    5000:	a1 fc       	sbrc	r10, 1
    5002:	03 c0       	rjmp	.+6      	; 0x500a <vfprintf+0x33c>
    5004:	88 e7       	ldi	r24, 0x78	; 120
    5006:	90 e0       	ldi	r25, 0x00	; 0
    5008:	02 c0       	rjmp	.+4      	; 0x500e <vfprintf+0x340>
    500a:	88 e5       	ldi	r24, 0x58	; 88
    500c:	90 e0       	ldi	r25, 0x00	; 0
    500e:	b6 01       	movw	r22, r12
    5010:	0c c0       	rjmp	.+24     	; 0x502a <vfprintf+0x35c>
    5012:	8a 2d       	mov	r24, r10
    5014:	86 78       	andi	r24, 0x86	; 134
    5016:	51 f0       	breq	.+20     	; 0x502c <vfprintf+0x35e>
    5018:	a1 fe       	sbrs	r10, 1
    501a:	02 c0       	rjmp	.+4      	; 0x5020 <vfprintf+0x352>
    501c:	8b e2       	ldi	r24, 0x2B	; 43
    501e:	01 c0       	rjmp	.+2      	; 0x5022 <vfprintf+0x354>
    5020:	80 e2       	ldi	r24, 0x20	; 32
    5022:	a7 fc       	sbrc	r10, 7
    5024:	8d e2       	ldi	r24, 0x2D	; 45
    5026:	b6 01       	movw	r22, r12
    5028:	90 e0       	ldi	r25, 0x00	; 0
    502a:	3a d0       	rcall	.+116    	; 0x50a0 <fputc>
    502c:	89 14       	cp	r8, r9
    502e:	30 f4       	brcc	.+12     	; 0x503c <vfprintf+0x36e>
    5030:	b6 01       	movw	r22, r12
    5032:	80 e3       	ldi	r24, 0x30	; 48
    5034:	90 e0       	ldi	r25, 0x00	; 0
    5036:	34 d0       	rcall	.+104    	; 0x50a0 <fputc>
    5038:	9a 94       	dec	r9
    503a:	f8 cf       	rjmp	.-16     	; 0x502c <vfprintf+0x35e>
    503c:	8a 94       	dec	r8
    503e:	f3 01       	movw	r30, r6
    5040:	e8 0d       	add	r30, r8
    5042:	f1 1d       	adc	r31, r1
    5044:	80 81       	ld	r24, Z
    5046:	b6 01       	movw	r22, r12
    5048:	90 e0       	ldi	r25, 0x00	; 0
    504a:	2a d0       	rcall	.+84     	; 0x50a0 <fputc>
    504c:	81 10       	cpse	r8, r1
    504e:	f6 cf       	rjmp	.-20     	; 0x503c <vfprintf+0x36e>
    5050:	22 20       	and	r2, r2
    5052:	09 f4       	brne	.+2      	; 0x5056 <vfprintf+0x388>
    5054:	4d ce       	rjmp	.-870    	; 0x4cf0 <vfprintf+0x22>
    5056:	b6 01       	movw	r22, r12
    5058:	80 e2       	ldi	r24, 0x20	; 32
    505a:	90 e0       	ldi	r25, 0x00	; 0
    505c:	21 d0       	rcall	.+66     	; 0x50a0 <fputc>
    505e:	2a 94       	dec	r2
    5060:	f7 cf       	rjmp	.-18     	; 0x5050 <vfprintf+0x382>
    5062:	f6 01       	movw	r30, r12
    5064:	86 81       	ldd	r24, Z+6	; 0x06
    5066:	97 81       	ldd	r25, Z+7	; 0x07
    5068:	02 c0       	rjmp	.+4      	; 0x506e <vfprintf+0x3a0>
    506a:	8f ef       	ldi	r24, 0xFF	; 255
    506c:	9f ef       	ldi	r25, 0xFF	; 255
    506e:	2b 96       	adiw	r28, 0x0b	; 11
    5070:	e2 e1       	ldi	r30, 0x12	; 18
    5072:	f5 c0       	rjmp	.+490    	; 0x525e <__epilogue_restores__>

00005074 <strnlen_P>:
    5074:	fc 01       	movw	r30, r24
    5076:	05 90       	lpm	r0, Z+
    5078:	61 50       	subi	r22, 0x01	; 1
    507a:	70 40       	sbci	r23, 0x00	; 0
    507c:	01 10       	cpse	r0, r1
    507e:	d8 f7       	brcc	.-10     	; 0x5076 <strnlen_P+0x2>
    5080:	80 95       	com	r24
    5082:	90 95       	com	r25
    5084:	8e 0f       	add	r24, r30
    5086:	9f 1f       	adc	r25, r31
    5088:	08 95       	ret

0000508a <strnlen>:
    508a:	fc 01       	movw	r30, r24
    508c:	61 50       	subi	r22, 0x01	; 1
    508e:	70 40       	sbci	r23, 0x00	; 0
    5090:	01 90       	ld	r0, Z+
    5092:	01 10       	cpse	r0, r1
    5094:	d8 f7       	brcc	.-10     	; 0x508c <strnlen+0x2>
    5096:	80 95       	com	r24
    5098:	90 95       	com	r25
    509a:	8e 0f       	add	r24, r30
    509c:	9f 1f       	adc	r25, r31
    509e:	08 95       	ret

000050a0 <fputc>:
    50a0:	0f 93       	push	r16
    50a2:	1f 93       	push	r17
    50a4:	cf 93       	push	r28
    50a6:	df 93       	push	r29
    50a8:	fb 01       	movw	r30, r22
    50aa:	23 81       	ldd	r18, Z+3	; 0x03
    50ac:	21 fd       	sbrc	r18, 1
    50ae:	03 c0       	rjmp	.+6      	; 0x50b6 <fputc+0x16>
    50b0:	8f ef       	ldi	r24, 0xFF	; 255
    50b2:	9f ef       	ldi	r25, 0xFF	; 255
    50b4:	2c c0       	rjmp	.+88     	; 0x510e <fputc+0x6e>
    50b6:	22 ff       	sbrs	r18, 2
    50b8:	16 c0       	rjmp	.+44     	; 0x50e6 <fputc+0x46>
    50ba:	46 81       	ldd	r20, Z+6	; 0x06
    50bc:	57 81       	ldd	r21, Z+7	; 0x07
    50be:	24 81       	ldd	r18, Z+4	; 0x04
    50c0:	35 81       	ldd	r19, Z+5	; 0x05
    50c2:	42 17       	cp	r20, r18
    50c4:	53 07       	cpc	r21, r19
    50c6:	44 f4       	brge	.+16     	; 0x50d8 <fputc+0x38>
    50c8:	a0 81       	ld	r26, Z
    50ca:	b1 81       	ldd	r27, Z+1	; 0x01
    50cc:	9d 01       	movw	r18, r26
    50ce:	2f 5f       	subi	r18, 0xFF	; 255
    50d0:	3f 4f       	sbci	r19, 0xFF	; 255
    50d2:	31 83       	std	Z+1, r19	; 0x01
    50d4:	20 83       	st	Z, r18
    50d6:	8c 93       	st	X, r24
    50d8:	26 81       	ldd	r18, Z+6	; 0x06
    50da:	37 81       	ldd	r19, Z+7	; 0x07
    50dc:	2f 5f       	subi	r18, 0xFF	; 255
    50de:	3f 4f       	sbci	r19, 0xFF	; 255
    50e0:	37 83       	std	Z+7, r19	; 0x07
    50e2:	26 83       	std	Z+6, r18	; 0x06
    50e4:	14 c0       	rjmp	.+40     	; 0x510e <fputc+0x6e>
    50e6:	8b 01       	movw	r16, r22
    50e8:	ec 01       	movw	r28, r24
    50ea:	fb 01       	movw	r30, r22
    50ec:	00 84       	ldd	r0, Z+8	; 0x08
    50ee:	f1 85       	ldd	r31, Z+9	; 0x09
    50f0:	e0 2d       	mov	r30, r0
    50f2:	09 95       	icall
    50f4:	89 2b       	or	r24, r25
    50f6:	e1 f6       	brne	.-72     	; 0x50b0 <fputc+0x10>
    50f8:	d8 01       	movw	r26, r16
    50fa:	16 96       	adiw	r26, 0x06	; 6
    50fc:	8d 91       	ld	r24, X+
    50fe:	9c 91       	ld	r25, X
    5100:	17 97       	sbiw	r26, 0x07	; 7
    5102:	01 96       	adiw	r24, 0x01	; 1
    5104:	17 96       	adiw	r26, 0x07	; 7
    5106:	9c 93       	st	X, r25
    5108:	8e 93       	st	-X, r24
    510a:	16 97       	sbiw	r26, 0x06	; 6
    510c:	ce 01       	movw	r24, r28
    510e:	df 91       	pop	r29
    5110:	cf 91       	pop	r28
    5112:	1f 91       	pop	r17
    5114:	0f 91       	pop	r16
    5116:	08 95       	ret

00005118 <__ultoa_invert>:
    5118:	fa 01       	movw	r30, r20
    511a:	aa 27       	eor	r26, r26
    511c:	28 30       	cpi	r18, 0x08	; 8
    511e:	61 f1       	breq	.+88     	; 0x5178 <__ultoa_invert+0x60>
    5120:	20 31       	cpi	r18, 0x10	; 16
    5122:	91 f1       	breq	.+100    	; 0x5188 <__ultoa_invert+0x70>
    5124:	e8 94       	clt
    5126:	6f 93       	push	r22
    5128:	6e 7f       	andi	r22, 0xFE	; 254
    512a:	6e 5f       	subi	r22, 0xFE	; 254
    512c:	7f 4f       	sbci	r23, 0xFF	; 255
    512e:	8f 4f       	sbci	r24, 0xFF	; 255
    5130:	9f 4f       	sbci	r25, 0xFF	; 255
    5132:	af 4f       	sbci	r26, 0xFF	; 255
    5134:	b1 e0       	ldi	r27, 0x01	; 1
    5136:	40 d0       	rcall	.+128    	; 0x51b8 <__ultoa_invert+0xa0>
    5138:	b4 e0       	ldi	r27, 0x04	; 4
    513a:	3e d0       	rcall	.+124    	; 0x51b8 <__ultoa_invert+0xa0>
    513c:	67 0f       	add	r22, r23
    513e:	78 1f       	adc	r23, r24
    5140:	89 1f       	adc	r24, r25
    5142:	9a 1f       	adc	r25, r26
    5144:	a1 1d       	adc	r26, r1
    5146:	68 0f       	add	r22, r24
    5148:	79 1f       	adc	r23, r25
    514a:	8a 1f       	adc	r24, r26
    514c:	91 1d       	adc	r25, r1
    514e:	a1 1d       	adc	r26, r1
    5150:	6a 0f       	add	r22, r26
    5152:	71 1d       	adc	r23, r1
    5154:	81 1d       	adc	r24, r1
    5156:	91 1d       	adc	r25, r1
    5158:	a1 1d       	adc	r26, r1
    515a:	22 d0       	rcall	.+68     	; 0x51a0 <__ultoa_invert+0x88>
    515c:	09 f4       	brne	.+2      	; 0x5160 <__ultoa_invert+0x48>
    515e:	68 94       	set
    5160:	3f 91       	pop	r19
    5162:	06 2e       	mov	r0, r22
    5164:	00 0c       	add	r0, r0
    5166:	30 19       	sub	r19, r0
    5168:	00 0c       	add	r0, r0
    516a:	00 0c       	add	r0, r0
    516c:	30 19       	sub	r19, r0
    516e:	30 5d       	subi	r19, 0xD0	; 208
    5170:	31 93       	st	Z+, r19
    5172:	ce f6       	brtc	.-78     	; 0x5126 <__ultoa_invert+0xe>
    5174:	cf 01       	movw	r24, r30
    5176:	08 95       	ret
    5178:	46 2f       	mov	r20, r22
    517a:	47 70       	andi	r20, 0x07	; 7
    517c:	40 5d       	subi	r20, 0xD0	; 208
    517e:	41 93       	st	Z+, r20
    5180:	b3 e0       	ldi	r27, 0x03	; 3
    5182:	0f d0       	rcall	.+30     	; 0x51a2 <__ultoa_invert+0x8a>
    5184:	c9 f7       	brne	.-14     	; 0x5178 <__ultoa_invert+0x60>
    5186:	f6 cf       	rjmp	.-20     	; 0x5174 <__ultoa_invert+0x5c>
    5188:	46 2f       	mov	r20, r22
    518a:	4f 70       	andi	r20, 0x0F	; 15
    518c:	40 5d       	subi	r20, 0xD0	; 208
    518e:	4a 33       	cpi	r20, 0x3A	; 58
    5190:	18 f0       	brcs	.+6      	; 0x5198 <__ultoa_invert+0x80>
    5192:	49 5d       	subi	r20, 0xD9	; 217
    5194:	31 fd       	sbrc	r19, 1
    5196:	40 52       	subi	r20, 0x20	; 32
    5198:	41 93       	st	Z+, r20
    519a:	02 d0       	rcall	.+4      	; 0x51a0 <__ultoa_invert+0x88>
    519c:	a9 f7       	brne	.-22     	; 0x5188 <__ultoa_invert+0x70>
    519e:	ea cf       	rjmp	.-44     	; 0x5174 <__ultoa_invert+0x5c>
    51a0:	b4 e0       	ldi	r27, 0x04	; 4
    51a2:	a6 95       	lsr	r26
    51a4:	97 95       	ror	r25
    51a6:	87 95       	ror	r24
    51a8:	77 95       	ror	r23
    51aa:	67 95       	ror	r22
    51ac:	ba 95       	dec	r27
    51ae:	c9 f7       	brne	.-14     	; 0x51a2 <__ultoa_invert+0x8a>
    51b0:	00 97       	sbiw	r24, 0x00	; 0
    51b2:	61 05       	cpc	r22, r1
    51b4:	71 05       	cpc	r23, r1
    51b6:	08 95       	ret
    51b8:	9b 01       	movw	r18, r22
    51ba:	ac 01       	movw	r20, r24
    51bc:	0a 2e       	mov	r0, r26
    51be:	06 94       	lsr	r0
    51c0:	57 95       	ror	r21
    51c2:	47 95       	ror	r20
    51c4:	37 95       	ror	r19
    51c6:	27 95       	ror	r18
    51c8:	ba 95       	dec	r27
    51ca:	c9 f7       	brne	.-14     	; 0x51be <__ultoa_invert+0xa6>
    51cc:	62 0f       	add	r22, r18
    51ce:	73 1f       	adc	r23, r19
    51d0:	84 1f       	adc	r24, r20
    51d2:	95 1f       	adc	r25, r21
    51d4:	a0 1d       	adc	r26, r0
    51d6:	08 95       	ret

000051d8 <eeprom_read_byte>:
    51d8:	f9 99       	sbic	0x1f, 1	; 31
    51da:	fe cf       	rjmp	.-4      	; 0x51d8 <eeprom_read_byte>
    51dc:	92 bd       	out	0x22, r25	; 34
    51de:	81 bd       	out	0x21, r24	; 33
    51e0:	f8 9a       	sbi	0x1f, 0	; 31
    51e2:	99 27       	eor	r25, r25
    51e4:	80 b5       	in	r24, 0x20	; 32
    51e6:	08 95       	ret

000051e8 <eeprom_update_byte>:
    51e8:	26 2f       	mov	r18, r22

000051ea <eeprom_update_r18>:
    51ea:	f9 99       	sbic	0x1f, 1	; 31
    51ec:	fe cf       	rjmp	.-4      	; 0x51ea <eeprom_update_r18>
    51ee:	92 bd       	out	0x22, r25	; 34
    51f0:	81 bd       	out	0x21, r24	; 33
    51f2:	f8 9a       	sbi	0x1f, 0	; 31
    51f4:	01 97       	sbiw	r24, 0x01	; 1
    51f6:	00 b4       	in	r0, 0x20	; 32
    51f8:	02 16       	cp	r0, r18
    51fa:	39 f0       	breq	.+14     	; 0x520a <eeprom_update_r18+0x20>
    51fc:	1f ba       	out	0x1f, r1	; 31
    51fe:	20 bd       	out	0x20, r18	; 32
    5200:	0f b6       	in	r0, 0x3f	; 63
    5202:	f8 94       	cli
    5204:	fa 9a       	sbi	0x1f, 2	; 31
    5206:	f9 9a       	sbi	0x1f, 1	; 31
    5208:	0f be       	out	0x3f, r0	; 63
    520a:	08 95       	ret

0000520c <eeprom_update_word>:
    520c:	01 96       	adiw	r24, 0x01	; 1
    520e:	27 2f       	mov	r18, r23
    5210:	ec df       	rcall	.-40     	; 0x51ea <eeprom_update_r18>
    5212:	ea cf       	rjmp	.-44     	; 0x51e8 <eeprom_update_byte>

00005214 <__mulqi3>:
    5214:	00 24       	eor	r0, r0

00005216 <__mulqi3_loop>:
    5216:	80 fd       	sbrc	r24, 0
    5218:	06 0e       	add	r0, r22
    521a:	66 0f       	add	r22, r22
    521c:	11 f0       	breq	.+4      	; 0x5222 <__mulqi3_exit>
    521e:	86 95       	lsr	r24
    5220:	d1 f7       	brne	.-12     	; 0x5216 <__mulqi3_loop>

00005222 <__mulqi3_exit>:
    5222:	80 2d       	mov	r24, r0
    5224:	08 95       	ret

00005226 <__prologue_saves__>:
    5226:	2f 92       	push	r2
    5228:	3f 92       	push	r3
    522a:	4f 92       	push	r4
    522c:	5f 92       	push	r5
    522e:	6f 92       	push	r6
    5230:	7f 92       	push	r7
    5232:	8f 92       	push	r8
    5234:	9f 92       	push	r9
    5236:	af 92       	push	r10
    5238:	bf 92       	push	r11
    523a:	cf 92       	push	r12
    523c:	df 92       	push	r13
    523e:	ef 92       	push	r14
    5240:	ff 92       	push	r15
    5242:	0f 93       	push	r16
    5244:	1f 93       	push	r17
    5246:	cf 93       	push	r28
    5248:	df 93       	push	r29
    524a:	cd b7       	in	r28, 0x3d	; 61
    524c:	de b7       	in	r29, 0x3e	; 62
    524e:	ca 1b       	sub	r28, r26
    5250:	db 0b       	sbc	r29, r27
    5252:	0f b6       	in	r0, 0x3f	; 63
    5254:	f8 94       	cli
    5256:	de bf       	out	0x3e, r29	; 62
    5258:	0f be       	out	0x3f, r0	; 63
    525a:	cd bf       	out	0x3d, r28	; 61
    525c:	09 94       	ijmp

0000525e <__epilogue_restores__>:
    525e:	2a 88       	ldd	r2, Y+18	; 0x12
    5260:	39 88       	ldd	r3, Y+17	; 0x11
    5262:	48 88       	ldd	r4, Y+16	; 0x10
    5264:	5f 84       	ldd	r5, Y+15	; 0x0f
    5266:	6e 84       	ldd	r6, Y+14	; 0x0e
    5268:	7d 84       	ldd	r7, Y+13	; 0x0d
    526a:	8c 84       	ldd	r8, Y+12	; 0x0c
    526c:	9b 84       	ldd	r9, Y+11	; 0x0b
    526e:	aa 84       	ldd	r10, Y+10	; 0x0a
    5270:	b9 84       	ldd	r11, Y+9	; 0x09
    5272:	c8 84       	ldd	r12, Y+8	; 0x08
    5274:	df 80       	ldd	r13, Y+7	; 0x07
    5276:	ee 80       	ldd	r14, Y+6	; 0x06
    5278:	fd 80       	ldd	r15, Y+5	; 0x05
    527a:	0c 81       	ldd	r16, Y+4	; 0x04
    527c:	1b 81       	ldd	r17, Y+3	; 0x03
    527e:	aa 81       	ldd	r26, Y+2	; 0x02
    5280:	b9 81       	ldd	r27, Y+1	; 0x01
    5282:	ce 0f       	add	r28, r30
    5284:	d1 1d       	adc	r29, r1
    5286:	0f b6       	in	r0, 0x3f	; 63
    5288:	f8 94       	cli
    528a:	de bf       	out	0x3e, r29	; 62
    528c:	0f be       	out	0x3f, r0	; 63
    528e:	cd bf       	out	0x3d, r28	; 61
    5290:	ed 01       	movw	r28, r26
    5292:	08 95       	ret

00005294 <_exit>:
    5294:	f8 94       	cli

00005296 <__stop_program>:
    5296:	ff cf       	rjmp	.-2      	; 0x5296 <__stop_program>
