
Coffe_Maker_MKI.elf:     file format elf32-avr

Sections:
Idx Name          Size      VMA       LMA       File off  Algn
  0 .data         000000d0  00800100  000044a2  00004536  2**0
                  CONTENTS, ALLOC, LOAD, DATA
  1 .text         000044a2  00000000  00000000  00000094  2**1
                  CONTENTS, ALLOC, LOAD, READONLY, CODE
  2 .bss          000000fd  008001d0  008001d0  00004606  2**0
                  ALLOC
  3 .stab         00000024  00000000  00000000  00004608  2**2
                  CONTENTS, READONLY, DEBUGGING
  4 .stabstr      0000003b  00000000  00000000  0000462c  2**0
                  CONTENTS, READONLY, DEBUGGING
  5 .comment      0000005c  00000000  00000000  00004667  2**0
                  CONTENTS, READONLY
  6 .note.gnu.avr.deviceinfo 00000040  00000000  00000000  000046c4  2**2
                  CONTENTS, READONLY
  7 .debug_aranges 00000918  00000000  00000000  00004708  2**3
                  CONTENTS, READONLY, DEBUGGING
  8 .debug_info   0000b0b4  00000000  00000000  00005020  2**0
                  CONTENTS, READONLY, DEBUGGING
  9 .debug_abbrev 00002f7e  00000000  00000000  000100d4  2**0
                  CONTENTS, READONLY, DEBUGGING
 10 .debug_line   0000e7ed  00000000  00000000  00013052  2**0
                  CONTENTS, READONLY, DEBUGGING
 11 .debug_frame  00001698  00000000  00000000  00021840  2**2
                  CONTENTS, READONLY, DEBUGGING
 12 .debug_str    000176cc  00000000  00000000  00022ed8  2**0
                  CONTENTS, READONLY, DEBUGGING
 13 .debug_loc    0000665c  00000000  00000000  0003a5a4  2**0
                  CONTENTS, READONLY, DEBUGGING
 14 .debug_ranges 00000960  00000000  00000000  00040c00  2**0
                  CONTENTS, READONLY, DEBUGGING
 15 .debug_macro  00008544  00000000  00000000  00041560  2**0
                  CONTENTS, READONLY, DEBUGGING

Disassembly of section .text:

00000000 <__vectors>:
       0:	b6 c4       	rjmp	.+2412   	; 0x96e <__ctors_end>
       2:	00 00       	nop
       4:	d1 c4       	rjmp	.+2466   	; 0x9a8 <__bad_interrupt>
       6:	00 00       	nop
       8:	cf c4       	rjmp	.+2462   	; 0x9a8 <__bad_interrupt>
       a:	00 00       	nop
       c:	cd c4       	rjmp	.+2458   	; 0x9a8 <__bad_interrupt>
       e:	00 00       	nop
      10:	cb c4       	rjmp	.+2454   	; 0x9a8 <__bad_interrupt>
      12:	00 00       	nop
      14:	c9 c4       	rjmp	.+2450   	; 0x9a8 <__bad_interrupt>
      16:	00 00       	nop
      18:	c7 c4       	rjmp	.+2446   	; 0x9a8 <__bad_interrupt>
      1a:	00 00       	nop
      1c:	c5 c4       	rjmp	.+2442   	; 0x9a8 <__bad_interrupt>
      1e:	00 00       	nop
      20:	c3 c4       	rjmp	.+2438   	; 0x9a8 <__bad_interrupt>
      22:	00 00       	nop
      24:	c1 c4       	rjmp	.+2434   	; 0x9a8 <__bad_interrupt>
      26:	00 00       	nop
      28:	bf c4       	rjmp	.+2430   	; 0x9a8 <__bad_interrupt>
      2a:	00 00       	nop
      2c:	0c 94 50 1b 	jmp	0x36a0	; 0x36a0 <__vector_11>
      30:	0c 94 f9 1b 	jmp	0x37f2	; 0x37f2 <__vector_12>
      34:	b9 c4       	rjmp	.+2418   	; 0x9a8 <__bad_interrupt>
      36:	00 00       	nop
      38:	b7 c4       	rjmp	.+2414   	; 0x9a8 <__bad_interrupt>
      3a:	00 00       	nop
      3c:	40 c7       	rjmp	.+3712   	; 0xebe <__vector_15>
      3e:	00 00       	nop
      40:	34 c7       	rjmp	.+3688   	; 0xeaa <__vector_16>
      42:	00 00       	nop
      44:	28 c7       	rjmp	.+3664   	; 0xe96 <__vector_17>
      46:	00 00       	nop
      48:	af c4       	rjmp	.+2398   	; 0x9a8 <__bad_interrupt>
      4a:	00 00       	nop
      4c:	e4 c6       	rjmp	.+3528   	; 0xe16 <__vector_19>
      4e:	00 00       	nop
      50:	ab c4       	rjmp	.+2390   	; 0x9a8 <__bad_interrupt>
      52:	00 00       	nop
      54:	a9 c4       	rjmp	.+2386   	; 0x9a8 <__bad_interrupt>
      56:	00 00       	nop
      58:	a7 c4       	rjmp	.+2382   	; 0x9a8 <__bad_interrupt>
      5a:	00 00       	nop
      5c:	ad c7       	rjmp	.+3930   	; 0xfb8 <__vector_23>
      5e:	00 00       	nop
      60:	6b c7       	rjmp	.+3798   	; 0xf38 <__vector_24>
      62:	00 00       	nop
      64:	a1 c4       	rjmp	.+2370   	; 0x9a8 <__bad_interrupt>
      66:	00 00       	nop
      68:	9f c4       	rjmp	.+2366   	; 0x9a8 <__bad_interrupt>
      6a:	00 00       	nop
      6c:	9d c4       	rjmp	.+2362   	; 0x9a8 <__bad_interrupt>
      6e:	00 00       	nop
      70:	9b c4       	rjmp	.+2358   	; 0x9a8 <__bad_interrupt>
	...

00000074 <ProductString>:
      74:	1c 03 4c 00 55 00 46 00 41 00 20 00 43 00 44 00     ..L.U.F.A. .C.D.
      84:	43 00 20 00 44 00 65 00 6d 00 6f 00 00 00           C. .D.e.m.o...

00000092 <ManufacturerString>:
      92:	18 03 44 00 65 00 61 00 6e 00 20 00 43 00 61 00     ..D.e.a.n. .C.a.
      a2:	6d 00 65 00 72 00 61 00 00 00                       m.e.r.a...

000000ac <LanguageString>:
      ac:	04 03 09 04                                         ....

000000b0 <ConfigurationDescriptor>:
      b0:	09 02 3e 00 02 01 00 c0 32 09 04 00 00 01 02 02     ..>.....2.......
      c0:	01 00 05 24 00 10 01 04 24 02 06 05 24 06 00 01     ...$....$...$...
      d0:	07 05 82 03 08 00 ff 09 04 01 00 02 0a 00 00 00     ................
      e0:	07 05 04 02 10 00 05 07 05 83 02 10 00 05           ..............

000000ee <DeviceDescriptor>:
      ee:	12 01 10 01 02 00 00 08 eb 03 44 20 01 00 01 02     ..........D ....
      fe:	dc 01                                               ..

00000100 <__c.2654>:
     100:	4f 4b 0a 0d 00                                      OK...

00000105 <__c.2649>:
     105:	45 52 52 3a 50 41 52 53 45 52 0a 0d 00              ERR:PARSER...

00000112 <__c.2644>:
     112:	45 52 52 3a 50 41 52 41 4d 0a 0d 00                 ERR:PARAM...

0000011e <__c.2620>:
     11e:	55 53 41 47 45 3a 20 27 47 45 54 20 45 43 48 4f     USAGE: 'GET ECHO
     12e:	27 2c 20 27 53 45 54 20 45 43 48 4f 20 58 58 58     ', 'SET ECHO XXX
     13e:	58 27 20 77 69 74 68 20 30 20 3d 20 4f 46 46 20     X' with 0 = OFF 
     14e:	61 6e 64 20 65 6c 73 65 20 4f 4e 0a 0d 00           and else ON...

0000015c <__c.2615>:
     15c:	55 53 41 47 45 3a 20 27 47 45 54 20 53 54 42 59     USAGE: 'GET STBY
     16c:	54 4d 50 27 2c 20 27 53 45 54 20 53 54 42 59 54     TMP', 'SET STBYT
     17c:	4d 50 20 58 58 58 58 0a 0d 00                       MP XXXX...

00000186 <__c.2610>:
     186:	55 53 41 47 45 3a 20 27 53 45 54 20 41 55 54 4f     USAGE: 'SET AUTO
     196:	4f 46 46 20 4f 4e 27 2c 20 27 53 45 54 20 41 55     OFF ON', 'SET AU
     1a6:	54 4f 4f 46 46 20 4f 46 46 27 20 6f 72 20 27 53     TOOFF OFF' or 'S
     1b6:	45 54 20 41 55 54 4f 4f 46 46 20 4f 46 46 27 20     ET AUTOOFF OFF' 
     1c6:	0a 0d 00                                            ...

000001c9 <__c.2605>:
     1c9:	55 53 41 47 45 3a 20 27 47 45 54 20 4c 45 56 4c     USAGE: 'GET LEVL
     1d9:	45 27 20 6f 72 20 27 53 45 54 20 4c 45 56 45 4c     E' or 'SET LEVEL
     1e9:	20 58 58 58 58 27 20 77 69 74 68 20 72 61 6e 67      XXXX' with rang
     1f9:	65 20 6f 66 20 30 20 74 6f 20 32 0a 0d 00           e of 0 to 2...

00000207 <__c.2600>:
     207:	55 53 41 47 45 3a 20 27 47 45 54 20 42 4f 49 4c     USAGE: 'GET BOIL
     217:	45 52 54 4d 50 27 20 74 6f 20 72 65 61 64 20 74     ERTMP' to read t
     227:	68 65 20 63 75 72 72 65 6e 74 20 62 6f 69 6c 65     he current boile
     237:	72 20 74 65 6d 70 20 69 6e 20 31 2f 31 30 30 20     r temp in 1/100 
     247:	64 65 67 72 65 65 20 43 2e 0a 0d 00                 degree C....

00000253 <__c.2597>:
     253:	4f 4b 3a 25 69 0a 0d 00                             OK:%i...

0000025b <__c.2593>:
     25b:	55 53 41 47 45 3a 20 27 47 45 54 20 43 55 52 50     USAGE: 'GET CURP
     26b:	57 52 27 20 74 6f 20 72 65 61 64 20 74 68 65 20     WR' to read the 
     27b:	63 75 72 72 65 6e 74 20 70 6f 77 65 72 20 75 73     current power us
     28b:	65 64 20 69 6e 20 6d 41 0a 0d 00                    ed in mA...

00000296 <__c.2590>:
     296:	4f 4b 3a 25 69 0a 0d 00                             OK:%i...

0000029e <__c.2586>:
     29e:	55 53 41 47 45 3a 20 27 47 45 54 20 43 48 50 52     USAGE: 'GET CHPR
     2ae:	47 27 20 6f 72 20 27 53 45 54 20 43 48 50 52 47     G' or 'SET CHPRG
     2be:	20 58 58 58 58 27 20 77 69 74 68 20 72 61 6e 67      XXXX' with rang
     2ce:	65 20 6f 66 20 30 20 74 6f 20 37 0a 0d 00           e of 0 to 7...

000002dc <__c.2583>:
     2dc:	4f 4b 3a 25 69 0a 0d 00                             OK:%i...

000002e4 <__c.2579>:
     2e4:	55 53 41 47 45 3a 20 27 47 45 54 20 50 52 47 27     USAGE: 'GET PRG'
     2f4:	20 6f 72 20 27 53 45 54 20 50 52 47 20 58 58 58      or 'SET PRG XXX
     304:	58 27 20 77 69 74 68 20 72 61 6e 67 65 20 6f 66     X' with range of
     314:	20 30 20 74 6f 20 37 0a 0d 00                        0 to 7...

0000031e <__c.2576>:
     31e:	4f 4b 3a 25 69 0a 0d 00                             OK:%i...

00000326 <__c.2572>:
     326:	55 53 41 47 45 3a 20 27 47 45 54 20 57 41 49 54     USAGE: 'GET WAIT
     336:	27 20 6f 72 20 27 53 45 54 20 57 41 49 54 20 58     ' or 'SET WAIT X
     346:	58 58 58 27 20 77 69 74 68 20 72 61 6e 67 65 20     XXX' with range 
     356:	6f 66 20 30 20 74 6f 20 36 35 35 33 35 0a 0d 00     of 0 to 65535...

00000366 <__c.2569>:
     366:	4f 4b 3a 25 69 0a 0d 00                             OK:%i...

0000036e <__c.2565>:
     36e:	55 53 41 47 45 3a 20 27 47 45 54 20 57 41 54 45     USAGE: 'GET WATE
     37e:	52 27 20 6f 72 20 27 53 45 54 20 57 41 54 45 52     R' or 'SET WATER
     38e:	20 58 58 58 58 27 20 77 69 74 68 20 72 61 6e 67      XXXX' with rang
     39e:	65 20 6f 66 20 30 20 74 6f 20 36 35 35 33 35 0a     e of 0 to 65535.
     3ae:	0d 00                                               ..

000003b0 <__c.2562>:
     3b0:	4f 4b 3a 25 69 0a 0d 00                             OK:%i...

000003b8 <__c.2558>:
     3b8:	55 53 41 47 45 3a 20 27 47 45 54 20 50 52 57 41     USAGE: 'GET PRWA
     3c8:	27 20 6f 72 20 27 53 45 54 20 50 52 57 41 20 58     ' or 'SET PRWA X
     3d8:	58 58 58 27 20 77 69 74 68 20 72 61 6e 67 65 20     XXX' with range 
     3e8:	6f 66 20 30 20 74 6f 20 36 35 35 33 35 0a 0d 00     of 0 to 65535...

000003f8 <__c.2553>:
     3f8:	55 53 41 47 45 3a 20 27 47 45 54 20 54 45 4d 50     USAGE: 'GET TEMP
     408:	27 20 6f 72 20 27 53 45 54 20 54 45 4d 50 20 58     ' or 'SET TEMP X
     418:	58 58 58 27 20 77 69 74 68 20 72 61 6e 67 65 20     XXX' with range 
     428:	6f 66 20 30 20 74 6f 20 39 39 39 39 0a 0d 00        of 0 to 9999...

00000437 <__c.2550>:
     437:	4f 4b 3a 25 69 0a 0d 00                             OK:%i...

0000043f <__c.2545>:
     43f:	4e 6f 20 28 6d 6f 72 65 29 20 62 6f 74 74 6c 65     No (more) bottle
     44f:	73 20 6f 66 20 62 65 65 72 20 6f 6e 20 74 68 65     s of beer on the
     45f:	20 77 61 6c 6c 2c 0a 0d 4e 6f 20 28 6d 6f 72 65      wall,..No (more
     46f:	29 20 62 6f 74 74 6c 65 73 20 6f 66 20 62 65 65     ) bottles of bee
     47f:	72 2e 0a 0d 47 6f 20 74 6f 20 74 68 65 20 73 74     r...Go to the st
     48f:	6f 72 65 20 61 6e 64 20 62 75 79 20 73 6f 6d 65     ore and buy some
     49f:	20 6d 6f 72 65 2c 0a 0d 4e 69 6e 65 74 79 2d 6e      more,..Ninety-n
     4af:	69 6e 65 20 62 6f 74 74 6c 65 73 20 6f 66 20 62     ine bottles of b
     4bf:	65 65 72 20 6f 6e 20 74 68 65 20 77 61 6c 6c 2e     eer on the wall.
     4cf:	0a 0d 00                                            ...

000004d2 <__c.2542>:
     4d2:	25 69 20 42 6f 74 74 6c 65 28 73 29 20 6f 66 20     %i Bottle(s) of 
     4e2:	62 65 65 72 20 6f 6e 20 74 68 65 20 77 61 6c 6c     beer on the wall
     4f2:	2c 20 25 69 20 62 6f 74 74 6c 65 28 73 29 20 6f     , %i bottle(s) o
     502:	66 20 62 65 65 72 0a 0d 54 61 6b 65 20 6f 6e 65     f beer..Take one
     512:	20 64 6f 77 6e 20 61 6e 64 20 70 61 73 73 20 69      down and pass i
     522:	74 20 61 72 6f 75 6e 64 2c 0a 0d 25 69 20 62 6f     t around,..%i bo
     532:	74 74 6c 65 28 73 29 20 6f 66 20 62 65 65 72 20     ttle(s) of beer 
     542:	6f 6e 20 74 68 65 20 77 61 6c 6c 0a 0d 00           on the wall...

00000550 <__c.2539>:
     550:	53 65 6e 73 65 48 61 4a 6f 20 2d 20 48 65 6c 70     SenseHaJo - Help
     560:	0a 0d 2d 2d 2d 2d 2d 2d 2d 2d 2d 2d 2d 2d 2d 2d     ..--------------
     570:	2d 2d 2d 2d 2d 2d 2d 2d 2d 2d 2d 2d 2d 2d 2d 2d     ----------------
     580:	2d 2d 2d 2d 2d 2d 2d 2d 2d 2d 2d 2d 2d 2d 2d 2d     ----------------
     590:	2d 2d 2d 2d 2d 2d 2d 2d 2d 2d 2d 2d 2d 2d 2d 2d     ----------------
     5a0:	2d 2d 2d 2d 2d 2d 2d 2d 2d 2d 2d 2d 2d 2d 2d 2d     ----------------
     5b0:	2d 2d 2d 2d 2d 2d 2d 2d 2d 2d 2d 2d 0a 0d 55 73     ------------..Us
     5c0:	65 20 53 45 54 2c 20 47 45 54 2c 20 43 4d 44 20     e SET, GET, CMD 
     5d0:	61 6e 64 20 48 45 4c 50 0a 0d 43 6f 6d 6d 61 6e     and HELP..Comman
     5e0:	64 73 20 61 72 65 3a 0a 0d 54 45 4d 50 20 2d 20     ds are:..TEMP - 
     5f0:	53 65 74 20 6f 72 20 47 65 74 20 50 72 6f 67 2e     Set or Get Prog.
     600:	20 54 65 6d 70 2e 0a 0d 50 52 47 20 2d 20 53 65      Temp...PRG - Se
     610:	74 20 6f 72 20 47 65 74 20 63 75 72 72 65 6e 74     t or Get current
     620:	20 50 72 6f 67 2e 0a 0d 43 48 50 52 47 20 2d 20      Prog...CHPRG - 
     630:	53 65 74 20 6f 72 20 47 65 74 20 74 68 65 20 63     Set or Get the c
     640:	75 72 72 65 6e 74 20 50 72 6f 67 2e 20 74 6f 20     urrent Prog. to 
     650:	6d 6f 64 69 66 79 0a 0d 50 52 57 41 20 2d 20 53     modify..PRWA - S
     660:	65 74 20 6f 72 20 47 65 74 20 74 68 65 20 61 6d     et or Get the am
     670:	6f 75 6e 74 20 6f 66 20 77 61 74 65 72 20 75 73     ount of water us
     680:	65 64 20 74 6f 20 77 65 74 20 74 68 65 20 70 61     ed to wet the pa
     690:	64 0a 0d 57 41 54 45 52 20 2d 20 53 65 74 20 6f     d..WATER - Set o
     6a0:	72 20 47 65 74 20 74 68 65 20 61 6d 6f 75 6e 74     r Get the amount
     6b0:	20 6f 66 20 77 61 74 65 72 20 75 73 65 64 20 74      of water used t
     6c0:	6f 20 62 72 65 77 20 74 68 65 20 63 6f 66 66 65     o brew the coffe
     6d0:	65 0a 0d 57 41 49 54 20 2d 20 53 65 74 20 6f 72     e..WAIT - Set or
     6e0:	20 47 65 74 20 74 68 65 20 61 6d 6f 75 6e 74 20      Get the amount 
     6f0:	6f 66 20 74 69 6d 65 20 74 6f 20 77 61 69 74 20     of time to wait 
     700:	62 65 74 77 65 65 6e 20 77 65 74 20 74 68 65 20     between wet the 
     710:	70 61 64 20 61 6e 64 20 6d 61 6b 65 20 74 68 65     pad and make the
     720:	20 63 6f 66 66 65 65 0a 0d 43 55 52 50 57 52 20      coffee..CURPWR 
     730:	2d 20 47 65 74 20 74 68 65 20 63 75 72 72 65 6e     - Get the curren
     740:	74 20 70 6f 77 65 72 20 75 73 65 64 0a 0d 42 4f     t power used..BO
     750:	49 4c 45 52 54 4d 50 20 2d 20 47 65 74 20 74 68     ILERTMP - Get th
     760:	65 20 63 75 72 72 65 6e 74 20 62 6f 69 6c 65 72     e current boiler
     770:	20 74 65 6d 70 2e 0a 0d 4c 45 56 45 4c 20 2d 20      temp...LEVEL - 
     780:	53 65 74 20 6f 72 20 47 65 74 20 74 68 65 20 63     Set or Get the c
     790:	75 72 72 65 6e 74 20 66 69 6c 6c 20 6c 65 76 65     urrent fill leve
     7a0:	6c 20 6f 66 20 74 68 65 20 43 75 70 0a 0d 41 55     l of the Cup..AU
     7b0:	54 4f 4f 46 20 2d 20 53 65 74 20 6f 72 20 47 65     TOOF - Set or Ge
     7c0:	74 20 74 68 65 20 54 69 6d 65 20 69 6e 20 4d 69     t the Time in Mi
     7d0:	6e 75 74 65 73 20 75 6e 74 69 6c 6c 20 41 75 74     nutes untill Aut
     7e0:	6f 20 4f 66 66 0a 0d 53 54 42 59 54 45 4d 50 20     o Off..STBYTEMP 
     7f0:	2d 20 53 65 74 20 6f 72 20 47 65 74 20 74 68 65     - Set or Get the
     800:	20 73 74 61 6e 64 62 79 20 74 65 6d 70 2e 0a 0d      standby temp...
     810:	4d 41 4b 45 20 28 4f 4e 45 43 55 50 20 2c 20 54     MAKE (ONECUP , T
     820:	57 4f 43 55 50 29 20 75 73 65 64 20 74 6f 20 6d     WOCUP) used to m
     830:	61 6b 65 20 63 6f 66 66 65 65 0a 0d 45 43 48 4f     ake coffee..ECHO
     840:	20 2d 20 65 6e 61 62 6c 65 20 6f 72 20 64 69 73      - enable or dis
     850:	61 62 6c 65 20 73 65 72 69 61 6c 20 45 43 48 4f     able serial ECHO
     860:	0a 0d 46 6f 72 20 6d 6f 72 65 20 48 65 6c 70 20     ..For more Help 
     870:	74 79 70 65 20 48 45 4c 50 20 3c 43 4f 4d 4d 41     type HELP <COMMA
     880:	4e 44 3e 0a 0d 2d 2d 2d 2d 2d 2d 2d 2d 2d 2d 2d     ND>..-----------
     890:	2d 2d 2d 2d 2d 2d 2d 2d 2d 2d 2d 2d 2d 2d 2d 2d     ----------------
     8a0:	2d 2d 2d 2d 2d 2d 2d 2d 2d 2d 2d 2d 2d 2d 2d 2d     ----------------
     8b0:	2d 2d 2d 2d 2d 2d 2d 2d 2d 2d 2d 2d 2d 2d 2d 2d     ----------------
     8c0:	2d 2d 2d 2d 2d 2d 2d 2d 2d 2d 2d 2d 2d 2d 2d 2d     ----------------
     8d0:	2d 2d 2d 2d 2d 2d 2d 2d 2d 2d 2d 2d 2d 2d 2d 2d     ----------------
     8e0:	0a 0d 00                                            ...

000008e3 <__c.2531>:
     8e3:	4f 46 46 00                                         OFF.

000008e7 <__c.2529>:
     8e7:	4f 4e 00                                            ON.

000008ea <__c.2527>:
     8ea:	54 57 4f 43 55 50 00                                TWOCUP.

000008f1 <__c.2525>:
     8f1:	4f 4e 45 43 55 50 00                                ONECUP.

000008f8 <__c.2522>:
     8f8:	50 4f 57 45 52 00                                   POWER.

000008fe <__c.2520>:
     8fe:	4d 41 4b 45 00                                      MAKE.

00000903 <__c.2518>:
     903:	45 43 48 4f 00                                      ECHO.

00000908 <__c.2516>:
     908:	53 54 42 59 54 45 4d 50 00                          STBYTEMP.

00000911 <__c.2514>:
     911:	41 55 54 4f 4f 46 46 00                             AUTOOFF.

00000919 <__c.2512>:
     919:	4c 45 56 45 4c 00                                   LEVEL.

0000091f <__c.2510>:
     91f:	42 4f 49 4c 45 52 54 4d 50 00                       BOILERTMP.

00000929 <__c.2508>:
     929:	43 55 52 50 57 52 00                                CURPWR.

00000930 <__c.2506>:
     930:	43 48 50 52 47 00                                   CHPRG.

00000936 <__c.2504>:
     936:	50 52 47 00                                         PRG.

0000093a <__c.2502>:
     93a:	57 41 49 54 00                                      WAIT.

0000093f <__c.2500>:
     93f:	57 41 54 45 52 00                                   WATER.

00000945 <__c.2498>:
     945:	50 52 57 41 00                                      PRWA.

0000094a <__c.2496>:
     94a:	54 45 4d 50 00                                      TEMP.

0000094f <__c.2492>:
     94f:	42 45 45 52 00                                      BEER.

00000954 <__c.2490>:
     954:	48 45 4c 50 00                                      HELP.

00000959 <__c.2488>:
     959:	43 4d 44 00                                         CMD.

0000095d <__c.2486>:
     95d:	47 45 54 00                                         GET.

00000961 <__c.2484>:
     961:	53 45 54 00                                         SET.

00000965 <__c.2452>:
     965:	25 63 00                                            %c.

00000968 <MagicFlashKey>:
     968:	65 48 61 4a 6f 00                                   eHaJo.

0000096e <__ctors_end>:
     96e:	11 24       	eor	r1, r1
     970:	1f be       	out	0x3f, r1	; 63
     972:	cf ef       	ldi	r28, 0xFF	; 255
     974:	d4 e0       	ldi	r29, 0x04	; 4
     976:	de bf       	out	0x3e, r29	; 62
     978:	cd bf       	out	0x3d, r28	; 61

0000097a <__do_copy_data>:
     97a:	11 e0       	ldi	r17, 0x01	; 1
     97c:	a0 e0       	ldi	r26, 0x00	; 0
     97e:	b1 e0       	ldi	r27, 0x01	; 1
     980:	e2 ea       	ldi	r30, 0xA2	; 162
     982:	f4 e4       	ldi	r31, 0x44	; 68
     984:	02 c0       	rjmp	.+4      	; 0x98a <__do_copy_data+0x10>
     986:	05 90       	lpm	r0, Z+
     988:	0d 92       	st	X+, r0
     98a:	a0 3d       	cpi	r26, 0xD0	; 208
     98c:	b1 07       	cpc	r27, r17
     98e:	d9 f7       	brne	.-10     	; 0x986 <__do_copy_data+0xc>

00000990 <__do_clear_bss>:
     990:	22 e0       	ldi	r18, 0x02	; 2
     992:	a0 ed       	ldi	r26, 0xD0	; 208
     994:	b1 e0       	ldi	r27, 0x01	; 1
     996:	01 c0       	rjmp	.+2      	; 0x99a <.do_clear_bss_start>

00000998 <.do_clear_bss_loop>:
     998:	1d 92       	st	X+, r1

0000099a <.do_clear_bss_start>:
     99a:	ad 3c       	cpi	r26, 0xCD	; 205
     99c:	b2 07       	cpc	r27, r18
     99e:	e1 f7       	brne	.-8      	; 0x998 <.do_clear_bss_loop>
     9a0:	0e 94 5d 1e 	call	0x3cba	; 0x3cba <main>
     9a4:	0c 94 4f 22 	jmp	0x449e	; 0x449e <_exit>

000009a8 <__bad_interrupt>:
     9a8:	2b cb       	rjmp	.-2474   	; 0x0 <__vectors>

000009aa <i2c_delay_T2>:
     9aa:	8f 93       	push	r24
     9ac:	87 ef       	ldi	r24, 0xF7	; 247
     9ae:	00 00       	nop
     9b0:	01 97       	sbiw	r24, 0x01	; 1
     9b2:	f1 f7       	brne	.-4      	; 0x9b0 <i2c_delay_T2+0x6>
     9b4:	8f 91       	pop	r24
     9b6:	08 95       	ret

000009b8 <i2c_init>:
     9b8:	3d 98       	cbi	0x07, 5	; 7
     9ba:	3c 9a       	sbi	0x07, 4	; 7
     9bc:	44 9a       	sbi	0x08, 4	; 8
     9be:	45 98       	cbi	0x08, 5	; 8
     9c0:	08 95       	ret

000009c2 <i2c_start>:
     9c2:	3d 9a       	sbi	0x07, 5	; 7
     9c4:	f2 df       	rcall	.-28     	; 0x9aa <i2c_delay_T2>
     9c6:	1d c0       	rjmp	.+58     	; 0xa02 <i2c_write>
     9c8:	08 95       	ret

000009ca <i2c_rep_start>:
     9ca:	44 98       	cbi	0x08, 4	; 8
     9cc:	ee df       	rcall	.-36     	; 0x9aa <i2c_delay_T2>
     9ce:	3d 98       	cbi	0x07, 5	; 7
     9d0:	ec df       	rcall	.-40     	; 0x9aa <i2c_delay_T2>
     9d2:	44 9a       	sbi	0x08, 4	; 8
     9d4:	ea df       	rcall	.-44     	; 0x9aa <i2c_delay_T2>
     9d6:	3d 9a       	sbi	0x07, 5	; 7
     9d8:	e8 df       	rcall	.-48     	; 0x9aa <i2c_delay_T2>
     9da:	13 c0       	rjmp	.+38     	; 0xa02 <i2c_write>
     9dc:	08 95       	ret

000009de <i2c_start_wait>:
     9de:	08 2e       	mov	r0, r24

000009e0 <i2c_start_wait1>:
     9e0:	3d 9a       	sbi	0x07, 5	; 7
     9e2:	e3 df       	rcall	.-58     	; 0x9aa <i2c_delay_T2>
     9e4:	80 2d       	mov	r24, r0
     9e6:	0d d0       	rcall	.+26     	; 0xa02 <i2c_write>
     9e8:	88 23       	and	r24, r24
     9ea:	11 f0       	breq	.+4      	; 0x9f0 <i2c_start_wait_done>
     9ec:	02 d0       	rcall	.+4      	; 0x9f2 <i2c_stop>
     9ee:	f8 cf       	rjmp	.-16     	; 0x9e0 <i2c_start_wait1>

000009f0 <i2c_start_wait_done>:
     9f0:	08 95       	ret

000009f2 <i2c_stop>:
     9f2:	44 98       	cbi	0x08, 4	; 8
     9f4:	3d 9a       	sbi	0x07, 5	; 7
     9f6:	d9 df       	rcall	.-78     	; 0x9aa <i2c_delay_T2>
     9f8:	44 9a       	sbi	0x08, 4	; 8
     9fa:	d7 df       	rcall	.-82     	; 0x9aa <i2c_delay_T2>
     9fc:	3d 98       	cbi	0x07, 5	; 7
     9fe:	d5 cf       	rjmp	.-86     	; 0x9aa <i2c_delay_T2>
     a00:	08 95       	ret

00000a02 <i2c_write>:
     a02:	08 94       	sec
     a04:	88 1f       	adc	r24, r24
     a06:	01 c0       	rjmp	.+2      	; 0xa0a <i2c_write_first>

00000a08 <i2c_write_bit>:
     a08:	88 0f       	add	r24, r24

00000a0a <i2c_write_first>:
     a0a:	59 f0       	breq	.+22     	; 0xa22 <i2c_get_ack>
     a0c:	44 98       	cbi	0x08, 4	; 8
     a0e:	18 f4       	brcc	.+6      	; 0xa16 <i2c_write_low>
     a10:	00 00       	nop
     a12:	3d 98       	cbi	0x07, 5	; 7
     a14:	02 c0       	rjmp	.+4      	; 0xa1a <i2c_write_high>

00000a16 <i2c_write_low>:
     a16:	3d 9a       	sbi	0x07, 5	; 7
     a18:	00 c0       	rjmp	.+0      	; 0xa1a <i2c_write_high>

00000a1a <i2c_write_high>:
     a1a:	c7 df       	rcall	.-114    	; 0x9aa <i2c_delay_T2>
     a1c:	44 9a       	sbi	0x08, 4	; 8
     a1e:	c5 df       	rcall	.-118    	; 0x9aa <i2c_delay_T2>
     a20:	f3 cf       	rjmp	.-26     	; 0xa08 <i2c_write_bit>

00000a22 <i2c_get_ack>:
     a22:	44 98       	cbi	0x08, 4	; 8
     a24:	3d 98       	cbi	0x07, 5	; 7
     a26:	c1 df       	rcall	.-126    	; 0x9aa <i2c_delay_T2>
     a28:	44 9a       	sbi	0x08, 4	; 8

00000a2a <i2c_ack_wait>:
     a2a:	88 27       	eor	r24, r24
     a2c:	35 99       	sbic	0x06, 5	; 6
     a2e:	81 e0       	ldi	r24, 0x01	; 1
     a30:	bc df       	rcall	.-136    	; 0x9aa <i2c_delay_T2>
     a32:	99 27       	eor	r25, r25
     a34:	08 95       	ret

00000a36 <i2c_readNak>:
     a36:	88 27       	eor	r24, r24
     a38:	01 c0       	rjmp	.+2      	; 0xa3c <i2c_read>

00000a3a <i2c_readAck>:
     a3a:	81 e0       	ldi	r24, 0x01	; 1

00000a3c <i2c_read>:
     a3c:	71 e0       	ldi	r23, 0x01	; 1

00000a3e <i2c_read_bit>:
     a3e:	44 98       	cbi	0x08, 4	; 8
     a40:	3d 98       	cbi	0x07, 5	; 7
     a42:	b3 df       	rcall	.-154    	; 0x9aa <i2c_delay_T2>
     a44:	44 9a       	sbi	0x08, 4	; 8
     a46:	b1 df       	rcall	.-158    	; 0x9aa <i2c_delay_T2>

00000a48 <i2c_read_stretch>:
     a48:	ff cf       	rjmp	.-2      	; 0xa48 <i2c_read_stretch>
     a4a:	88 94       	clc
     a4c:	35 99       	sbic	0x06, 5	; 6
     a4e:	08 94       	sec
     a50:	77 1f       	adc	r23, r23
     a52:	a8 f7       	brcc	.-22     	; 0xa3e <i2c_read_bit>

00000a54 <i2c_put_ack>:
     a54:	44 98       	cbi	0x08, 4	; 8
     a56:	81 30       	cpi	r24, 0x01	; 1
     a58:	11 f0       	breq	.+4      	; 0xa5e <i2c_put_ack_low>
     a5a:	3d 98       	cbi	0x07, 5	; 7
     a5c:	01 c0       	rjmp	.+2      	; 0xa60 <i2c_put_ack_high>

00000a5e <i2c_put_ack_low>:
     a5e:	3d 9a       	sbi	0x07, 5	; 7

00000a60 <i2c_put_ack_high>:
     a60:	a4 df       	rcall	.-184    	; 0x9aa <i2c_delay_T2>
     a62:	44 9a       	sbi	0x08, 4	; 8

00000a64 <i2c_put_ack_wait>:
     a64:	ff cf       	rjmp	.-2      	; 0xa64 <i2c_put_ack_wait>
     a66:	a1 df       	rcall	.-190    	; 0x9aa <i2c_delay_T2>
     a68:	87 2f       	mov	r24, r23
     a6a:	99 27       	eor	r25, r25
     a6c:	08 95       	ret

00000a6e <CALLBACK_USB_GetDescriptor>:
	const uint8_t  DescriptorNumber = (wValue & 0xFF);

	const void* Address = NULL;
	uint16_t    Size    = NO_DESCRIPTOR;

	switch (DescriptorType)
     a6e:	29 2f       	mov	r18, r25
     a70:	33 27       	eor	r19, r19
     a72:	22 30       	cpi	r18, 0x02	; 2
     a74:	31 05       	cpc	r19, r1
     a76:	59 f0       	breq	.+22     	; 0xa8e <CALLBACK_USB_GetDescriptor+0x20>
     a78:	23 30       	cpi	r18, 0x03	; 3
     a7a:	31 05       	cpc	r19, r1
     a7c:	69 f0       	breq	.+26     	; 0xa98 <CALLBACK_USB_GetDescriptor+0x2a>
     a7e:	21 30       	cpi	r18, 0x01	; 1
     a80:	31 05       	cpc	r19, r1
     a82:	e9 f4       	brne	.+58     	; 0xabe <CALLBACK_USB_GetDescriptor+0x50>
	{
		case DTYPE_Device:
			Address = &DeviceDescriptor;
			Size    = sizeof(USB_Descriptor_Device_t);
     a84:	82 e1       	ldi	r24, 0x12	; 18
     a86:	90 e0       	ldi	r25, 0x00	; 0
	uint16_t    Size    = NO_DESCRIPTOR;

	switch (DescriptorType)
	{
		case DTYPE_Device:
			Address = &DeviceDescriptor;
     a88:	2e ee       	ldi	r18, 0xEE	; 238
     a8a:	30 e0       	ldi	r19, 0x00	; 0
     a8c:	1c c0       	rjmp	.+56     	; 0xac6 <CALLBACK_USB_GetDescriptor+0x58>
			Size    = sizeof(USB_Descriptor_Device_t);
			break;
		case DTYPE_Configuration:
			Address = &ConfigurationDescriptor;
			Size    = sizeof(USB_Descriptor_Configuration_t);
     a8e:	8e e3       	ldi	r24, 0x3E	; 62
     a90:	90 e0       	ldi	r25, 0x00	; 0
		case DTYPE_Device:
			Address = &DeviceDescriptor;
			Size    = sizeof(USB_Descriptor_Device_t);
			break;
		case DTYPE_Configuration:
			Address = &ConfigurationDescriptor;
     a92:	20 eb       	ldi	r18, 0xB0	; 176
     a94:	30 e0       	ldi	r19, 0x00	; 0
			Size    = sizeof(USB_Descriptor_Configuration_t);
			break;
     a96:	17 c0       	rjmp	.+46     	; 0xac6 <CALLBACK_USB_GetDescriptor+0x58>
		case DTYPE_String:
			switch (DescriptorNumber)
     a98:	99 27       	eor	r25, r25
     a9a:	81 30       	cpi	r24, 0x01	; 1
     a9c:	91 05       	cpc	r25, r1
     a9e:	49 f0       	breq	.+18     	; 0xab2 <CALLBACK_USB_GetDescriptor+0x44>
     aa0:	28 f0       	brcs	.+10     	; 0xaac <CALLBACK_USB_GetDescriptor+0x3e>
     aa2:	02 97       	sbiw	r24, 0x02	; 2
     aa4:	61 f4       	brne	.+24     	; 0xabe <CALLBACK_USB_GetDescriptor+0x50>
					Address = &ManufacturerString;
					Size    = pgm_read_byte(&ManufacturerString.Header.Size);
					break;
				case STRING_ID_Product:
					Address = &ProductString;
					Size    = pgm_read_byte(&ProductString.Header.Size);
     aa6:	e4 e7       	ldi	r30, 0x74	; 116
     aa8:	f0 e0       	ldi	r31, 0x00	; 0
     aaa:	05 c0       	rjmp	.+10     	; 0xab6 <CALLBACK_USB_GetDescriptor+0x48>
		case DTYPE_String:
			switch (DescriptorNumber)
			{
				case STRING_ID_Language:
					Address = &LanguageString;
					Size    = pgm_read_byte(&LanguageString.Header.Size);
     aac:	ec ea       	ldi	r30, 0xAC	; 172
     aae:	f0 e0       	ldi	r31, 0x00	; 0
     ab0:	02 c0       	rjmp	.+4      	; 0xab6 <CALLBACK_USB_GetDescriptor+0x48>
					break;
				case STRING_ID_Manufacturer:
					Address = &ManufacturerString;
					Size    = pgm_read_byte(&ManufacturerString.Header.Size);
     ab2:	e2 e9       	ldi	r30, 0x92	; 146
     ab4:	f0 e0       	ldi	r31, 0x00	; 0
					break;
				case STRING_ID_Product:
					Address = &ProductString;
					Size    = pgm_read_byte(&ProductString.Header.Size);
     ab6:	84 91       	lpm	r24, Z
     ab8:	90 e0       	ldi	r25, 0x00	; 0
				case STRING_ID_Manufacturer:
					Address = &ManufacturerString;
					Size    = pgm_read_byte(&ManufacturerString.Header.Size);
					break;
				case STRING_ID_Product:
					Address = &ProductString;
     aba:	9f 01       	movw	r18, r30
					Size    = pgm_read_byte(&ProductString.Header.Size);
					break;
     abc:	04 c0       	rjmp	.+8      	; 0xac6 <CALLBACK_USB_GetDescriptor+0x58>
{
	const uint8_t  DescriptorType   = (wValue >> 8);
	const uint8_t  DescriptorNumber = (wValue & 0xFF);

	const void* Address = NULL;
	uint16_t    Size    = NO_DESCRIPTOR;
     abe:	80 e0       	ldi	r24, 0x00	; 0
     ac0:	90 e0       	ldi	r25, 0x00	; 0
                                    const void** const DescriptorAddress)
{
	const uint8_t  DescriptorType   = (wValue >> 8);
	const uint8_t  DescriptorNumber = (wValue & 0xFF);

	const void* Address = NULL;
     ac2:	20 e0       	ldi	r18, 0x00	; 0
     ac4:	30 e0       	ldi	r19, 0x00	; 0
			}

			break;
	}

	*DescriptorAddress = Address;
     ac6:	fa 01       	movw	r30, r20
     ac8:	31 83       	std	Z+1, r19	; 0x01
     aca:	20 83       	st	Z, r18
	return Size;
}
     acc:	08 95       	ret

00000ace <GPIO_Init>:
     ace:	59 9a       	sbi	0x0b, 1	; 11
     ad0:	51 9a       	sbi	0x0a, 1	; 10
     ad2:	58 9a       	sbi	0x0b, 0	; 11
     ad4:	50 9a       	sbi	0x0a, 0	; 10
     ad6:	5f 9a       	sbi	0x0b, 7	; 11
     ad8:	57 9a       	sbi	0x0a, 7	; 10
     ada:	2c 9a       	sbi	0x05, 4	; 5
     adc:	24 9a       	sbi	0x04, 4	; 4
     ade:	2e 9a       	sbi	0x05, 6	; 5
     ae0:	26 9a       	sbi	0x04, 6	; 4
     ae2:	20 98       	cbi	0x04, 0	; 4
     ae4:	28 9a       	sbi	0x05, 0	; 5
     ae6:	25 98       	cbi	0x04, 5	; 4
     ae8:	2d 9a       	sbi	0x05, 5	; 5
     aea:	27 98       	cbi	0x04, 7	; 4
     aec:	2f 9a       	sbi	0x05, 7	; 5
     aee:	3e 98       	cbi	0x07, 6	; 7
     af0:	46 9a       	sbi	0x08, 6	; 8
     af2:	3f 98       	cbi	0x07, 7	; 7
     af4:	47 9a       	sbi	0x08, 7	; 8
     af6:	08 95       	ret

00000af8 <voSetLedState>:
     af8:	81 30       	cpi	r24, 0x01	; 1
     afa:	81 f0       	breq	.+32     	; 0xb1c <voSetLedState+0x24>
     afc:	18 f0       	brcs	.+6      	; 0xb04 <voSetLedState+0xc>
     afe:	82 30       	cpi	r24, 0x02	; 2
     b00:	c1 f0       	breq	.+48     	; 0xb32 <voSetLedState+0x3a>
     b02:	08 95       	ret
     b04:	61 11       	cpse	r22, r1
     b06:	02 c0       	rjmp	.+4      	; 0xb0c <voSetLedState+0x14>
     b08:	5f 98       	cbi	0x0b, 7	; 11
     b0a:	08 95       	ret
     b0c:	61 30       	cpi	r22, 0x01	; 1
     b0e:	11 f4       	brne	.+4      	; 0xb14 <voSetLedState+0x1c>
     b10:	5f 9a       	sbi	0x0b, 7	; 11
     b12:	08 95       	ret
     b14:	8b b1       	in	r24, 0x0b	; 11
     b16:	80 58       	subi	r24, 0x80	; 128
     b18:	8b b9       	out	0x0b, r24	; 11
     b1a:	08 95       	ret
     b1c:	61 11       	cpse	r22, r1
     b1e:	02 c0       	rjmp	.+4      	; 0xb24 <voSetLedState+0x2c>
     b20:	2c 98       	cbi	0x05, 4	; 5
     b22:	08 95       	ret
     b24:	61 30       	cpi	r22, 0x01	; 1
     b26:	11 f4       	brne	.+4      	; 0xb2c <voSetLedState+0x34>
     b28:	2c 9a       	sbi	0x05, 4	; 5
     b2a:	08 95       	ret
     b2c:	95 b1       	in	r25, 0x05	; 5
     b2e:	80 e1       	ldi	r24, 0x10	; 16
     b30:	0a c0       	rjmp	.+20     	; 0xb46 <voSetLedState+0x4e>
     b32:	61 11       	cpse	r22, r1
     b34:	02 c0       	rjmp	.+4      	; 0xb3a <voSetLedState+0x42>
     b36:	2e 98       	cbi	0x05, 6	; 5
     b38:	08 95       	ret
     b3a:	61 30       	cpi	r22, 0x01	; 1
     b3c:	11 f4       	brne	.+4      	; 0xb42 <voSetLedState+0x4a>
     b3e:	2e 9a       	sbi	0x05, 6	; 5
     b40:	08 95       	ret
     b42:	95 b1       	in	r25, 0x05	; 5
     b44:	80 e4       	ldi	r24, 0x40	; 64
     b46:	89 27       	eor	r24, r25
     b48:	85 b9       	out	0x05, r24	; 5
     b4a:	08 95       	ret

00000b4c <emGetLedState>:
     b4c:	81 30       	cpi	r24, 0x01	; 1
     b4e:	69 f0       	breq	.+26     	; 0xb6a <emGetLedState+0x1e>
     b50:	38 f0       	brcs	.+14     	; 0xb60 <emGetLedState+0x14>
     b52:	82 30       	cpi	r24, 0x02	; 2
     b54:	71 f4       	brne	.+28     	; 0xb72 <emGetLedState+0x26>
     b56:	83 b1       	in	r24, 0x03	; 3
     b58:	86 fb       	bst	r24, 6
     b5a:	88 27       	eor	r24, r24
     b5c:	80 f9       	bld	r24, 0
     b5e:	08 95       	ret
     b60:	89 b1       	in	r24, 0x09	; 9
     b62:	88 1f       	adc	r24, r24
     b64:	88 27       	eor	r24, r24
     b66:	88 1f       	adc	r24, r24
     b68:	08 95       	ret
     b6a:	83 b1       	in	r24, 0x03	; 3
     b6c:	82 95       	swap	r24
     b6e:	81 70       	andi	r24, 0x01	; 1
     b70:	08 95       	ret
     b72:	81 e0       	ldi	r24, 0x01	; 1
     b74:	08 95       	ret

00000b76 <emGetSwitchState>:
     b76:	81 30       	cpi	r24, 0x01	; 1
     b78:	59 f0       	breq	.+22     	; 0xb90 <emGetSwitchState+0x1a>
     b7a:	38 f0       	brcs	.+14     	; 0xb8a <emGetSwitchState+0x14>
     b7c:	82 30       	cpi	r24, 0x02	; 2
     b7e:	69 f4       	brne	.+26     	; 0xb9a <emGetSwitchState+0x24>
     b80:	83 b1       	in	r24, 0x03	; 3
     b82:	88 1f       	adc	r24, r24
     b84:	88 27       	eor	r24, r24
     b86:	88 1f       	adc	r24, r24
     b88:	08 95       	ret
     b8a:	83 b1       	in	r24, 0x03	; 3
     b8c:	81 70       	andi	r24, 0x01	; 1
     b8e:	08 95       	ret
     b90:	83 b1       	in	r24, 0x03	; 3
     b92:	85 fb       	bst	r24, 5
     b94:	88 27       	eor	r24, r24
     b96:	80 f9       	bld	r24, 0
     b98:	08 95       	ret
     b9a:	81 e0       	ldi	r24, 0x01	; 1
     b9c:	08 95       	ret

00000b9e <emGetHallSwitchState>:
     b9e:	88 23       	and	r24, r24
     ba0:	39 f0       	breq	.+14     	; 0xbb0 <emGetHallSwitchState+0x12>
     ba2:	81 30       	cpi	r24, 0x01	; 1
     ba4:	51 f4       	brne	.+20     	; 0xbba <emGetHallSwitchState+0x1c>
     ba6:	86 b1       	in	r24, 0x06	; 6
     ba8:	88 1f       	adc	r24, r24
     baa:	88 27       	eor	r24, r24
     bac:	88 1f       	adc	r24, r24
     bae:	08 95       	ret
     bb0:	86 b1       	in	r24, 0x06	; 6
     bb2:	86 fb       	bst	r24, 6
     bb4:	88 27       	eor	r24, r24
     bb6:	80 f9       	bld	r24, 0
     bb8:	08 95       	ret
     bba:	81 e0       	ldi	r24, 0x01	; 1
     bbc:	08 95       	ret

00000bbe <voSetHeaterPowerState>:
     bbe:	81 11       	cpse	r24, r1
     bc0:	02 c0       	rjmp	.+4      	; 0xbc6 <voSetHeaterPowerState+0x8>
     bc2:	59 9a       	sbi	0x0b, 1	; 11
     bc4:	08 95       	ret
     bc6:	59 98       	cbi	0x0b, 1	; 11
     bc8:	08 95       	ret

00000bca <emGetHeaterPowerState>:
     bca:	29 b1       	in	r18, 0x09	; 9
     bcc:	21 fb       	bst	r18, 1
     bce:	88 27       	eor	r24, r24
     bd0:	80 f9       	bld	r24, 0
     bd2:	90 e0       	ldi	r25, 0x00	; 0
     bd4:	21 e0       	ldi	r18, 0x01	; 1
     bd6:	82 27       	eor	r24, r18
     bd8:	81 70       	andi	r24, 0x01	; 1
     bda:	08 95       	ret

00000bdc <voSetPumpPowerState>:
     bdc:	81 11       	cpse	r24, r1
     bde:	02 c0       	rjmp	.+4      	; 0xbe4 <voSetPumpPowerState+0x8>
     be0:	58 9a       	sbi	0x0b, 0	; 11
     be2:	08 95       	ret
     be4:	58 98       	cbi	0x0b, 0	; 11
     be6:	08 95       	ret

00000be8 <emGetPumpPowerState>:
     be8:	89 b1       	in	r24, 0x09	; 9
     bea:	80 95       	com	r24
     bec:	81 70       	andi	r24, 0x01	; 1
     bee:	08 95       	ret

00000bf0 <voMCP3202_Init>:
     bf0:	83 c1       	rjmp	.+774    	; 0xef8 <USART_SPI_init>

00000bf2 <u16MCP3202_ReadChannel>:
     bf2:	cf 93       	push	r28
     bf4:	df 93       	push	r29
     bf6:	c8 2f       	mov	r28, r24
     bf8:	7b d1       	rcall	.+758    	; 0xef0 <USART_Chip_Select>
     bfa:	81 e0       	ldi	r24, 0x01	; 1
     bfc:	90 d1       	rcall	.+800    	; 0xf1e <USART_SPI_Transmitt>
     bfe:	c1 11       	cpse	r28, r1
     c00:	02 c0       	rjmp	.+4      	; 0xc06 <u16MCP3202_ReadChannel+0x14>
     c02:	80 ee       	ldi	r24, 0xE0	; 224
     c04:	01 c0       	rjmp	.+2      	; 0xc08 <u16MCP3202_ReadChannel+0x16>
     c06:	80 ea       	ldi	r24, 0xA0	; 160
     c08:	8a d1       	rcall	.+788    	; 0xf1e <USART_SPI_Transmitt>
     c0a:	c8 2f       	mov	r28, r24
     c0c:	d0 e0       	ldi	r29, 0x00	; 0
     c0e:	dc 2f       	mov	r29, r28
     c10:	cc 27       	eor	r28, r28
     c12:	8a ea       	ldi	r24, 0xAA	; 170
     c14:	84 d1       	rcall	.+776    	; 0xf1e <USART_SPI_Transmitt>
     c16:	c8 2b       	or	r28, r24
     c18:	6d d1       	rcall	.+730    	; 0xef4 <USART_Chip_Deselect>
     c1a:	ce 01       	movw	r24, r28
     c1c:	24 e0       	ldi	r18, 0x04	; 4
     c1e:	88 0f       	add	r24, r24
     c20:	99 1f       	adc	r25, r25
     c22:	2a 95       	dec	r18
     c24:	e1 f7       	brne	.-8      	; 0xc1e <u16MCP3202_ReadChannel+0x2c>
     c26:	df 91       	pop	r29
     c28:	cf 91       	pop	r28
     c2a:	08 95       	ret

00000c2c <SBNT_SetSCLtoInput>:
     c2c:	3c 98       	cbi	0x07, 4	; 7
     c2e:	44 98       	cbi	0x08, 4	; 8
     c30:	34 98       	cbi	0x06, 4	; 6
     c32:	08 95       	ret

00000c34 <SBNT_emGetState>:
     c34:	86 b1       	in	r24, 0x06	; 6
     c36:	82 95       	swap	r24
     c38:	81 70       	andi	r24, 0x01	; 1
     c3a:	08 95       	ret

00000c3c <SDP_voSetIconVisibility>:
     c3c:	84 30       	cpi	r24, 0x04	; 4
     c3e:	a1 f1       	breq	.+104    	; 0xca8 <SDP_voSetIconVisibility+0x6c>
     c40:	48 f4       	brcc	.+18     	; 0xc54 <SDP_voSetIconVisibility+0x18>
     c42:	81 30       	cpi	r24, 0x01	; 1
     c44:	11 f1       	breq	.+68     	; 0xc8a <SDP_voSetIconVisibility+0x4e>
     c46:	90 f0       	brcs	.+36     	; 0xc6c <SDP_voSetIconVisibility+0x30>
     c48:	82 30       	cpi	r24, 0x02	; 2
     c4a:	09 f4       	brne	.+2      	; 0xc4e <SDP_voSetIconVisibility+0x12>
     c4c:	4a c0       	rjmp	.+148    	; 0xce2 <SDP_voSetIconVisibility+0xa6>
     c4e:	83 30       	cpi	r24, 0x03	; 3
     c50:	c9 f1       	breq	.+114    	; 0xcc4 <SDP_voSetIconVisibility+0x88>
     c52:	08 95       	ret
     c54:	86 30       	cpi	r24, 0x06	; 6
     c56:	09 f4       	brne	.+2      	; 0xc5a <SDP_voSetIconVisibility+0x1e>
     c58:	62 c0       	rjmp	.+196    	; 0xd1e <SDP_voSetIconVisibility+0xe2>
     c5a:	08 f4       	brcc	.+2      	; 0xc5e <SDP_voSetIconVisibility+0x22>
     c5c:	51 c0       	rjmp	.+162    	; 0xd00 <SDP_voSetIconVisibility+0xc4>
     c5e:	87 30       	cpi	r24, 0x07	; 7
     c60:	09 f4       	brne	.+2      	; 0xc64 <SDP_voSetIconVisibility+0x28>
     c62:	6c c0       	rjmp	.+216    	; 0xd3c <SDP_voSetIconVisibility+0x100>
     c64:	88 30       	cpi	r24, 0x08	; 8
     c66:	09 f4       	brne	.+2      	; 0xc6a <SDP_voSetIconVisibility+0x2e>
     c68:	78 c0       	rjmp	.+240    	; 0xd5a <SDP_voSetIconVisibility+0x11e>
     c6a:	08 95       	ret
     c6c:	80 91 d0 01 	lds	r24, 0x01D0	; 0x8001d0 <__data_end>
     c70:	90 91 d1 01 	lds	r25, 0x01D1	; 0x8001d1 <__data_end+0x1>
     c74:	61 11       	cpse	r22, r1
     c76:	02 c0       	rjmp	.+4      	; 0xc7c <SDP_voSetIconVisibility+0x40>
     c78:	80 62       	ori	r24, 0x20	; 32
     c7a:	7c c0       	rjmp	.+248    	; 0xd74 <SDP_voSetIconVisibility+0x138>
     c7c:	62 30       	cpi	r22, 0x02	; 2
     c7e:	19 f4       	brne	.+6      	; 0xc86 <SDP_voSetIconVisibility+0x4a>
     c80:	20 e2       	ldi	r18, 0x20	; 32
     c82:	82 27       	eor	r24, r18
     c84:	77 c0       	rjmp	.+238    	; 0xd74 <SDP_voSetIconVisibility+0x138>
     c86:	8f 7d       	andi	r24, 0xDF	; 223
     c88:	75 c0       	rjmp	.+234    	; 0xd74 <SDP_voSetIconVisibility+0x138>
     c8a:	80 91 d0 01 	lds	r24, 0x01D0	; 0x8001d0 <__data_end>
     c8e:	90 91 d1 01 	lds	r25, 0x01D1	; 0x8001d1 <__data_end+0x1>
     c92:	61 11       	cpse	r22, r1
     c94:	02 c0       	rjmp	.+4      	; 0xc9a <SDP_voSetIconVisibility+0x5e>
     c96:	84 60       	ori	r24, 0x04	; 4
     c98:	6d c0       	rjmp	.+218    	; 0xd74 <SDP_voSetIconVisibility+0x138>
     c9a:	62 30       	cpi	r22, 0x02	; 2
     c9c:	19 f4       	brne	.+6      	; 0xca4 <SDP_voSetIconVisibility+0x68>
     c9e:	24 e0       	ldi	r18, 0x04	; 4
     ca0:	82 27       	eor	r24, r18
     ca2:	68 c0       	rjmp	.+208    	; 0xd74 <SDP_voSetIconVisibility+0x138>
     ca4:	8b 7f       	andi	r24, 0xFB	; 251
     ca6:	66 c0       	rjmp	.+204    	; 0xd74 <SDP_voSetIconVisibility+0x138>
     ca8:	80 91 d0 01 	lds	r24, 0x01D0	; 0x8001d0 <__data_end>
     cac:	90 91 d1 01 	lds	r25, 0x01D1	; 0x8001d1 <__data_end+0x1>
     cb0:	61 11       	cpse	r22, r1
     cb2:	02 c0       	rjmp	.+4      	; 0xcb8 <SDP_voSetIconVisibility+0x7c>
     cb4:	80 68       	ori	r24, 0x80	; 128
     cb6:	5e c0       	rjmp	.+188    	; 0xd74 <SDP_voSetIconVisibility+0x138>
     cb8:	62 30       	cpi	r22, 0x02	; 2
     cba:	11 f4       	brne	.+4      	; 0xcc0 <SDP_voSetIconVisibility+0x84>
     cbc:	80 58       	subi	r24, 0x80	; 128
     cbe:	5a c0       	rjmp	.+180    	; 0xd74 <SDP_voSetIconVisibility+0x138>
     cc0:	8f 77       	andi	r24, 0x7F	; 127
     cc2:	58 c0       	rjmp	.+176    	; 0xd74 <SDP_voSetIconVisibility+0x138>
     cc4:	80 91 d0 01 	lds	r24, 0x01D0	; 0x8001d0 <__data_end>
     cc8:	90 91 d1 01 	lds	r25, 0x01D1	; 0x8001d1 <__data_end+0x1>
     ccc:	61 11       	cpse	r22, r1
     cce:	02 c0       	rjmp	.+4      	; 0xcd4 <SDP_voSetIconVisibility+0x98>
     cd0:	80 64       	ori	r24, 0x40	; 64
     cd2:	50 c0       	rjmp	.+160    	; 0xd74 <SDP_voSetIconVisibility+0x138>
     cd4:	62 30       	cpi	r22, 0x02	; 2
     cd6:	19 f4       	brne	.+6      	; 0xcde <SDP_voSetIconVisibility+0xa2>
     cd8:	20 e4       	ldi	r18, 0x40	; 64
     cda:	82 27       	eor	r24, r18
     cdc:	4b c0       	rjmp	.+150    	; 0xd74 <SDP_voSetIconVisibility+0x138>
     cde:	8f 7b       	andi	r24, 0xBF	; 191
     ce0:	49 c0       	rjmp	.+146    	; 0xd74 <SDP_voSetIconVisibility+0x138>
     ce2:	80 91 d0 01 	lds	r24, 0x01D0	; 0x8001d0 <__data_end>
     ce6:	90 91 d1 01 	lds	r25, 0x01D1	; 0x8001d1 <__data_end+0x1>
     cea:	61 11       	cpse	r22, r1
     cec:	02 c0       	rjmp	.+4      	; 0xcf2 <SDP_voSetIconVisibility+0xb6>
     cee:	80 61       	ori	r24, 0x10	; 16
     cf0:	41 c0       	rjmp	.+130    	; 0xd74 <SDP_voSetIconVisibility+0x138>
     cf2:	62 30       	cpi	r22, 0x02	; 2
     cf4:	19 f4       	brne	.+6      	; 0xcfc <SDP_voSetIconVisibility+0xc0>
     cf6:	20 e1       	ldi	r18, 0x10	; 16
     cf8:	82 27       	eor	r24, r18
     cfa:	3c c0       	rjmp	.+120    	; 0xd74 <SDP_voSetIconVisibility+0x138>
     cfc:	8f 7e       	andi	r24, 0xEF	; 239
     cfe:	3a c0       	rjmp	.+116    	; 0xd74 <SDP_voSetIconVisibility+0x138>
     d00:	80 91 d0 01 	lds	r24, 0x01D0	; 0x8001d0 <__data_end>
     d04:	90 91 d1 01 	lds	r25, 0x01D1	; 0x8001d1 <__data_end+0x1>
     d08:	61 11       	cpse	r22, r1
     d0a:	02 c0       	rjmp	.+4      	; 0xd10 <SDP_voSetIconVisibility+0xd4>
     d0c:	88 60       	ori	r24, 0x08	; 8
     d0e:	32 c0       	rjmp	.+100    	; 0xd74 <SDP_voSetIconVisibility+0x138>
     d10:	62 30       	cpi	r22, 0x02	; 2
     d12:	19 f4       	brne	.+6      	; 0xd1a <SDP_voSetIconVisibility+0xde>
     d14:	28 e0       	ldi	r18, 0x08	; 8
     d16:	82 27       	eor	r24, r18
     d18:	2d c0       	rjmp	.+90     	; 0xd74 <SDP_voSetIconVisibility+0x138>
     d1a:	87 7f       	andi	r24, 0xF7	; 247
     d1c:	2b c0       	rjmp	.+86     	; 0xd74 <SDP_voSetIconVisibility+0x138>
     d1e:	80 91 d0 01 	lds	r24, 0x01D0	; 0x8001d0 <__data_end>
     d22:	90 91 d1 01 	lds	r25, 0x01D1	; 0x8001d1 <__data_end+0x1>
     d26:	61 11       	cpse	r22, r1
     d28:	02 c0       	rjmp	.+4      	; 0xd2e <SDP_voSetIconVisibility+0xf2>
     d2a:	81 60       	ori	r24, 0x01	; 1
     d2c:	23 c0       	rjmp	.+70     	; 0xd74 <SDP_voSetIconVisibility+0x138>
     d2e:	62 30       	cpi	r22, 0x02	; 2
     d30:	19 f4       	brne	.+6      	; 0xd38 <SDP_voSetIconVisibility+0xfc>
     d32:	21 e0       	ldi	r18, 0x01	; 1
     d34:	82 27       	eor	r24, r18
     d36:	1e c0       	rjmp	.+60     	; 0xd74 <SDP_voSetIconVisibility+0x138>
     d38:	8e 7f       	andi	r24, 0xFE	; 254
     d3a:	1c c0       	rjmp	.+56     	; 0xd74 <SDP_voSetIconVisibility+0x138>
     d3c:	80 91 d0 01 	lds	r24, 0x01D0	; 0x8001d0 <__data_end>
     d40:	90 91 d1 01 	lds	r25, 0x01D1	; 0x8001d1 <__data_end+0x1>
     d44:	61 11       	cpse	r22, r1
     d46:	02 c0       	rjmp	.+4      	; 0xd4c <SDP_voSetIconVisibility+0x110>
     d48:	82 60       	ori	r24, 0x02	; 2
     d4a:	14 c0       	rjmp	.+40     	; 0xd74 <SDP_voSetIconVisibility+0x138>
     d4c:	62 30       	cpi	r22, 0x02	; 2
     d4e:	19 f4       	brne	.+6      	; 0xd56 <SDP_voSetIconVisibility+0x11a>
     d50:	22 e0       	ldi	r18, 0x02	; 2
     d52:	82 27       	eor	r24, r18
     d54:	0f c0       	rjmp	.+30     	; 0xd74 <SDP_voSetIconVisibility+0x138>
     d56:	8d 7f       	andi	r24, 0xFD	; 253
     d58:	0d c0       	rjmp	.+26     	; 0xd74 <SDP_voSetIconVisibility+0x138>
     d5a:	80 91 d0 01 	lds	r24, 0x01D0	; 0x8001d0 <__data_end>
     d5e:	90 91 d1 01 	lds	r25, 0x01D1	; 0x8001d1 <__data_end+0x1>
     d62:	61 11       	cpse	r22, r1
     d64:	02 c0       	rjmp	.+4      	; 0xd6a <SDP_voSetIconVisibility+0x12e>
     d66:	90 68       	ori	r25, 0x80	; 128
     d68:	05 c0       	rjmp	.+10     	; 0xd74 <SDP_voSetIconVisibility+0x138>
     d6a:	62 30       	cpi	r22, 0x02	; 2
     d6c:	11 f4       	brne	.+4      	; 0xd72 <SDP_voSetIconVisibility+0x136>
     d6e:	90 58       	subi	r25, 0x80	; 128
     d70:	01 c0       	rjmp	.+2      	; 0xd74 <SDP_voSetIconVisibility+0x138>
     d72:	9f 77       	andi	r25, 0x7F	; 127
     d74:	90 93 d1 01 	sts	0x01D1, r25	; 0x8001d1 <__data_end+0x1>
     d78:	80 93 d0 01 	sts	0x01D0, r24	; 0x8001d0 <__data_end>
     d7c:	08 95       	ret

00000d7e <voCalcCheckSum>:
     d7e:	e0 ed       	ldi	r30, 0xD0	; 208
     d80:	f1 e0       	ldi	r31, 0x01	; 1
     d82:	80 81       	ld	r24, Z
     d84:	91 81       	ldd	r25, Z+1	; 0x01
     d86:	90 78       	andi	r25, 0x80	; 128
     d88:	91 83       	std	Z+1, r25	; 0x01
     d8a:	80 83       	st	Z, r24
     d8c:	80 81       	ld	r24, Z
     d8e:	91 81       	ldd	r25, Z+1	; 0x01
     d90:	98 2f       	mov	r25, r24
     d92:	88 27       	eor	r24, r24
     d94:	90 95       	com	r25
     d96:	20 81       	ld	r18, Z
     d98:	31 81       	ldd	r19, Z+1	; 0x01
     d9a:	88 27       	eor	r24, r24
     d9c:	9f 77       	andi	r25, 0x7F	; 127
     d9e:	82 2b       	or	r24, r18
     da0:	93 2b       	or	r25, r19
     da2:	91 83       	std	Z+1, r25	; 0x01
     da4:	80 83       	st	Z, r24
     da6:	08 95       	ret

00000da8 <SDP_voRefreshDisplay>:
     da8:	ea df       	rcall	.-44     	; 0xd7e <voCalcCheckSum>
     daa:	20 91 d0 01 	lds	r18, 0x01D0	; 0x8001d0 <__data_end>
     dae:	30 91 d1 01 	lds	r19, 0x01D1	; 0x8001d1 <__data_end+0x1>
     db2:	80 91 d2 01 	lds	r24, 0x01D2	; 0x8001d2 <__data_end+0x2>
     db6:	90 91 d3 01 	lds	r25, 0x01D3	; 0x8001d3 <__data_end+0x3>
     dba:	28 17       	cp	r18, r24
     dbc:	39 07       	cpc	r19, r25
     dbe:	a1 f0       	breq	.+40     	; 0xde8 <SDP_voRefreshDisplay+0x40>
     dc0:	fb dd       	rcall	.-1034   	; 0x9b8 <i2c_init>
     dc2:	8e e7       	ldi	r24, 0x7E	; 126
     dc4:	fe dd       	rcall	.-1028   	; 0x9c2 <i2c_start>
     dc6:	81 11       	cpse	r24, r1
     dc8:	0e c0       	rjmp	.+28     	; 0xde6 <SDP_voRefreshDisplay+0x3e>
     dca:	80 91 d0 01 	lds	r24, 0x01D0	; 0x8001d0 <__data_end>
     dce:	19 de       	rcall	.-974    	; 0xa02 <i2c_write>
     dd0:	80 91 d1 01 	lds	r24, 0x01D1	; 0x8001d1 <__data_end+0x1>
     dd4:	16 de       	rcall	.-980    	; 0xa02 <i2c_write>
     dd6:	80 91 d0 01 	lds	r24, 0x01D0	; 0x8001d0 <__data_end>
     dda:	90 91 d1 01 	lds	r25, 0x01D1	; 0x8001d1 <__data_end+0x1>
     dde:	90 93 d3 01 	sts	0x01D3, r25	; 0x8001d3 <__data_end+0x3>
     de2:	80 93 d2 01 	sts	0x01D2, r24	; 0x8001d2 <__data_end+0x2>
     de6:	05 de       	rcall	.-1014   	; 0x9f2 <i2c_stop>
     de8:	21 cf       	rjmp	.-446    	; 0xc2c <SBNT_SetSCLtoInput>

00000dea <SDP_emGetIconVisibility>:
     dea:	89 30       	cpi	r24, 0x09	; 9
     dec:	90 f4       	brcc	.+36     	; 0xe12 <SDP_emGetIconVisibility+0x28>
     dee:	40 91 d2 01 	lds	r20, 0x01D2	; 0x8001d2 <__data_end+0x2>
     df2:	50 91 d3 01 	lds	r21, 0x01D3	; 0x8001d3 <__data_end+0x3>
     df6:	21 e0       	ldi	r18, 0x01	; 1
     df8:	30 e0       	ldi	r19, 0x00	; 0
     dfa:	02 c0       	rjmp	.+4      	; 0xe00 <SDP_emGetIconVisibility+0x16>
     dfc:	22 0f       	add	r18, r18
     dfe:	33 1f       	adc	r19, r19
     e00:	8a 95       	dec	r24
     e02:	e2 f7       	brpl	.-8      	; 0xdfc <SDP_emGetIconVisibility+0x12>
     e04:	24 23       	and	r18, r20
     e06:	35 23       	and	r19, r21
     e08:	81 e0       	ldi	r24, 0x01	; 1
     e0a:	23 2b       	or	r18, r19
     e0c:	19 f0       	breq	.+6      	; 0xe14 <SDP_emGetIconVisibility+0x2a>
     e0e:	80 e0       	ldi	r24, 0x00	; 0
     e10:	08 95       	ret
     e12:	81 e0       	ldi	r24, 0x01	; 1
     e14:	08 95       	ret

00000e16 <__vector_19>:
     e16:	1f 92       	push	r1
     e18:	0f 92       	push	r0
     e1a:	0f b6       	in	r0, 0x3f	; 63
     e1c:	0f 92       	push	r0
     e1e:	11 24       	eor	r1, r1
     e20:	2f 93       	push	r18
     e22:	3f 93       	push	r19
     e24:	4f 93       	push	r20
     e26:	5f 93       	push	r21
     e28:	6f 93       	push	r22
     e2a:	7f 93       	push	r23
     e2c:	8f 93       	push	r24
     e2e:	9f 93       	push	r25
     e30:	af 93       	push	r26
     e32:	bf 93       	push	r27
     e34:	ef 93       	push	r30
     e36:	ff 93       	push	r31
     e38:	80 91 d4 01 	lds	r24, 0x01D4	; 0x8001d4 <Ticks>
     e3c:	90 91 d5 01 	lds	r25, 0x01D5	; 0x8001d5 <Ticks+0x1>
     e40:	01 96       	adiw	r24, 0x01	; 1
     e42:	90 93 d5 01 	sts	0x01D5, r25	; 0x8001d5 <Ticks+0x1>
     e46:	80 93 d4 01 	sts	0x01D4, r24	; 0x8001d4 <Ticks>
     e4a:	80 91 d4 01 	lds	r24, 0x01D4	; 0x8001d4 <Ticks>
     e4e:	90 91 d5 01 	lds	r25, 0x01D5	; 0x8001d5 <Ticks+0x1>
     e52:	80 fd       	sbrc	r24, 0
     e54:	04 c0       	rjmp	.+8      	; 0xe5e <__vector_19+0x48>
     e56:	81 e0       	ldi	r24, 0x01	; 1
     e58:	cc de       	rcall	.-616    	; 0xbf2 <u16MCP3202_ReadChannel>
     e5a:	0e 94 9b 16 	call	0x2d36	; 0x2d36 <voPWRMTR_AddNewMessurment>
     e5e:	80 91 d4 01 	lds	r24, 0x01D4	; 0x8001d4 <Ticks>
     e62:	90 91 d5 01 	lds	r25, 0x01D5	; 0x8001d5 <Ticks+0x1>
     e66:	8f 77       	andi	r24, 0x7F	; 127
     e68:	99 27       	eor	r25, r25
     e6a:	89 2b       	or	r24, r25
     e6c:	19 f4       	brne	.+6      	; 0xe74 <__vector_19+0x5e>
     e6e:	80 e0       	ldi	r24, 0x00	; 0
     e70:	c0 de       	rcall	.-640    	; 0xbf2 <u16MCP3202_ReadChannel>
     e72:	ea d0       	rcall	.+468    	; 0x1048 <voBLTMP_AddNewRawValue>
     e74:	ff 91       	pop	r31
     e76:	ef 91       	pop	r30
     e78:	bf 91       	pop	r27
     e7a:	af 91       	pop	r26
     e7c:	9f 91       	pop	r25
     e7e:	8f 91       	pop	r24
     e80:	7f 91       	pop	r23
     e82:	6f 91       	pop	r22
     e84:	5f 91       	pop	r21
     e86:	4f 91       	pop	r20
     e88:	3f 91       	pop	r19
     e8a:	2f 91       	pop	r18
     e8c:	0f 90       	pop	r0
     e8e:	0f be       	out	0x3f, r0	; 63
     e90:	0f 90       	pop	r0
     e92:	1f 90       	pop	r1
     e94:	18 95       	reti

00000e96 <__vector_17>:
     e96:	1f 92       	push	r1
     e98:	0f 92       	push	r0
     e9a:	0f b6       	in	r0, 0x3f	; 63
     e9c:	0f 92       	push	r0
     e9e:	11 24       	eor	r1, r1
     ea0:	0f 90       	pop	r0
     ea2:	0f be       	out	0x3f, r0	; 63
     ea4:	0f 90       	pop	r0
     ea6:	1f 90       	pop	r1
     ea8:	18 95       	reti

00000eaa <__vector_16>:
     eaa:	1f 92       	push	r1
     eac:	0f 92       	push	r0
     eae:	0f b6       	in	r0, 0x3f	; 63
     eb0:	0f 92       	push	r0
     eb2:	11 24       	eor	r1, r1
     eb4:	0f 90       	pop	r0
     eb6:	0f be       	out	0x3f, r0	; 63
     eb8:	0f 90       	pop	r0
     eba:	1f 90       	pop	r1
     ebc:	18 95       	reti

00000ebe <__vector_15>:
     ebe:	1f 92       	push	r1
     ec0:	0f 92       	push	r0
     ec2:	0f b6       	in	r0, 0x3f	; 63
     ec4:	0f 92       	push	r0
     ec6:	11 24       	eor	r1, r1
     ec8:	0f 90       	pop	r0
     eca:	0f be       	out	0x3f, r0	; 63
     ecc:	0f 90       	pop	r0
     ece:	1f 90       	pop	r1
     ed0:	18 95       	reti

00000ed2 <timer0_setup>:
     ed2:	82 e0       	ldi	r24, 0x02	; 2
     ed4:	84 bd       	out	0x24, r24	; 36
     ed6:	93 e0       	ldi	r25, 0x03	; 3
     ed8:	95 bd       	out	0x25, r25	; 37
     eda:	9a ef       	ldi	r25, 0xFA	; 250
     edc:	97 bd       	out	0x27, r25	; 39
     ede:	80 93 6e 00 	sts	0x006E, r24	; 0x80006e <__DATA_REGION_ORIGIN__+0xe>
     ee2:	08 95       	ret

00000ee4 <voInit_HwTimer>:
     ee4:	f6 cf       	rjmp	.-20     	; 0xed2 <timer0_setup>

00000ee6 <u16GetSystemTicksMS>:
     ee6:	80 91 d4 01 	lds	r24, 0x01D4	; 0x8001d4 <Ticks>
     eea:	90 91 d5 01 	lds	r25, 0x01D5	; 0x8001d5 <Ticks+0x1>
     eee:	08 95       	ret

00000ef0 <USART_Chip_Select>:
     ef0:	42 98       	cbi	0x08, 2	; 8
     ef2:	08 95       	ret

00000ef4 <USART_Chip_Deselect>:
     ef4:	42 9a       	sbi	0x08, 2	; 8
     ef6:	08 95       	ret

00000ef8 <USART_SPI_init>:
     ef8:	ec ec       	ldi	r30, 0xCC	; 204
     efa:	f0 e0       	ldi	r31, 0x00	; 0
     efc:	11 82       	std	Z+1, r1	; 0x01
     efe:	10 82       	st	Z, r1
     f00:	42 9a       	sbi	0x08, 2	; 8
     f02:	3a 9a       	sbi	0x07, 2	; 7
     f04:	5d 9a       	sbi	0x0b, 5	; 11
     f06:	55 9a       	sbi	0x0a, 5	; 10
     f08:	80 ec       	ldi	r24, 0xC0	; 192
     f0a:	80 93 ca 00 	sts	0x00CA, r24	; 0x8000ca <__DATA_REGION_ORIGIN__+0x6a>
     f0e:	84 e0       	ldi	r24, 0x04	; 4
     f10:	90 e0       	ldi	r25, 0x00	; 0
     f12:	91 83       	std	Z+1, r25	; 0x01
     f14:	80 83       	st	Z, r24
     f16:	88 e1       	ldi	r24, 0x18	; 24
     f18:	80 93 c9 00 	sts	0x00C9, r24	; 0x8000c9 <__DATA_REGION_ORIGIN__+0x69>
     f1c:	08 95       	ret

00000f1e <USART_SPI_Transmitt>:
     f1e:	90 91 c8 00 	lds	r25, 0x00C8	; 0x8000c8 <__DATA_REGION_ORIGIN__+0x68>
     f22:	95 ff       	sbrs	r25, 5
     f24:	fc cf       	rjmp	.-8      	; 0xf1e <USART_SPI_Transmitt>
     f26:	80 93 ce 00 	sts	0x00CE, r24	; 0x8000ce <__DATA_REGION_ORIGIN__+0x6e>
     f2a:	80 91 c8 00 	lds	r24, 0x00C8	; 0x8000c8 <__DATA_REGION_ORIGIN__+0x68>
     f2e:	87 ff       	sbrs	r24, 7
     f30:	fc cf       	rjmp	.-8      	; 0xf2a <USART_SPI_Transmitt+0xc>
     f32:	80 91 ce 00 	lds	r24, 0x00CE	; 0x8000ce <__DATA_REGION_ORIGIN__+0x6e>
     f36:	08 95       	ret

00000f38 <__vector_24>:
     f38:	1f 92       	push	r1
     f3a:	0f 92       	push	r0
     f3c:	0f b6       	in	r0, 0x3f	; 63
     f3e:	0f 92       	push	r0
     f40:	11 24       	eor	r1, r1
     f42:	2f 93       	push	r18
     f44:	3f 93       	push	r19
     f46:	4f 93       	push	r20
     f48:	5f 93       	push	r21
     f4a:	6f 93       	push	r22
     f4c:	7f 93       	push	r23
     f4e:	8f 93       	push	r24
     f50:	9f 93       	push	r25
     f52:	af 93       	push	r26
     f54:	bf 93       	push	r27
     f56:	ef 93       	push	r30
     f58:	ff 93       	push	r31
     f5a:	80 91 d6 01 	lds	r24, 0x01D6	; 0x8001d6 <TransferLen>
     f5e:	88 23       	and	r24, r24
     f60:	a1 f0       	breq	.+40     	; 0xf8a <__vector_24+0x52>
     f62:	80 91 d6 01 	lds	r24, 0x01D6	; 0x8001d6 <TransferLen>
     f66:	81 50       	subi	r24, 0x01	; 1
     f68:	80 93 d6 01 	sts	0x01D6, r24	; 0x8001d6 <TransferLen>
     f6c:	e0 91 d7 01 	lds	r30, 0x01D7	; 0x8001d7 <TransferPtr>
     f70:	f0 91 d8 01 	lds	r31, 0x01D8	; 0x8001d8 <TransferPtr+0x1>
     f74:	01 90       	ld	r0, Z+
     f76:	f0 81       	ld	r31, Z
     f78:	e0 2d       	mov	r30, r0
     f7a:	30 97       	sbiw	r30, 0x00	; 0
     f7c:	11 f0       	breq	.+4      	; 0xf82 <__vector_24+0x4a>
     f7e:	80 81       	ld	r24, Z
     f80:	01 c0       	rjmp	.+2      	; 0xf84 <__vector_24+0x4c>
     f82:	8a ea       	ldi	r24, 0xAA	; 170
     f84:	80 93 ce 00 	sts	0x00CE, r24	; 0x8000ce <__DATA_REGION_ORIGIN__+0x6e>
     f88:	06 c0       	rjmp	.+12     	; 0xf96 <__vector_24+0x5e>
     f8a:	80 91 c9 00 	lds	r24, 0x00C9	; 0x8000c9 <__DATA_REGION_ORIGIN__+0x69>
     f8e:	8f 71       	andi	r24, 0x1F	; 31
     f90:	80 93 c9 00 	sts	0x00C9, r24	; 0x8000c9 <__DATA_REGION_ORIGIN__+0x69>
     f94:	af df       	rcall	.-162    	; 0xef4 <USART_Chip_Deselect>
     f96:	ff 91       	pop	r31
     f98:	ef 91       	pop	r30
     f9a:	bf 91       	pop	r27
     f9c:	af 91       	pop	r26
     f9e:	9f 91       	pop	r25
     fa0:	8f 91       	pop	r24
     fa2:	7f 91       	pop	r23
     fa4:	6f 91       	pop	r22
     fa6:	5f 91       	pop	r21
     fa8:	4f 91       	pop	r20
     faa:	3f 91       	pop	r19
     fac:	2f 91       	pop	r18
     fae:	0f 90       	pop	r0
     fb0:	0f be       	out	0x3f, r0	; 63
     fb2:	0f 90       	pop	r0
     fb4:	1f 90       	pop	r1
     fb6:	18 95       	reti

00000fb8 <__vector_23>:
     fb8:	1f 92       	push	r1
     fba:	0f 92       	push	r0
     fbc:	0f b6       	in	r0, 0x3f	; 63
     fbe:	0f 92       	push	r0
     fc0:	11 24       	eor	r1, r1
     fc2:	8f 93       	push	r24
     fc4:	9f 93       	push	r25
     fc6:	af 93       	push	r26
     fc8:	bf 93       	push	r27
     fca:	ef 93       	push	r30
     fcc:	ff 93       	push	r31
     fce:	e0 91 d7 01 	lds	r30, 0x01D7	; 0x8001d7 <TransferPtr>
     fd2:	f0 91 d8 01 	lds	r31, 0x01D8	; 0x8001d8 <TransferPtr+0x1>
     fd6:	a2 81       	ldd	r26, Z+2	; 0x02
     fd8:	b3 81       	ldd	r27, Z+3	; 0x03
     fda:	80 91 ce 00 	lds	r24, 0x00CE	; 0x8000ce <__DATA_REGION_ORIGIN__+0x6e>
     fde:	10 97       	sbiw	r26, 0x00	; 0
     fe0:	31 f0       	breq	.+12     	; 0xfee <__vector_23+0x36>
     fe2:	8c 93       	st	X, r24
     fe4:	82 81       	ldd	r24, Z+2	; 0x02
     fe6:	93 81       	ldd	r25, Z+3	; 0x03
     fe8:	01 96       	adiw	r24, 0x01	; 1
     fea:	93 83       	std	Z+3, r25	; 0x03
     fec:	82 83       	std	Z+2, r24	; 0x02
     fee:	ff 91       	pop	r31
     ff0:	ef 91       	pop	r30
     ff2:	bf 91       	pop	r27
     ff4:	af 91       	pop	r26
     ff6:	9f 91       	pop	r25
     ff8:	8f 91       	pop	r24
     ffa:	0f 90       	pop	r0
     ffc:	0f be       	out	0x3f, r0	; 63
     ffe:	0f 90       	pop	r0
    1000:	1f 90       	pop	r1
    1002:	18 95       	reti

00001004 <voBTC_TaskInit>:
    1004:	80 e0       	ldi	r24, 0x00	; 0
    1006:	0e 94 e8 15 	call	0x2bd0	; 0x2bd0 <voHPC_SetPowerOutput>
    100a:	10 92 da 01 	sts	0x01DA, r1	; 0x8001da <s16BoilerSetpoint+0x1>
    100e:	10 92 d9 01 	sts	0x01D9, r1	; 0x8001d9 <s16BoilerSetpoint>
    1012:	08 95       	ret

00001014 <voBTC_Task>:
    1014:	36 d0       	rcall	.+108    	; 0x1082 <s16BLTMP_GetBoilerTemp>
    1016:	20 91 d9 01 	lds	r18, 0x01D9	; 0x8001d9 <s16BoilerSetpoint>
    101a:	30 91 da 01 	lds	r19, 0x01DA	; 0x8001da <s16BoilerSetpoint+0x1>
    101e:	82 17       	cp	r24, r18
    1020:	93 07       	cpc	r25, r19
    1022:	14 f4       	brge	.+4      	; 0x1028 <voBTC_Task+0x14>
    1024:	80 e0       	ldi	r24, 0x00	; 0
    1026:	01 c0       	rjmp	.+2      	; 0x102a <voBTC_Task+0x16>
    1028:	81 e0       	ldi	r24, 0x01	; 1
    102a:	c9 cd       	rjmp	.-1134   	; 0xbbe <voSetHeaterPowerState>

0000102c <voBTC_SetBoilerSetTemp>:
    102c:	90 93 da 01 	sts	0x01DA, r25	; 0x8001da <s16BoilerSetpoint+0x1>
    1030:	80 93 d9 01 	sts	0x01D9, r24	; 0x8001d9 <s16BoilerSetpoint>
    1034:	08 95       	ret

00001036 <s16BTC_GetCurrentBoilerTemp>:
    1036:	25 c0       	rjmp	.+74     	; 0x1082 <s16BLTMP_GetBoilerTemp>

00001038 <boBTC_GetIsHeating>:
    1038:	c8 dd       	rcall	.-1136   	; 0xbca <emGetHeaterPowerState>
    103a:	91 e0       	ldi	r25, 0x01	; 1
    103c:	81 30       	cpi	r24, 0x01	; 1
    103e:	09 f4       	brne	.+2      	; 0x1042 <boBTC_GetIsHeating+0xa>
    1040:	90 e0       	ldi	r25, 0x00	; 0
    1042:	89 2f       	mov	r24, r25
    1044:	08 95       	ret

00001046 <voBLTMP_InitBoilerTemp>:
    1046:	08 95       	ret

00001048 <voBLTMP_AddNewRawValue>:
    1048:	90 93 4d 02 	sts	0x024D, r25	; 0x80024d <BoilerRawValue+0x1>
    104c:	80 93 4c 02 	sts	0x024C, r24	; 0x80024c <BoilerRawValue>
    1050:	a0 e0       	ldi	r26, 0x00	; 0
    1052:	b0 e0       	ldi	r27, 0x00	; 0
    1054:	bc 01       	movw	r22, r24
    1056:	cd 01       	movw	r24, r26
    1058:	6c 56       	subi	r22, 0x6C	; 108
    105a:	71 40       	sbci	r23, 0x01	; 1
    105c:	81 09       	sbc	r24, r1
    105e:	91 09       	sbc	r25, r1
    1060:	24 e6       	ldi	r18, 0x64	; 100
    1062:	30 e0       	ldi	r19, 0x00	; 0
    1064:	40 e0       	ldi	r20, 0x00	; 0
    1066:	50 e0       	ldi	r21, 0x00	; 0
    1068:	0e 94 a8 1e 	call	0x3d50	; 0x3d50 <__mulsi3>
    106c:	20 ed       	ldi	r18, 0xD0	; 208
    106e:	31 e0       	ldi	r19, 0x01	; 1
    1070:	40 e0       	ldi	r20, 0x00	; 0
    1072:	50 e0       	ldi	r21, 0x00	; 0
    1074:	0e 94 f7 1e 	call	0x3dee	; 0x3dee <__divmodsi4>
    1078:	30 93 4f 02 	sts	0x024F, r19	; 0x80024f <BoilerTemp+0x1>
    107c:	20 93 4e 02 	sts	0x024E, r18	; 0x80024e <BoilerTemp>
    1080:	08 95       	ret

00001082 <s16BLTMP_GetBoilerTemp>:
    1082:	80 91 4e 02 	lds	r24, 0x024E	; 0x80024e <BoilerTemp>
    1086:	90 91 4f 02 	lds	r25, 0x024F	; 0x80024f <BoilerTemp+0x1>
    108a:	08 95       	ret

0000108c <voKeyEvent_TaskInit>:
static volatile KeyEventRegister_t astrKeyEventRegister[4];

emSWITCHSTATE emGetSwitchStateHAL( uint8_t index );


void voKeyEvent_TaskInit( void ){
    108c:	80 e0       	ldi	r24, 0x00	; 0
    108e:	90 e0       	ldi	r25, 0x00	; 0
	
	for(uint8_t i=0; i < NoOfKeys ; i++){
		astrKeyEventRegister[i].Debouncecounter=0;
		astrKeyEventRegister[i].IntermediateSwitchstate=SWITCH_RELEASED;
    1090:	21 e0       	ldi	r18, 0x01	; 1
		astrKeyEventRegister[i].KeyEvent.KeyChangeState=KeyInvalide;
    1092:	32 e0       	ldi	r19, 0x02	; 2


void voKeyEvent_TaskInit( void ){
	
	for(uint8_t i=0; i < NoOfKeys ; i++){
		astrKeyEventRegister[i].Debouncecounter=0;
    1094:	fc 01       	movw	r30, r24
    1096:	43 e0       	ldi	r20, 0x03	; 3
    1098:	ee 0f       	add	r30, r30
    109a:	ff 1f       	adc	r31, r31
    109c:	4a 95       	dec	r20
    109e:	e1 f7       	brne	.-8      	; 0x1098 <voKeyEvent_TaskInit+0xc>
    10a0:	e5 52       	subi	r30, 0x25	; 37
    10a2:	fe 4f       	sbci	r31, 0xFE	; 254
    10a4:	15 82       	std	Z+5, r1	; 0x05
		astrKeyEventRegister[i].IntermediateSwitchstate=SWITCH_RELEASED;
    10a6:	26 83       	std	Z+6, r18	; 0x06
		astrKeyEventRegister[i].KeyEvent.KeyChangeState=KeyInvalide;
    10a8:	32 83       	std	Z+2, r19	; 0x02
		astrKeyEventRegister[i].KeyEvent.SwitchState=SWITCH_RELEASED;
    10aa:	23 83       	std	Z+3, r18	; 0x03
    10ac:	01 96       	adiw	r24, 0x01	; 1
emSWITCHSTATE emGetSwitchStateHAL( uint8_t index );


void voKeyEvent_TaskInit( void ){
	
	for(uint8_t i=0; i < NoOfKeys ; i++){
    10ae:	84 30       	cpi	r24, 0x04	; 4
    10b0:	91 05       	cpc	r25, r1
    10b2:	81 f7       	brne	.-32     	; 0x1094 <voKeyEvent_TaskInit+0x8>
		astrKeyEventRegister[i].IntermediateSwitchstate=SWITCH_RELEASED;
		astrKeyEventRegister[i].KeyEvent.KeyChangeState=KeyInvalide;
		astrKeyEventRegister[i].KeyEvent.SwitchState=SWITCH_RELEASED;
	}
	
}
    10b4:	08 95       	ret

000010b6 <emGetSwitchStateHAL>:

emSWITCHSTATE emGetSwitchStateHAL( uint8_t index ){
	
	emSWITCHSTATE emReturnValue=SWITCH_RELEASED;
	/* This will grab the keys from the different driver and map them in the array */
	switch(index){
    10b6:	83 30       	cpi	r24, 0x03	; 3
    10b8:	18 f0       	brcs	.+6      	; 0x10c0 <emGetSwitchStateHAL+0xa>
    10ba:	83 30       	cpi	r24, 0x03	; 3
    10bc:	11 f4       	brne	.+4      	; 0x10c2 <emGetSwitchStateHAL+0xc>
			emReturnValue = emGetSwitchState( index );
			
		} break;
		
		case 3:{
			emReturnValue = SBNT_emGetState();
    10be:	ba cd       	rjmp	.-1164   	; 0xc34 <SBNT_emGetState>
	switch(index){
		case 0:
		case 1:
		case 2:
		{
			emReturnValue = emGetSwitchState( index );
    10c0:	5a cd       	rjmp	.-1356   	; 0xb76 <emGetSwitchState>
    10c2:	81 e0       	ldi	r24, 0x01	; 1
		}
	}
	
	return emReturnValue;
	
};
    10c4:	08 95       	ret

000010c6 <voKeyEvent_Task>:
    10c6:	0f 93       	push	r16
		astrKeyEventRegister[i].KeyEvent.SwitchState=SWITCH_RELEASED;
	}
	
}

void voKeyEvent_Task( void ){
    10c8:	1f 93       	push	r17
    10ca:	cf 93       	push	r28
    10cc:	df 93       	push	r29
    10ce:	c0 e0       	ldi	r28, 0x00	; 0
    10d0:	d0 e0       	ldi	r29, 0x00	; 0
		} else {
			if( astrKeyEventRegister[i].Debouncecounter == Debouncelimit ){
				
				/* We have found our Event */
				astrKeyEventRegister[i].KeyEvent.SwitchState=State;
				astrKeyEventRegister[i].KeyEvent.KeyChangeState=KeyChanged;
    10d2:	11 e0       	ldi	r17, 0x01	; 1
		}
		if( (astrKeyEventRegister[i].KeyPressDuration > 0 ) && (astrKeyEventRegister[i].KeyPressDuration < 400 ) ) { //We cll this every 10ms
			//Keypress less than 4 seconds is considered short
			astrKeyEventRegister[i].KeyEvent.KeyPressType = KeyShortPressed;
		} else if (astrKeyEventRegister[i].KeyPressDuration >= 400 ){
			astrKeyEventRegister[i].KeyEvent.KeyPressType = KeyLongPressed;
    10d4:	02 e0       	ldi	r16, 0x02	; 2
	
	/* We need to check each key here */
	
	for(uint8_t i=0;i<NoOfKeys;i++){
		
		emSWITCHSTATE State = emGetSwitchStateHAL(i);
    10d6:	8c 2f       	mov	r24, r28
    10d8:	ee df       	rcall	.-36     	; 0x10b6 <emGetSwitchStateHAL>
		
		if(State != astrKeyEventRegister[i].IntermediateSwitchstate ){
    10da:	9e 01       	movw	r18, r28
    10dc:	93 e0       	ldi	r25, 0x03	; 3
    10de:	22 0f       	add	r18, r18
    10e0:	33 1f       	adc	r19, r19
    10e2:	9a 95       	dec	r25
    10e4:	e1 f7       	brne	.-8      	; 0x10de <voKeyEvent_Task+0x18>
    10e6:	f9 01       	movw	r30, r18
    10e8:	e5 52       	subi	r30, 0x25	; 37
    10ea:	fe 4f       	sbci	r31, 0xFE	; 254
    10ec:	96 81       	ldd	r25, Z+6	; 0x06
    10ee:	89 17       	cp	r24, r25
    10f0:	31 f0       	breq	.+12     	; 0x10fe <voKeyEvent_Task+0x38>
			astrKeyEventRegister[i].Debouncecounter=0;
    10f2:	15 82       	std	Z+5, r1	; 0x05
			astrKeyEventRegister[i].IntermediateSwitchstate = State;
    10f4:	86 83       	std	Z+6, r24	; 0x06
			
			if(astrKeyEventRegister[i].KeyStateRead==KEYSTATE_READ){
    10f6:	87 81       	ldd	r24, Z+7	; 0x07
    10f8:	81 11       	cpse	r24, r1
    10fa:	19 c0       	rjmp	.+50     	; 0x112e <voKeyEvent_Task+0x68>
    10fc:	0d c0       	rjmp	.+26     	; 0x1118 <voKeyEvent_Task+0x52>
				astrKeyEventRegister[i].KeyEvent.KeyChangeState = KeyUnchanged;
			}	
		} else {
			if( astrKeyEventRegister[i].Debouncecounter == Debouncelimit ){
    10fe:	95 81       	ldd	r25, Z+5	; 0x05
    1100:	95 30       	cpi	r25, 0x05	; 5
    1102:	21 f4       	brne	.+8      	; 0x110c <voKeyEvent_Task+0x46>
				
				/* We have found our Event */
				astrKeyEventRegister[i].KeyEvent.SwitchState=State;
    1104:	83 83       	std	Z+3, r24	; 0x03
				astrKeyEventRegister[i].KeyEvent.KeyChangeState=KeyChanged;
    1106:	12 83       	std	Z+2, r17	; 0x02
				astrKeyEventRegister[i].KeyStateRead = KEYSTATE_NOT_READ;
    1108:	17 83       	std	Z+7, r17	; 0x07
    110a:	0e c0       	rjmp	.+28     	; 0x1128 <voKeyEvent_Task+0x62>
				astrKeyEventRegister[i].Debouncecounter++;	
				
			} else if ( ( astrKeyEventRegister[i].Debouncecounter > Debouncelimit) && (astrKeyEventRegister[i].KeyStateRead == KEYSTATE_READ ) ) {
    110c:	85 81       	ldd	r24, Z+5	; 0x05
    110e:	86 30       	cpi	r24, 0x06	; 6
    1110:	28 f0       	brcs	.+10     	; 0x111c <voKeyEvent_Task+0x56>
    1112:	87 81       	ldd	r24, Z+7	; 0x07
    1114:	81 11       	cpse	r24, r1
    1116:	02 c0       	rjmp	.+4      	; 0x111c <voKeyEvent_Task+0x56>
				
				astrKeyEventRegister[i].KeyEvent.KeyChangeState = KeyUnchanged;
    1118:	12 82       	std	Z+2, r1	; 0x02
    111a:	09 c0       	rjmp	.+18     	; 0x112e <voKeyEvent_Task+0x68>
			
			} else {
				if(astrKeyEventRegister[i].Debouncecounter<255){
    111c:	f9 01       	movw	r30, r18
    111e:	e5 52       	subi	r30, 0x25	; 37
    1120:	fe 4f       	sbci	r31, 0xFE	; 254
    1122:	85 81       	ldd	r24, Z+5	; 0x05
    1124:	8f 3f       	cpi	r24, 0xFF	; 255
    1126:	19 f0       	breq	.+6      	; 0x112e <voKeyEvent_Task+0x68>
					astrKeyEventRegister[i].Debouncecounter++;	
    1128:	85 81       	ldd	r24, Z+5	; 0x05
    112a:	8f 5f       	subi	r24, 0xFF	; 255
    112c:	85 83       	std	Z+5, r24	; 0x05
				}
				
			}
			
		}
	    if ( astrKeyEventRegister[i].KeyEvent.SwitchState == SWITCH_PRESSED ){
    112e:	f9 01       	movw	r30, r18
    1130:	e5 52       	subi	r30, 0x25	; 37
    1132:	fe 4f       	sbci	r31, 0xFE	; 254
    1134:	83 81       	ldd	r24, Z+3	; 0x03
    1136:	81 11       	cpse	r24, r1
    1138:	0a c0       	rjmp	.+20     	; 0x114e <voKeyEvent_Task+0x88>
			if(astrKeyEventRegister[i].KeyPressDuration < UINT16_MAX){
    113a:	80 81       	ld	r24, Z
    113c:	91 81       	ldd	r25, Z+1	; 0x01
    113e:	01 96       	adiw	r24, 0x01	; 1
    1140:	59 f0       	breq	.+22     	; 0x1158 <voKeyEvent_Task+0x92>
				astrKeyEventRegister[i].KeyPressDuration++;
    1142:	80 81       	ld	r24, Z
    1144:	91 81       	ldd	r25, Z+1	; 0x01
    1146:	01 96       	adiw	r24, 0x01	; 1
    1148:	91 83       	std	Z+1, r25	; 0x01
    114a:	80 83       	st	Z, r24
    114c:	05 c0       	rjmp	.+10     	; 0x1158 <voKeyEvent_Task+0x92>
			}
		} else if( astrKeyEventRegister[i].KeyEvent.SwitchState == SWITCH_RELEASED ){
    114e:	83 81       	ldd	r24, Z+3	; 0x03
    1150:	81 30       	cpi	r24, 0x01	; 1
    1152:	11 f4       	brne	.+4      	; 0x1158 <voKeyEvent_Task+0x92>
			astrKeyEventRegister[i].KeyPressDuration=0;
    1154:	11 82       	std	Z+1, r1	; 0x01
    1156:	10 82       	st	Z, r1
		}
		if( (astrKeyEventRegister[i].KeyPressDuration > 0 ) && (astrKeyEventRegister[i].KeyPressDuration < 400 ) ) { //We cll this every 10ms
    1158:	f9 01       	movw	r30, r18
    115a:	e5 52       	subi	r30, 0x25	; 37
    115c:	fe 4f       	sbci	r31, 0xFE	; 254
    115e:	80 81       	ld	r24, Z
    1160:	91 81       	ldd	r25, Z+1	; 0x01
    1162:	89 2b       	or	r24, r25
    1164:	39 f0       	breq	.+14     	; 0x1174 <voKeyEvent_Task+0xae>
    1166:	80 81       	ld	r24, Z
    1168:	91 81       	ldd	r25, Z+1	; 0x01
    116a:	80 39       	cpi	r24, 0x90	; 144
    116c:	91 40       	sbci	r25, 0x01	; 1
    116e:	10 f4       	brcc	.+4      	; 0x1174 <voKeyEvent_Task+0xae>
			//Keypress less than 4 seconds is considered short
			astrKeyEventRegister[i].KeyEvent.KeyPressType = KeyShortPressed;
    1170:	14 83       	std	Z+4, r17	; 0x04
    1172:	0f c0       	rjmp	.+30     	; 0x1192 <voKeyEvent_Task+0xcc>
		} else if (astrKeyEventRegister[i].KeyPressDuration >= 400 ){
    1174:	f9 01       	movw	r30, r18
    1176:	e5 52       	subi	r30, 0x25	; 37
    1178:	fe 4f       	sbci	r31, 0xFE	; 254
    117a:	80 81       	ld	r24, Z
    117c:	91 81       	ldd	r25, Z+1	; 0x01
    117e:	80 39       	cpi	r24, 0x90	; 144
    1180:	91 40       	sbci	r25, 0x01	; 1
    1182:	10 f0       	brcs	.+4      	; 0x1188 <voKeyEvent_Task+0xc2>
			astrKeyEventRegister[i].KeyEvent.KeyPressType = KeyLongPressed;
    1184:	04 83       	std	Z+4, r16	; 0x04
    1186:	05 c0       	rjmp	.+10     	; 0x1192 <voKeyEvent_Task+0xcc>
		} else if (0 == astrKeyEventRegister[i].KeyPressDuration  ){
    1188:	80 81       	ld	r24, Z
    118a:	91 81       	ldd	r25, Z+1	; 0x01
    118c:	89 2b       	or	r24, r25
    118e:	09 f4       	brne	.+2      	; 0x1192 <voKeyEvent_Task+0xcc>
			astrKeyEventRegister[i].KeyEvent.KeyPressType = KeyNotPressed;
    1190:	14 82       	std	Z+4, r1	; 0x04
    1192:	21 96       	adiw	r28, 0x01	; 1

void voKeyEvent_Task( void ){
	
	/* We need to check each key here */
	
	for(uint8_t i=0;i<NoOfKeys;i++){
    1194:	c4 30       	cpi	r28, 0x04	; 4
    1196:	d1 05       	cpc	r29, r1
    1198:	09 f0       	breq	.+2      	; 0x119c <voKeyEvent_Task+0xd6>
    119a:	9d cf       	rjmp	.-198    	; 0x10d6 <voKeyEvent_Task+0x10>
		} else if (0 == astrKeyEventRegister[i].KeyPressDuration  ){
			astrKeyEventRegister[i].KeyEvent.KeyPressType = KeyNotPressed;
		}
		
	}	
}
    119c:	df 91       	pop	r29
    119e:	cf 91       	pop	r28
    11a0:	1f 91       	pop	r17
    11a2:	0f 91       	pop	r16
    11a4:	08 95       	ret

000011a6 <strGetKeyEvent>:
	
};

KeyEvent_t strGetKeyEvent( uint8_t KeyIdx ){
	
	if(KeyIdx < NoOfKeys) {
    11a6:	84 30       	cpi	r24, 0x04	; 4
    11a8:	70 f4       	brcc	.+28     	; 0x11c6 <strGetKeyEvent+0x20>
		astrKeyEventRegister[KeyIdx].KeyStateRead=KEYSTATE_READ;
    11aa:	e8 2f       	mov	r30, r24
    11ac:	f0 e0       	ldi	r31, 0x00	; 0
    11ae:	83 e0       	ldi	r24, 0x03	; 3
    11b0:	ee 0f       	add	r30, r30
    11b2:	ff 1f       	adc	r31, r31
    11b4:	8a 95       	dec	r24
    11b6:	e1 f7       	brne	.-8      	; 0x11b0 <strGetKeyEvent+0xa>
    11b8:	e5 52       	subi	r30, 0x25	; 37
    11ba:	fe 4f       	sbci	r31, 0xFE	; 254
    11bc:	17 82       	std	Z+7, r1	; 0x07
		return astrKeyEventRegister[KeyIdx].KeyEvent;
    11be:	62 81       	ldd	r22, Z+2	; 0x02
    11c0:	73 81       	ldd	r23, Z+3	; 0x03
    11c2:	84 81       	ldd	r24, Z+4	; 0x04
    11c4:	08 95       	ret
	} else {
		return astrKeyEventRegister[NoOfKeys-1].KeyEvent;
    11c6:	60 91 f5 01 	lds	r22, 0x01F5	; 0x8001f5 <astrKeyEventRegister+0x1a>
    11ca:	70 91 f6 01 	lds	r23, 0x01F6	; 0x8001f6 <astrKeyEventRegister+0x1b>
    11ce:	80 91 f7 01 	lds	r24, 0x01F7	; 0x8001f7 <astrKeyEventRegister+0x1c>
	}
	
}
    11d2:	08 95       	ret

000011d4 <u16GetStandbyTemp>:
void voCoffeeFSM_DrawWaterEmpty( bool boEmpty );
void voCoffeeFSM_DrawThermometer( bool boHeating, bool boOvertemp );
void voProcessLidKey(coffeefsm_t emFSMState);

uint16_t u16GetStandbyTemp( void ){
	return tFSMSettings.u16StandbyTemp;
    11d4:	80 91 16 02 	lds	r24, 0x0216	; 0x800216 <tFSMSettings+0x5>
    11d8:	90 91 17 02 	lds	r25, 0x0217	; 0x800217 <tFSMSettings+0x6>
}
    11dc:	08 95       	ret

000011de <voSetStandbyTemp>:

void voSetStandbyTemp( uint16_t Temp ){
    11de:	80 31       	cpi	r24, 0x10	; 16
    11e0:	27 e2       	ldi	r18, 0x27	; 39
    11e2:	92 07       	cpc	r25, r18
    11e4:	10 f0       	brcs	.+4      	; 0x11ea <voSetStandbyTemp+0xc>
    11e6:	8f e0       	ldi	r24, 0x0F	; 15
    11e8:	97 e2       	ldi	r25, 0x27	; 39
	if(Temp>9999){
		Temp=9999;
	}
	tFSMSettings.u16StandbyTemp=Temp;
    11ea:	90 93 17 02 	sts	0x0217, r25	; 0x800217 <tFSMSettings+0x6>
    11ee:	80 93 16 02 	sts	0x0216, r24	; 0x800216 <tFSMSettings+0x5>
	voEEFS_WriteSystemSettings((systemsettings_t*)&tFSMSettings);
    11f2:	81 e1       	ldi	r24, 0x11	; 17
    11f4:	92 e0       	ldi	r25, 0x02	; 2
    11f6:	0c 94 69 13 	jmp	0x26d2	; 0x26d2 <voEEFS_WriteSystemSettings>

000011fa <voCoffeeFSM_TaskInit>:
}

void voCoffeeFSM_TaskInit( void ){
	
	/* We need to Init the FSM to a known state */
	emFSMState = coffeemaker_idle;
    11fa:	10 92 1b 02 	sts	0x021B, r1	; 0x80021b <emFSMState>
    11fe:	08 95       	ret

00001200 <boCoffeeFSM_LoadProgramm>:
	
}

bool boCoffeeFSM_LoadProgramm(uint8_t idx){
    1200:	1f 93       	push	r17
    1202:	cf 93       	push	r28
    1204:	df 93       	push	r29
    1206:	cd b7       	in	r28, 0x3d	; 61
    1208:	de b7       	in	r29, 0x3e	; 62
    120a:	60 97       	sbiw	r28, 0x10	; 16
    120c:	0f b6       	in	r0, 0x3f	; 63
    120e:	f8 94       	cli
    1210:	de bf       	out	0x3e, r29	; 62
    1212:	0f be       	out	0x3f, r0	; 63
    1214:	cd bf       	out	0x3d, r28	; 61

bool boReturnval=false;
bool boLoadVal=false;
usersettings_t tCoffeProg;

	if( (emFSMState==coffeemaker_idle) || (emFSMState==coffeemaker_preheat) ){
    1216:	90 91 1b 02 	lds	r25, 0x021B	; 0x80021b <emFSMState>
    121a:	99 23       	and	r25, r25
    121c:	31 f0       	breq	.+12     	; 0x122a <boCoffeeFSM_LoadProgramm+0x2a>
    121e:	90 91 1b 02 	lds	r25, 0x021B	; 0x80021b <emFSMState>
    1222:	91 30       	cpi	r25, 0x01	; 1
    1224:	11 f0       	breq	.+4      	; 0x122a <boCoffeeFSM_LoadProgramm+0x2a>
	
}

bool boCoffeeFSM_LoadProgramm(uint8_t idx){

bool boReturnval=false;
    1226:	80 e0       	ldi	r24, 0x00	; 0
    1228:	16 c0       	rjmp	.+44     	; 0x1256 <boCoffeeFSM_LoadProgramm+0x56>
bool boLoadVal=false;
usersettings_t tCoffeProg;

	if( (emFSMState==coffeemaker_idle) || (emFSMState==coffeemaker_preheat) ){
		/* idx 0 to 7 are the eeprom programms */
		if(8 > idx ){
    122a:	88 30       	cpi	r24, 0x08	; 8
    122c:	e0 f7       	brcc	.-8      	; 0x1226 <boCoffeeFSM_LoadProgramm+0x26>
    122e:	18 2f       	mov	r17, r24
			/* We have a idx in the range 0 to 7 */
			/* Programm will be loaded from eeprom */
			
			boLoadVal=boEEFS_ReadUserProgramm(idx,&tCoffeProg);
    1230:	be 01       	movw	r22, r28
    1232:	6f 5f       	subi	r22, 0xFF	; 255
    1234:	7f 4f       	sbci	r23, 0xFF	; 255
    1236:	0e 94 06 14 	call	0x280c	; 0x280c <boEEFS_ReadUserProgramm>
			if(boLoadVal==true){
    123a:	88 23       	and	r24, r24
    123c:	a1 f3       	breq	.-24     	; 0x1226 <boCoffeeFSM_LoadProgramm+0x26>
				/* Copy the new coffeepro to ram for the fsm */
				memcpy((usersettings_t*)&tFSMCoffeProg,&tCoffeProg, sizeof(usersettings_t));
    123e:	80 e1       	ldi	r24, 0x10	; 16
    1240:	fe 01       	movw	r30, r28
    1242:	31 96       	adiw	r30, 0x01	; 1
    1244:	a1 e0       	ldi	r26, 0x01	; 1
    1246:	b2 e0       	ldi	r27, 0x02	; 2
    1248:	01 90       	ld	r0, Z+
    124a:	0d 92       	st	X+, r0
    124c:	8a 95       	dec	r24
    124e:	e1 f7       	brne	.-8      	; 0x1248 <boCoffeeFSM_LoadProgramm+0x48>
				boReturnval = true;	
				u8ProgrammLoaded=idx;
    1250:	10 93 fc 01 	sts	0x01FC, r17	; 0x8001fc <u8ProgrammLoaded>
			
			boLoadVal=boEEFS_ReadUserProgramm(idx,&tCoffeProg);
			if(boLoadVal==true){
				/* Copy the new coffeepro to ram for the fsm */
				memcpy((usersettings_t*)&tFSMCoffeProg,&tCoffeProg, sizeof(usersettings_t));
				boReturnval = true;	
    1254:	81 e0       	ldi	r24, 0x01	; 1
			boReturnval = false;
		}
	}
		
	return boReturnval;
}
    1256:	60 96       	adiw	r28, 0x10	; 16
    1258:	0f b6       	in	r0, 0x3f	; 63
    125a:	f8 94       	cli
    125c:	de bf       	out	0x3e, r29	; 62
    125e:	0f be       	out	0x3f, r0	; 63
    1260:	cd bf       	out	0x3d, r28	; 61
    1262:	df 91       	pop	r29
    1264:	cf 91       	pop	r28
    1266:	1f 91       	pop	r17
    1268:	08 95       	ret

0000126a <u8GetCurrenProgrammIdx>:

uint8_t u8GetCurrenProgrammIdx( void ){
	return u8ProgrammLoaded;
    126a:	80 91 fc 01 	lds	r24, 0x01FC	; 0x8001fc <u8ProgrammLoaded>
}
    126e:	08 95       	ret

00001270 <voCoffeeFSM_LoadSystemSettings>:

bool voCoffeeFSM_LoadSystemSettings(){
    1270:	cf 93       	push	r28
    1272:	df 93       	push	r29
    1274:	cd b7       	in	r28, 0x3d	; 61
    1276:	de b7       	in	r29, 0x3e	; 62
    1278:	2a 97       	sbiw	r28, 0x0a	; 10
    127a:	0f b6       	in	r0, 0x3f	; 63
    127c:	f8 94       	cli
    127e:	de bf       	out	0x3e, r29	; 62
    1280:	0f be       	out	0x3f, r0	; 63
    1282:	cd bf       	out	0x3d, r28	; 61
	bool boRetunrVal=false;
	/* This is something that we can do at any state */
	systemsettings_t tSystemSettings;
	if(voEEFS_ReadSystemSettings(&tSystemSettings)!=false){
    1284:	ce 01       	movw	r24, r28
    1286:	01 96       	adiw	r24, 0x01	; 1
    1288:	0e 94 93 13 	call	0x2726	; 0x2726 <voEEFS_ReadSystemSettings>
    128c:	88 23       	and	r24, r24
    128e:	59 f0       	breq	.+22     	; 0x12a6 <voCoffeeFSM_LoadSystemSettings+0x36>
		//we have loaded the settings now we need to apply them to the fsm used one
		memcpy((systemsettings_t*)&tFSMSettings,&tSystemSettings, sizeof(systemsettings_t));
    1290:	8a e0       	ldi	r24, 0x0A	; 10
    1292:	fe 01       	movw	r30, r28
    1294:	31 96       	adiw	r30, 0x01	; 1
    1296:	a1 e1       	ldi	r26, 0x11	; 17
    1298:	b2 e0       	ldi	r27, 0x02	; 2
    129a:	01 90       	ld	r0, Z+
    129c:	0d 92       	st	X+, r0
    129e:	8a 95       	dec	r24
    12a0:	e1 f7       	brne	.-8      	; 0x129a <voCoffeeFSM_LoadSystemSettings+0x2a>
		boRetunrVal=true;
    12a2:	81 e0       	ldi	r24, 0x01	; 1
    12a4:	05 c0       	rjmp	.+10     	; 0x12b0 <voCoffeeFSM_LoadSystemSettings+0x40>
		/* Settings are now copied */
	} else {
		/* Loading has failed we need to provide packup values */
		voSetDefaultSystemSettingsValues((systemsettings_t*)&tFSMSettings);
    12a6:	81 e1       	ldi	r24, 0x11	; 17
    12a8:	92 e0       	ldi	r25, 0x02	; 2
    12aa:	0e 94 f9 12 	call	0x25f2	; 0x25f2 <voSetDefaultSystemSettingsValues>
		boRetunrVal=false;
    12ae:	80 e0       	ldi	r24, 0x00	; 0
		
	}
	
	return boRetunrVal;
}
    12b0:	2a 96       	adiw	r28, 0x0a	; 10
    12b2:	0f b6       	in	r0, 0x3f	; 63
    12b4:	f8 94       	cli
    12b6:	de bf       	out	0x3e, r29	; 62
    12b8:	0f be       	out	0x3f, r0	; 63
    12ba:	cd bf       	out	0x3d, r28	; 61
    12bc:	df 91       	pop	r29
    12be:	cf 91       	pop	r28
    12c0:	08 95       	ret

000012c2 <boCoffeeFSM_MakeCoffee>:

bool boCoffeeFSM_MakeCoffee(uint8_t Cups){
	bool boStart=false;
	if( (emFSMState==coffeemaker_idle) || (emFSMState==coffeemaker_preheat) ){
    12c2:	90 91 1b 02 	lds	r25, 0x021B	; 0x80021b <emFSMState>
    12c6:	99 23       	and	r25, r25
    12c8:	21 f0       	breq	.+8      	; 0x12d2 <boCoffeeFSM_MakeCoffee+0x10>
    12ca:	90 91 1b 02 	lds	r25, 0x021B	; 0x80021b <emFSMState>
    12ce:	91 30       	cpi	r25, 0x01	; 1
    12d0:	81 f4       	brne	.+32     	; 0x12f2 <boCoffeeFSM_MakeCoffee+0x30>
		/* We can change to brew coffe here */
		boStart=true;
		if(Cups>1){
    12d2:	82 30       	cpi	r24, 0x02	; 2
    12d4:	20 f0       	brcs	.+8      	; 0x12de <boCoffeeFSM_MakeCoffee+0x1c>
			tStatusBits.bFillTwoCups=1;
    12d6:	80 91 fb 01 	lds	r24, 0x01FB	; 0x8001fb <tStatusBits>
    12da:	84 60       	ori	r24, 0x04	; 4
    12dc:	03 c0       	rjmp	.+6      	; 0x12e4 <boCoffeeFSM_MakeCoffee+0x22>
		} else {
			tStatusBits.bFillTwoCups=0;
    12de:	80 91 fb 01 	lds	r24, 0x01FB	; 0x8001fb <tStatusBits>
    12e2:	8b 7f       	andi	r24, 0xFB	; 251
    12e4:	80 93 fb 01 	sts	0x01FB, r24	; 0x8001fb <tStatusBits>
		}
		emFSMState = coffeemaker_brewcoffee;
    12e8:	82 e0       	ldi	r24, 0x02	; 2
    12ea:	80 93 1b 02 	sts	0x021B, r24	; 0x80021b <emFSMState>

bool boCoffeeFSM_MakeCoffee(uint8_t Cups){
	bool boStart=false;
	if( (emFSMState==coffeemaker_idle) || (emFSMState==coffeemaker_preheat) ){
		/* We can change to brew coffe here */
		boStart=true;
    12ee:	81 e0       	ldi	r24, 0x01	; 1
    12f0:	08 95       	ret
	
	return boRetunrVal;
}

bool boCoffeeFSM_MakeCoffee(uint8_t Cups){
	bool boStart=false;
    12f2:	80 e0       	ldi	r24, 0x00	; 0
		}
		emFSMState = coffeemaker_brewcoffee;
		
	}
	return boStart;
}
    12f4:	08 95       	ret

000012f6 <voCoffeeFSM_SetPower>:

void voCoffeeFSM_SetPower(bool boOn){
	if(boOn==true){
    12f6:	88 23       	and	r24, r24
    12f8:	41 f0       	breq	.+16     	; 0x130a <voCoffeeFSM_SetPower+0x14>
		if(emFSMState==coffeemaker_idle){
    12fa:	80 91 1b 02 	lds	r24, 0x021B	; 0x80021b <emFSMState>
    12fe:	81 11       	cpse	r24, r1
    1300:	06 c0       	rjmp	.+12     	; 0x130e <voCoffeeFSM_SetPower+0x18>
			emFSMState=coffeemaker_preheat;
    1302:	81 e0       	ldi	r24, 0x01	; 1
    1304:	80 93 1b 02 	sts	0x021B, r24	; 0x80021b <emFSMState>
    1308:	08 95       	ret
		}
	} else {
		emFSMState=coffeemaker_idle;
    130a:	10 92 1b 02 	sts	0x021B, r1	; 0x80021b <emFSMState>
    130e:	08 95       	ret

00001310 <voSetCupLevel>:

void voSetCupLevel(uint8_t u8Level){
	if(u8Level>2){
		u8Level=2;
	}
	if( (emFSMState==coffeemaker_idle) || (emFSMState==coffeemaker_preheat)){
    1310:	90 91 1b 02 	lds	r25, 0x021B	; 0x80021b <emFSMState>
    1314:	99 23       	and	r25, r25
    1316:	21 f0       	breq	.+8      	; 0x1320 <voSetCupLevel+0x10>
    1318:	90 91 1b 02 	lds	r25, 0x021B	; 0x80021b <emFSMState>
    131c:	91 30       	cpi	r25, 0x01	; 1
    131e:	49 f4       	brne	.+18     	; 0x1332 <voSetCupLevel+0x22>
    1320:	83 30       	cpi	r24, 0x03	; 3
    1322:	08 f0       	brcs	.+2      	; 0x1326 <voSetCupLevel+0x16>
    1324:	82 e0       	ldi	r24, 0x02	; 2
		tFSMSettings.u8coffeelevel=u8Level;
    1326:	80 93 15 02 	sts	0x0215, r24	; 0x800215 <tFSMSettings+0x4>
		/* We need to write the new setting into eeprom */
		voEEFS_WriteSystemSettings((systemsettings_t*)&tFSMSettings);
    132a:	81 e1       	ldi	r24, 0x11	; 17
    132c:	92 e0       	ldi	r25, 0x02	; 2
    132e:	0c 94 69 13 	jmp	0x26d2	; 0x26d2 <voEEFS_WriteSystemSettings>
    1332:	08 95       	ret

00001334 <u8GetCupLevel>:
		
	}
}

uint8_t u8GetCupLevel(void){
	return tFSMSettings.u8coffeelevel;
    1334:	80 91 15 02 	lds	r24, 0x0215	; 0x800215 <tFSMSettings+0x4>
}
    1338:	08 95       	ret

0000133a <voSetAutoPowerOff>:

void voSetAutoPowerOff(uint8_t u8TimeMin){
    133a:	8d 33       	cpi	r24, 0x3D	; 61
    133c:	08 f0       	brcs	.+2      	; 0x1340 <voSetAutoPowerOff+0x6>
    133e:	8c e3       	ldi	r24, 0x3C	; 60
	if(u8TimeMin>60){
		u8TimeMin=60;
	}
	tFSMSettings.u8AutoPowerOffTime=u8TimeMin;
    1340:	80 93 11 02 	sts	0x0211, r24	; 0x800211 <tFSMSettings>
	voEEFS_WriteSystemSettings((systemsettings_t*)&tFSMSettings);
    1344:	81 e1       	ldi	r24, 0x11	; 17
    1346:	92 e0       	ldi	r25, 0x02	; 2
    1348:	0c 94 69 13 	jmp	0x26d2	; 0x26d2 <voEEFS_WriteSystemSettings>

0000134c <u8GetAutoPowerOff>:
}

uint8_t u8GetAutoPowerOff(void){
	return tFSMSettings.u8AutoPowerOffTime;
    134c:	80 91 11 02 	lds	r24, 0x0211	; 0x800211 <tFSMSettings>
}
    1350:	08 95       	ret

00001352 <voCoffeeFSM_DrawCup>:
}

/* The following functions will set and handle different parts of the screen */

/* This will handle the coffecup symbols and set the accordingly */
void voCoffeeFSM_DrawCup(uint8_t Level){
    1352:	cf 93       	push	r28
    1354:	c8 2f       	mov	r28, r24
	/* We draw the cup and according to the level button the corresponding level */
	DPS_SetIconVisibility(VISIBLE,CUP_ONE);
    1356:	65 e0       	ldi	r22, 0x05	; 5
    1358:	80 e0       	ldi	r24, 0x00	; 0
    135a:	0e 94 e2 12 	call	0x25c4	; 0x25c4 <DPS_SetIconVisibility>
	switch(Level){
    135e:	c1 30       	cpi	r28, 0x01	; 1
    1360:	21 f0       	breq	.+8      	; 0x136a <voCoffeeFSM_DrawCup+0x18>
    1362:	50 f4       	brcc	.+20     	; 0x1378 <voCoffeeFSM_DrawCup+0x26>
	    case 0:{
			/* We are fine here */
			DPS_SetIconVisibility(INVISIBLE,CUP_TWO);
    1364:	66 e0       	ldi	r22, 0x06	; 6
    1366:	81 e0       	ldi	r24, 0x01	; 1
    1368:	02 c0       	rjmp	.+4      	; 0x136e <voCoffeeFSM_DrawCup+0x1c>
			DPS_SetIconVisibility(INVISIBLE,CUP_THREE);
		}break;
		case 1:{
			/* We set also CUP_TWO */
			DPS_SetIconVisibility(VISIBLE,CUP_TWO);
    136a:	66 e0       	ldi	r22, 0x06	; 6
    136c:	80 e0       	ldi	r24, 0x00	; 0
    136e:	0e 94 e2 12 	call	0x25c4	; 0x25c4 <DPS_SetIconVisibility>
			DPS_SetIconVisibility(INVISIBLE,CUP_THREE);
    1372:	67 e0       	ldi	r22, 0x07	; 7
    1374:	81 e0       	ldi	r24, 0x01	; 1
    1376:	06 c0       	rjmp	.+12     	; 0x1384 <voCoffeeFSM_DrawCup+0x32>
			DPS_SetIconVisibility(VISIBLE,CUP_TWO);
			DPS_SetIconVisibility(VISIBLE,CUP_THREE);
		}break;	
		
		default:{
			DPS_SetIconVisibility(VISIBLE,CUP_TWO);
    1378:	66 e0       	ldi	r22, 0x06	; 6
    137a:	80 e0       	ldi	r24, 0x00	; 0
    137c:	0e 94 e2 12 	call	0x25c4	; 0x25c4 <DPS_SetIconVisibility>
			DPS_SetIconVisibility(VISIBLE,CUP_THREE);
    1380:	67 e0       	ldi	r22, 0x07	; 7
    1382:	80 e0       	ldi	r24, 0x00	; 0
		} break;
	}
	/* Okay visibility is set here */
}
    1384:	cf 91       	pop	r28
			DPS_SetIconVisibility(VISIBLE,CUP_THREE);
		}break;	
		
		default:{
			DPS_SetIconVisibility(VISIBLE,CUP_TWO);
			DPS_SetIconVisibility(VISIBLE,CUP_THREE);
    1386:	0c 94 e2 12 	jmp	0x25c4	; 0x25c4 <DPS_SetIconVisibility>

0000138a <voProcessLidKey>:
		} break;
	}
	/* Okay visibility is set here */
}

void voProcessLidKey(coffeefsm_t emFSMState){
    138a:	cf 93       	push	r28
    138c:	c8 2f       	mov	r28, r24

	/* We need also the events of the top key */
	KeyEvent_t LidKey = strGetKeyEvent(LID_KEY);
    138e:	83 e0       	ldi	r24, 0x03	; 3
    1390:	0a df       	rcall	.-492    	; 0x11a6 <strGetKeyEvent>
	
	if( (emFSMState==coffeemaker_idle) || ( emFSMState == coffeemaker_preheat ) ){
    1392:	c2 30       	cpi	r28, 0x02	; 2
    1394:	a0 f4       	brcc	.+40     	; 0x13be <voProcessLidKey+0x34>
			/* If nothing is pressed we stay here and wait to be called */
			if ( (KeyChanged == LidKey.KeyChangeState) & ( SWITCH_PRESSED == LidKey.SwitchState) ) {
    1396:	61 30       	cpi	r22, 0x01	; 1
    1398:	91 f4       	brne	.+36     	; 0x13be <voProcessLidKey+0x34>
    139a:	71 11       	cpse	r23, r1
    139c:	10 c0       	rjmp	.+32     	; 0x13be <voProcessLidKey+0x34>
				tFSMSettings.u8coffeelevel++;
    139e:	80 91 15 02 	lds	r24, 0x0215	; 0x800215 <tFSMSettings+0x4>
    13a2:	8f 5f       	subi	r24, 0xFF	; 255
    13a4:	80 93 15 02 	sts	0x0215, r24	; 0x800215 <tFSMSettings+0x4>
				if(tFSMSettings.u8coffeelevel>2){
    13a8:	80 91 15 02 	lds	r24, 0x0215	; 0x800215 <tFSMSettings+0x4>
    13ac:	83 30       	cpi	r24, 0x03	; 3
    13ae:	10 f0       	brcs	.+4      	; 0x13b4 <voProcessLidKey+0x2a>
					tFSMSettings.u8coffeelevel=0;
    13b0:	10 92 15 02 	sts	0x0215, r1	; 0x800215 <tFSMSettings+0x4>
				}
				voEEFS_WriteSystemSettings((systemsettings_t*)&tFSMSettings);
    13b4:	81 e1       	ldi	r24, 0x11	; 17
    13b6:	92 e0       	ldi	r25, 0x02	; 2
			}
	}
}
    13b8:	cf 91       	pop	r28
			if ( (KeyChanged == LidKey.KeyChangeState) & ( SWITCH_PRESSED == LidKey.SwitchState) ) {
				tFSMSettings.u8coffeelevel++;
				if(tFSMSettings.u8coffeelevel>2){
					tFSMSettings.u8coffeelevel=0;
				}
				voEEFS_WriteSystemSettings((systemsettings_t*)&tFSMSettings);
    13ba:	0c 94 69 13 	jmp	0x26d2	; 0x26d2 <voEEFS_WriteSystemSettings>
			}
	}
}
    13be:	cf 91       	pop	r28
    13c0:	08 95       	ret

000013c2 <voCoffeeFSM_DrawArrows>:


void voCoffeeFSM_DrawArrows(bool boBrewing){
	
	if(true == boBrewing ){
		DPS_SetIconVisibility(INVISIBLE,ARROWS);		
    13c2:	60 e0       	ldi	r22, 0x00	; 0
}


void voCoffeeFSM_DrawArrows(bool boBrewing){
	
	if(true == boBrewing ){
    13c4:	88 23       	and	r24, r24
    13c6:	11 f0       	breq	.+4      	; 0x13cc <voCoffeeFSM_DrawArrows+0xa>
		DPS_SetIconVisibility(INVISIBLE,ARROWS);		
    13c8:	81 e0       	ldi	r24, 0x01	; 1
    13ca:	01 c0       	rjmp	.+2      	; 0x13ce <voCoffeeFSM_DrawArrows+0xc>
	} else {
		DPS_SetIconVisibility(VISIBLE,ARROWS);
    13cc:	80 e0       	ldi	r24, 0x00	; 0
    13ce:	0c 94 e2 12 	jmp	0x25c4	; 0x25c4 <DPS_SetIconVisibility>

000013d2 <voCoffeeFSM_DrawWaterEmpty>:


void voCoffeeFSM_DrawWaterEmpty( bool boEmpty ){
	/* we let the symbol blink if have a Empty */
	if(true == boEmpty ){
			DPS_SetBlinkFreq(BLINK_1Hz,WATER);
    13d2:	62 e0       	ldi	r22, 0x02	; 2



void voCoffeeFSM_DrawWaterEmpty( bool boEmpty ){
	/* we let the symbol blink if have a Empty */
	if(true == boEmpty ){
    13d4:	88 23       	and	r24, r24
    13d6:	11 f0       	breq	.+4      	; 0x13dc <voCoffeeFSM_DrawWaterEmpty+0xa>
			DPS_SetBlinkFreq(BLINK_1Hz,WATER);
    13d8:	83 e0       	ldi	r24, 0x03	; 3
    13da:	05 c0       	rjmp	.+10     	; 0x13e6 <voCoffeeFSM_DrawWaterEmpty+0x14>
			
	} else {
			DPS_SetIconVisibility(INVISIBLE,WATER);
    13dc:	81 e0       	ldi	r24, 0x01	; 1
    13de:	0e 94 e2 12 	call	0x25c4	; 0x25c4 <DPS_SetIconVisibility>
			DPS_SetBlinkFreq(BLINK_OFF,WATER);
    13e2:	62 e0       	ldi	r22, 0x02	; 2
    13e4:	84 e0       	ldi	r24, 0x04	; 4
    13e6:	0c 94 d8 12 	jmp	0x25b0	; 0x25b0 <DPS_SetBlinkFreq>

000013ea <voCoffeeFSM_DrawThermometer>:
}

void voCoffeeFSM_DrawThermometer( bool boHeating, bool boOvertemp ){
	/* we need to combine both bool to up to four states */
	
	if(true == boOvertemp){
    13ea:	66 23       	and	r22, r22
    13ec:	39 f0       	breq	.+14     	; 0x13fc <voCoffeeFSM_DrawThermometer+0x12>
		/* We don't care if we are heating we let the thermometer blink as fast as possible */
		DPS_SetBlinkFreq(BLINK_10Hz,THERMOMETER_INNER);
    13ee:	64 e0       	ldi	r22, 0x04	; 4
    13f0:	80 e0       	ldi	r24, 0x00	; 0
    13f2:	0e 94 d8 12 	call	0x25b0	; 0x25b0 <DPS_SetBlinkFreq>
		DPS_SetBlinkFreq(BLINK_10Hz,THERMOMETER_OUTER);
    13f6:	63 e0       	ldi	r22, 0x03	; 3
    13f8:	80 e0       	ldi	r24, 0x00	; 0
    13fa:	1a c0       	rjmp	.+52     	; 0x1430 <voCoffeeFSM_DrawThermometer+0x46>
		
	} else {
		
		if ( true == boHeating ){
			
			DPS_SetIconVisibility(VISIBLE,THERMOMETER_OUTER);
    13fc:	63 e0       	ldi	r22, 0x03	; 3
		DPS_SetBlinkFreq(BLINK_10Hz,THERMOMETER_OUTER);
		
		
	} else {
		
		if ( true == boHeating ){
    13fe:	88 23       	and	r24, r24
    1400:	51 f0       	breq	.+20     	; 0x1416 <voCoffeeFSM_DrawThermometer+0x2c>
			
			DPS_SetIconVisibility(VISIBLE,THERMOMETER_OUTER);
    1402:	80 e0       	ldi	r24, 0x00	; 0
    1404:	0e 94 e2 12 	call	0x25c4	; 0x25c4 <DPS_SetIconVisibility>
			DPS_SetBlinkFreq(BLINK_OFF,THERMOMETER_OUTER);
    1408:	63 e0       	ldi	r22, 0x03	; 3
    140a:	84 e0       	ldi	r24, 0x04	; 4
    140c:	0e 94 d8 12 	call	0x25b0	; 0x25b0 <DPS_SetBlinkFreq>
			DPS_SetBlinkFreq(BLINK_1Hz,THERMOMETER_INNER);
    1410:	64 e0       	ldi	r22, 0x04	; 4
    1412:	83 e0       	ldi	r24, 0x03	; 3
    1414:	0d c0       	rjmp	.+26     	; 0x1430 <voCoffeeFSM_DrawThermometer+0x46>
				
		} else {
			
			DPS_SetIconVisibility(INVISIBLE,THERMOMETER_OUTER);
    1416:	81 e0       	ldi	r24, 0x01	; 1
    1418:	0e 94 e2 12 	call	0x25c4	; 0x25c4 <DPS_SetIconVisibility>
			DPS_SetIconVisibility(INVISIBLE,THERMOMETER_INNER);
    141c:	64 e0       	ldi	r22, 0x04	; 4
    141e:	81 e0       	ldi	r24, 0x01	; 1
    1420:	0e 94 e2 12 	call	0x25c4	; 0x25c4 <DPS_SetIconVisibility>
			DPS_SetBlinkFreq(BLINK_OFF,THERMOMETER_OUTER);
    1424:	63 e0       	ldi	r22, 0x03	; 3
    1426:	84 e0       	ldi	r24, 0x04	; 4
    1428:	0e 94 d8 12 	call	0x25b0	; 0x25b0 <DPS_SetBlinkFreq>
			DPS_SetBlinkFreq(BLINK_OFF,THERMOMETER_INNER);
    142c:	64 e0       	ldi	r22, 0x04	; 4
    142e:	84 e0       	ldi	r24, 0x04	; 4
    1430:	0c 94 d8 12 	jmp	0x25b0	; 0x25b0 <DPS_SetBlinkFreq>

00001434 <voCoffeeFSM_Task>:
}




void voCoffeeFSM_Task( void ){
    1434:	8f 92       	push	r8
    1436:	9f 92       	push	r9
    1438:	af 92       	push	r10
    143a:	bf 92       	push	r11
    143c:	cf 92       	push	r12
    143e:	df 92       	push	r13
    1440:	ef 92       	push	r14
    1442:	ff 92       	push	r15
    1444:	0f 93       	push	r16
    1446:	1f 93       	push	r17
    1448:	cf 93       	push	r28
    144a:	df 93       	push	r29
    144c:	cd b7       	in	r28, 0x3d	; 61
    144e:	de b7       	in	r29, 0x3e	; 62
    1450:	2a 97       	sbiw	r28, 0x0a	; 10
    1452:	0f b6       	in	r0, 0x3f	; 63
    1454:	f8 94       	cli
    1456:	de bf       	out	0x3e, r29	; 62
    1458:	0f be       	out	0x3f, r0	; 63
    145a:	cd bf       	out	0x3d, r28	; 61
	
	/* Cyclic FSM Task for CoffeeProcessing */
	
	
	/* We get here our Keyevents */
	KeyEvent_t PowerButtonKeyevent = strGetKeyEvent(POWER_KEY);
    145c:	81 e0       	ldi	r24, 0x01	; 1
    145e:	a3 de       	rcall	.-698    	; 0x11a6 <strGetKeyEvent>
    1460:	16 2f       	mov	r17, r22
    1462:	f7 2e       	mov	r15, r23
	KeyEvent_t OneCupButtonKeyevent = strGetKeyEvent(ONECUP_KEY);
    1464:	80 e0       	ldi	r24, 0x00	; 0
    1466:	9f de       	rcall	.-706    	; 0x11a6 <strGetKeyEvent>
    1468:	a6 2e       	mov	r10, r22
    146a:	c7 2e       	mov	r12, r23
	KeyEvent_t TwoCupButtonKeyevent = strGetKeyEvent(TWOCUP_KEY);	
    146c:	82 e0       	ldi	r24, 0x02	; 2
    146e:	9b de       	rcall	.-714    	; 0x11a6 <strGetKeyEvent>
    1470:	b6 2e       	mov	r11, r22
    1472:	d7 2e       	mov	r13, r23
    1474:	80 91 fb 01 	lds	r24, 0x01FB	; 0x8001fb <tStatusBits>
	
	/* Set the internal Bits for processing to a known value  */
	tStatusBits.bIsBrewing=false;
    1478:	8e 7f       	andi	r24, 0xFE	; 254
    147a:	80 93 fb 01 	sts	0x01FB, r24	; 0x8001fb <tStatusBits>
    147e:	0e 94 bf 15 	call	0x2b7e	; 0x2b7e <HMon_tGetFaultAndWarning>
	
	FaultAndWarning_t HealthState = HMon_tGetFaultAndWarning();
    1482:	02 2f       	mov	r16, r18
    1484:	e4 2e       	mov	r14, r20
    1486:	2e 83       	std	Y+6, r18	; 0x06
    1488:	3f 83       	std	Y+7, r19	; 0x07
    148a:	48 87       	std	Y+8, r20	; 0x08
    148c:	59 87       	std	Y+9, r21	; 0x09
    148e:	6a 87       	std	Y+10, r22	; 0x0a
    1490:	41 11       	cpse	r20, r1
	
	/* What ever happens if we have a fault we go to off or idle depening on the current state */
	
	/* Check for HW faults an react */
	if( (HealthState.OverTemperaturFault!=0) || (HealthState.WaterLevelLowFault!=0)){
    1492:	02 c0       	rjmp	.+4      	; 0x1498 <voCoffeeFSM_Task+0x64>
    1494:	22 23       	and	r18, r18
    1496:	51 f0       	breq	.+20     	; 0x14ac <voCoffeeFSM_Task+0x78>
    1498:	80 91 1b 02 	lds	r24, 0x021B	; 0x80021b <emFSMState>
		/* We need to stop what ever we are doing and return to off or idle */
		if(emFSMState!=coffeemaker_idle){
    149c:	88 23       	and	r24, r24
    149e:	21 f0       	breq	.+8      	; 0x14a8 <voCoffeeFSM_Task+0x74>
    14a0:	81 e0       	ldi	r24, 0x01	; 1
			emFSMState=coffeemaker_preheat;
    14a2:	80 93 1b 02 	sts	0x021B, r24	; 0x80021b <emFSMState>
    14a6:	02 c0       	rjmp	.+4      	; 0x14ac <voCoffeeFSM_Task+0x78>
    14a8:	10 92 1b 02 	sts	0x021B, r1	; 0x80021b <emFSMState>
		} else {
			emFSMState=coffeemaker_idle;
    14ac:	80 91 1b 02 	lds	r24, 0x021B	; 0x80021b <emFSMState>
	
	
	
	
	
	switch( emFSMState ){
    14b0:	84 30       	cpi	r24, 0x04	; 4
    14b2:	09 f4       	brne	.+2      	; 0x14b6 <voCoffeeFSM_Task+0x82>
    14b4:	3b c1       	rjmp	.+630    	; 0x172c <voCoffeeFSM_Task+0x2f8>
    14b6:	58 f4       	brcc	.+22     	; 0x14ce <voCoffeeFSM_Task+0x9a>
    14b8:	81 30       	cpi	r24, 0x01	; 1
    14ba:	09 f4       	brne	.+2      	; 0x14be <voCoffeeFSM_Task+0x8a>
    14bc:	6d c0       	rjmp	.+218    	; 0x1598 <voCoffeeFSM_Task+0x164>
    14be:	98 f0       	brcs	.+38     	; 0x14e6 <voCoffeeFSM_Task+0xb2>
    14c0:	82 30       	cpi	r24, 0x02	; 2
    14c2:	09 f4       	brne	.+2      	; 0x14c6 <voCoffeeFSM_Task+0x92>
    14c4:	bf c0       	rjmp	.+382    	; 0x1644 <voCoffeeFSM_Task+0x210>
    14c6:	83 30       	cpi	r24, 0x03	; 3
    14c8:	09 f4       	brne	.+2      	; 0x14cc <voCoffeeFSM_Task+0x98>
    14ca:	f7 c0       	rjmp	.+494    	; 0x16ba <voCoffeeFSM_Task+0x286>
    14cc:	13 c2       	rjmp	.+1062   	; 0x18f4 <voCoffeeFSM_Task+0x4c0>
    14ce:	86 30       	cpi	r24, 0x06	; 6
    14d0:	09 f4       	brne	.+2      	; 0x14d4 <voCoffeeFSM_Task+0xa0>
    14d2:	4a c1       	rjmp	.+660    	; 0x1768 <voCoffeeFSM_Task+0x334>
    14d4:	08 f4       	brcc	.+2      	; 0x14d8 <voCoffeeFSM_Task+0xa4>
    14d6:	bb c1       	rjmp	.+886    	; 0x184e <voCoffeeFSM_Task+0x41a>
    14d8:	87 30       	cpi	r24, 0x07	; 7
    14da:	09 f4       	brne	.+2      	; 0x14de <voCoffeeFSM_Task+0xaa>
    14dc:	e8 c1       	rjmp	.+976    	; 0x18ae <voCoffeeFSM_Task+0x47a>
    14de:	88 30       	cpi	r24, 0x08	; 8
    14e0:	09 f4       	brne	.+2      	; 0x14e4 <voCoffeeFSM_Task+0xb0>
    14e2:	fb c1       	rjmp	.+1014   	; 0x18da <voCoffeeFSM_Task+0x4a6>
    14e4:	07 c2       	rjmp	.+1038   	; 0x18f4 <voCoffeeFSM_Task+0x4c0>
    14e6:	10 92 fd 01 	sts	0x01FD, r1	; 0x8001fd <u32FillTime>
		case coffeemaker_idle:{
			u32FillTime = 0;
    14ea:	10 92 fe 01 	sts	0x01FE, r1	; 0x8001fe <u32FillTime+0x1>
    14ee:	10 92 ff 01 	sts	0x01FF, r1	; 0x8001ff <u32FillTime+0x2>
    14f2:	10 92 00 02 	sts	0x0200, r1	; 0x800200 <u32FillTime+0x3>
			/* Ensure Heater is off and pump nor running */
			voBTC_SetBoilerSetTemp(INT16_MIN); /* PowerDown */
    14f6:	80 e0       	ldi	r24, 0x00	; 0
    14f8:	90 e8       	ldi	r25, 0x80	; 128
    14fa:	98 dd       	rcall	.-1232   	; 0x102c <voBTC_SetBoilerSetTemp>
			voSetPumpPowerState(POWER_OFF);
    14fc:	81 e0       	ldi	r24, 0x01	; 1
    14fe:	6e db       	rcall	.-2340   	; 0xbdc <voSetPumpPowerState>
    1500:	68 e0       	ldi	r22, 0x08	; 8
			LLS_voSetLedLightning(LED_ONECUP,LED_STATIC_OFF);
    1502:	80 e0       	ldi	r24, 0x00	; 0
    1504:	0e 94 7c 16 	call	0x2cf8	; 0x2cf8 <LLS_voSetLedLightning>
    1508:	68 e0       	ldi	r22, 0x08	; 8
			LLS_voSetLedLightning(LED_TWOCUP,LED_STATIC_OFF);
    150a:	82 e0       	ldi	r24, 0x02	; 2
    150c:	0e 94 7c 16 	call	0x2cf8	; 0x2cf8 <LLS_voSetLedLightning>
    1510:	68 e0       	ldi	r22, 0x08	; 8
			LLS_voSetLedLightning(LED_POWER,LED_STATIC_OFF);
    1512:	81 e0       	ldi	r24, 0x01	; 1
    1514:	0e 94 7c 16 	call	0x2cf8	; 0x2cf8 <LLS_voSetLedLightning>
    1518:	80 91 fb 01 	lds	r24, 0x01FB	; 0x8001fb <tStatusBits>
			/* Check for Keyevents 
			- if we have a PowerUp Button hit we wake up and do a pre heat to a default degree value 
			- if we have a OneCup Button pressed we will brew a Coffee 
			- if we have a TwoCup Button pressed we will brew two Coffee 
			*/
			tStatusBits.bFillTwoCups=0;
    151c:	8b 7f       	andi	r24, 0xFB	; 251
    151e:	80 93 fb 01 	sts	0x01FB, r24	; 0x8001fb <tStatusBits>
    1522:	11 30       	cpi	r17, 0x01	; 1
			
			/* We leave IDEL only if we have water in the Tank */
			
					if( (KeyChanged == PowerButtonKeyevent.KeyChangeState) & ( SWITCH_PRESSED == PowerButtonKeyevent.SwitchState ) ){
    1524:	a1 f4       	brne	.+40     	; 0x154e <voCoffeeFSM_Task+0x11a>
    1526:	f1 10       	cpse	r15, r1
    1528:	12 c0       	rjmp	.+36     	; 0x154e <voCoffeeFSM_Task+0x11a>
    152a:	60 91 11 02 	lds	r22, 0x0211	; 0x800211 <tFSMSettings>
						/* Okay at least we got an Power UP */
				
						/* We need to start the auto power off timer */
						voSetTimeOut(AUTO_POWER_OFFTIMER, TMS_MIN( tFSMSettings.u8AutoPowerOffTime ) );
    152e:	70 e0       	ldi	r23, 0x00	; 0
    1530:	80 e0       	ldi	r24, 0x00	; 0
    1532:	90 e0       	ldi	r25, 0x00	; 0
    1534:	20 e6       	ldi	r18, 0x60	; 96
    1536:	3a ee       	ldi	r19, 0xEA	; 234
    1538:	40 e0       	ldi	r20, 0x00	; 0
    153a:	50 e0       	ldi	r21, 0x00	; 0
    153c:	0e 94 a8 1e 	call	0x3d50	; 0x3d50 <__mulsi3>
    1540:	ab 01       	movw	r20, r22
    1542:	bc 01       	movw	r22, r24
    1544:	81 e0       	ldi	r24, 0x01	; 1
    1546:	0e 94 6b 17 	call	0x2ed6	; 0x2ed6 <voSetTimeOut>
    154a:	10 93 1b 02 	sts	0x021B, r17	; 0x80021b <emFSMState>
						emFSMState = coffeemaker_preheat;
    154e:	81 e0       	ldi	r24, 0x01	; 1
					} 
			
					//If both keys are pressed we will fill the boiler, this is a quick add on and may work ugly
					/* KeyPrioritys if a Coffee is wished this has priority and we will skip the Preheat ! */
					if( (KeyChanged == OneCupButtonKeyevent.KeyChangeState) & ( SWITCH_RELEASED == OneCupButtonKeyevent.SwitchState ) ){
    1550:	a8 12       	cpse	r10, r24
    1552:	10 c0       	rjmp	.+32     	; 0x1574 <voCoffeeFSM_Task+0x140>
    1554:	c8 12       	cpse	r12, r24
    1556:	0e c0       	rjmp	.+28     	; 0x1574 <voCoffeeFSM_Task+0x140>
    1558:	d1 10       	cpse	r13, r1
						if( SWITCH_PRESSED == TwoCupButtonKeyevent.SwitchState ){
    155a:	04 c0       	rjmp	.+8      	; 0x1564 <voCoffeeFSM_Task+0x130>
    155c:	87 e0       	ldi	r24, 0x07	; 7
							emFSMState = coffeemaker_boiler_cold_clean;
    155e:	80 93 1b 02 	sts	0x021B, r24	; 0x80021b <emFSMState>
    1562:	08 c0       	rjmp	.+16     	; 0x1574 <voCoffeeFSM_Task+0x140>
    1564:	82 e0       	ldi	r24, 0x02	; 2
						} else {
							emFSMState = coffeemaker_brewcoffee;
    1566:	80 93 1b 02 	sts	0x021B, r24	; 0x80021b <emFSMState>
    156a:	80 91 fb 01 	lds	r24, 0x01FB	; 0x8001fb <tStatusBits>
							tStatusBits.bFillTwoCups=0;
    156e:	8b 7f       	andi	r24, 0xFB	; 251
    1570:	80 93 fb 01 	sts	0x01FB, r24	; 0x8001fb <tStatusBits>
    1574:	81 e0       	ldi	r24, 0x01	; 1
						}
					} 
					
					/* Key Prioritys if a Coffee we skip pre heat and brew one */ 
					if( (KeyChanged == TwoCupButtonKeyevent.KeyChangeState) & ( SWITCH_RELEASED == TwoCupButtonKeyevent.SwitchState ) ){
    1576:	b8 12       	cpse	r11, r24
    1578:	bf c1       	rjmp	.+894    	; 0x18f8 <voCoffeeFSM_Task+0x4c4>
    157a:	d8 12       	cpse	r13, r24
    157c:	bd c1       	rjmp	.+890    	; 0x18f8 <voCoffeeFSM_Task+0x4c4>
    157e:	c1 10       	cpse	r12, r1
						if( SWITCH_PRESSED == OneCupButtonKeyevent.SwitchState ){
    1580:	02 c0       	rjmp	.+4      	; 0x1586 <voCoffeeFSM_Task+0x152>
    1582:	87 e0       	ldi	r24, 0x07	; 7
							emFSMState = coffeemaker_boiler_cold_clean;
    1584:	a7 c1       	rjmp	.+846    	; 0x18d4 <voCoffeeFSM_Task+0x4a0>
    1586:	82 e0       	ldi	r24, 0x02	; 2
						} else {
							emFSMState = coffeemaker_brewcoffee;
    1588:	80 93 1b 02 	sts	0x021B, r24	; 0x80021b <emFSMState>
    158c:	80 91 fb 01 	lds	r24, 0x01FB	; 0x8001fb <tStatusBits>
							tStatusBits.bFillTwoCups=1;	
    1590:	84 60       	ori	r24, 0x04	; 4
    1592:	80 93 fb 01 	sts	0x01FB, r24	; 0x8001fb <tStatusBits>
    1596:	b0 c1       	rjmp	.+864    	; 0x18f8 <voCoffeeFSM_Task+0x4c4>
    1598:	68 e0       	ldi	r22, 0x08	; 8
			
		}
		break;
		
		case coffeemaker_preheat:{
			LLS_voSetLedLightning(LED_ONECUP,LED_STATIC_OFF);
    159a:	80 e0       	ldi	r24, 0x00	; 0
    159c:	0e 94 7c 16 	call	0x2cf8	; 0x2cf8 <LLS_voSetLedLightning>
    15a0:	68 e0       	ldi	r22, 0x08	; 8
			LLS_voSetLedLightning(LED_TWOCUP,LED_STATIC_OFF);
    15a2:	82 e0       	ldi	r24, 0x02	; 2
    15a4:	0e 94 7c 16 	call	0x2cf8	; 0x2cf8 <LLS_voSetLedLightning>
    15a8:	81 e0       	ldi	r24, 0x01	; 1
			/* We start heating until we got 75C this will at least kill the legionella bakteria in the boiler */
			
			
			/*  We need to switch off the pump  */
			voSetPumpState(PUMP_OFF);
    15aa:	0e 94 1e 17 	call	0x2e3c	; 0x2e3c <voSetPumpState>
    15ae:	80 91 fb 01 	lds	r24, 0x01FB	; 0x8001fb <tStatusBits>
			
			tStatusBits.bFillTwoCups=0;
    15b2:	8b 7f       	andi	r24, 0xFB	; 251
    15b4:	80 93 fb 01 	sts	0x01FB, r24	; 0x8001fb <tStatusBits>
			//voBTC_SetBoilerSetTemp(7500); /* PowerDown */
			/* We read the Preheat Temp form the Programm */
			if(HealthState.WaterLevelLowFault!=false){
    15b8:	00 23       	and	r16, r16
    15ba:	29 f0       	breq	.+10     	; 0x15c6 <voCoffeeFSM_Task+0x192>
				/* Water is empty we stop heating here */
				voBTC_SetBoilerSetTemp(INT16_MIN); /* 0C */
    15bc:	80 e0       	ldi	r24, 0x00	; 0
    15be:	90 e8       	ldi	r25, 0x80	; 128
    15c0:	35 dd       	rcall	.-1430   	; 0x102c <voBTC_SetBoilerSetTemp>
    15c2:	60 e0       	ldi	r22, 0x00	; 0
				LLS_voSetLedLightning(LED_POWER,LED_BLINK_10Hz);
    15c4:	10 c0       	rjmp	.+32     	; 0x15e6 <voCoffeeFSM_Task+0x1b2>
			} else {
				
				voBTC_SetBoilerSetTemp(tFSMSettings.u16StandbyTemp);
    15c6:	80 91 16 02 	lds	r24, 0x0216	; 0x800216 <tFSMSettings+0x5>
    15ca:	90 91 17 02 	lds	r25, 0x0217	; 0x800217 <tFSMSettings+0x6>
    15ce:	2e dd       	rcall	.-1444   	; 0x102c <voBTC_SetBoilerSetTemp>
    15d0:	32 dd       	rcall	.-1436   	; 0x1036 <s16BTC_GetCurrentBoilerTemp>
				/* We read the Boiler Temp */
				if(s16BTC_GetCurrentBoilerTemp()<tFSMSettings.u16StandbyTemp){
    15d2:	20 91 16 02 	lds	r18, 0x0216	; 0x800216 <tFSMSettings+0x5>
    15d6:	30 91 17 02 	lds	r19, 0x0217	; 0x800217 <tFSMSettings+0x6>
    15da:	82 17       	cp	r24, r18
    15dc:	93 07       	cpc	r25, r19
    15de:	10 f4       	brcc	.+4      	; 0x15e4 <voCoffeeFSM_Task+0x1b0>
    15e0:	63 e0       	ldi	r22, 0x03	; 3
    15e2:	01 c0       	rjmp	.+2      	; 0x15e6 <voCoffeeFSM_Task+0x1b2>
					LLS_voSetLedLightning(LED_POWER,LED_BLINK_1Hz);
    15e4:	69 e0       	ldi	r22, 0x09	; 9
    15e6:	81 e0       	ldi	r24, 0x01	; 1
				} else {
					LLS_voSetLedLightning(LED_POWER,LED_STATIC_ON);
    15e8:	0e 94 7c 16 	call	0x2cf8	; 0x2cf8 <LLS_voSetLedLightning>
    15ec:	11 30       	cpi	r17, 0x01	; 1
    15ee:	21 f4       	brne	.+8      	; 0x15f8 <voCoffeeFSM_Task+0x1c4>
				}
			
			}
			
			if( (KeyChanged == PowerButtonKeyevent.KeyChangeState) & ( SWITCH_PRESSED == PowerButtonKeyevent.SwitchState ) ){
    15f0:	f1 10       	cpse	r15, r1
    15f2:	02 c0       	rjmp	.+4      	; 0x15f8 <voCoffeeFSM_Task+0x1c4>
    15f4:	10 92 1b 02 	sts	0x021B, r1	; 0x80021b <emFSMState>
				/* Okay at least we got an Power DOWN */
				emFSMState = coffeemaker_idle;
    15f8:	81 e0       	ldi	r24, 0x01	; 1
    15fa:	a8 12       	cpse	r10, r24
			}
			
			/* KeyPrioritys if a Coffee is wished this has priority and we will skip the Preheat ! */
			if( (KeyChanged == OneCupButtonKeyevent.KeyChangeState) & ( SWITCH_PRESSED == OneCupButtonKeyevent.SwitchState ) ){
    15fc:	0a c0       	rjmp	.+20     	; 0x1612 <voCoffeeFSM_Task+0x1de>
    15fe:	c1 10       	cpse	r12, r1
    1600:	08 c0       	rjmp	.+16     	; 0x1612 <voCoffeeFSM_Task+0x1de>
    1602:	82 e0       	ldi	r24, 0x02	; 2
    1604:	80 93 1b 02 	sts	0x021B, r24	; 0x80021b <emFSMState>
				emFSMState = coffeemaker_brewcoffee;
    1608:	80 91 fb 01 	lds	r24, 0x01FB	; 0x8001fb <tStatusBits>
				tStatusBits.bFillTwoCups=0;
    160c:	8b 7f       	andi	r24, 0xFB	; 251
    160e:	80 93 fb 01 	sts	0x01FB, r24	; 0x8001fb <tStatusBits>
    1612:	81 e0       	ldi	r24, 0x01	; 1
    1614:	b8 12       	cpse	r11, r24
			}
			
			if( (KeyChanged == TwoCupButtonKeyevent.KeyChangeState) & ( SWITCH_PRESSED == TwoCupButtonKeyevent.SwitchState ) ){
    1616:	0a c0       	rjmp	.+20     	; 0x162c <voCoffeeFSM_Task+0x1f8>
    1618:	d1 10       	cpse	r13, r1
    161a:	08 c0       	rjmp	.+16     	; 0x162c <voCoffeeFSM_Task+0x1f8>
    161c:	82 e0       	ldi	r24, 0x02	; 2
    161e:	80 93 1b 02 	sts	0x021B, r24	; 0x80021b <emFSMState>
				emFSMState = coffeemaker_brewcoffee;
    1622:	80 91 fb 01 	lds	r24, 0x01FB	; 0x8001fb <tStatusBits>
				tStatusBits.bFillTwoCups=1;
    1626:	84 60       	ori	r24, 0x04	; 4
    1628:	80 93 fb 01 	sts	0x01FB, r24	; 0x8001fb <tStatusBits>
    162c:	80 91 11 02 	lds	r24, 0x0211	; 0x800211 <tFSMSettings>
			}		
			
			/* We need a autopower off timer here */
			if(tFSMSettings.u8AutoPowerOffTime!=0){
    1630:	88 23       	and	r24, r24
    1632:	09 f4       	brne	.+2      	; 0x1636 <voCoffeeFSM_Task+0x202>
    1634:	61 c1       	rjmp	.+706    	; 0x18f8 <voCoffeeFSM_Task+0x4c4>
    1636:	81 e0       	ldi	r24, 0x01	; 1
    1638:	0e 94 7a 17 	call	0x2ef4	; 0x2ef4 <u8GetTimeElapsed>
				if( u8GetTimeElapsed(AUTO_POWER_OFFTIMER)==TMS_ELAPSED){
    163c:	81 30       	cpi	r24, 0x01	; 1
    163e:	09 f0       	breq	.+2      	; 0x1642 <voCoffeeFSM_Task+0x20e>
    1640:	5b c1       	rjmp	.+694    	; 0x18f8 <voCoffeeFSM_Task+0x4c4>
    1642:	58 c1       	rjmp	.+688    	; 0x18f4 <voCoffeeFSM_Task+0x4c0>
    1644:	80 91 fb 01 	lds	r24, 0x01FB	; 0x8001fb <tStatusBits>
		}
		break;
				
		case coffeemaker_brewcoffee:{
			/* Statusbits setzen */
			tStatusBits.bIsBrewing=1;
    1648:	81 60       	ori	r24, 0x01	; 1
    164a:	80 93 fb 01 	sts	0x01FB, r24	; 0x8001fb <tStatusBits>
    164e:	68 e0       	ldi	r22, 0x08	; 8
    1650:	81 e0       	ldi	r24, 0x01	; 1
			
			/* We set the LEDs for the Front */
			
			LLS_voSetLedLightning(LED_POWER,LED_STATIC_OFF);
    1652:	0e 94 7c 16 	call	0x2cf8	; 0x2cf8 <LLS_voSetLedLightning>
    1656:	80 91 fb 01 	lds	r24, 0x01FB	; 0x8001fb <tStatusBits>
			/* Set ONE Cup off */
			/* Let two Cup Blink */
			if(tStatusBits.bFillTwoCups==0){
    165a:	68 e0       	ldi	r22, 0x08	; 8
    165c:	82 fd       	sbrc	r24, 2
				LLS_voSetLedLightning(LED_TWOCUP,LED_STATIC_OFF);
    165e:	06 c0       	rjmp	.+12     	; 0x166c <voCoffeeFSM_Task+0x238>
			/* We set the LEDs for the Front */
			
			LLS_voSetLedLightning(LED_POWER,LED_STATIC_OFF);
			/* Set ONE Cup off */
			/* Let two Cup Blink */
			if(tStatusBits.bFillTwoCups==0){
    1660:	82 e0       	ldi	r24, 0x02	; 2
    1662:	0e 94 7c 16 	call	0x2cf8	; 0x2cf8 <LLS_voSetLedLightning>
				LLS_voSetLedLightning(LED_TWOCUP,LED_STATIC_OFF);
    1666:	62 e0       	ldi	r22, 0x02	; 2
    1668:	80 e0       	ldi	r24, 0x00	; 0
				LLS_voSetLedLightning(LED_ONECUP,LED_BLINK_2Hz);
    166a:	05 c0       	rjmp	.+10     	; 0x1676 <voCoffeeFSM_Task+0x242>
    166c:	80 e0       	ldi	r24, 0x00	; 0
    166e:	0e 94 7c 16 	call	0x2cf8	; 0x2cf8 <LLS_voSetLedLightning>
				
			} else {
				LLS_voSetLedLightning(LED_ONECUP,LED_STATIC_OFF);
    1672:	62 e0       	ldi	r22, 0x02	; 2
    1674:	82 e0       	ldi	r24, 0x02	; 2
				LLS_voSetLedLightning(LED_TWOCUP,LED_BLINK_2Hz);
    1676:	0e 94 7c 16 	call	0x2cf8	; 0x2cf8 <LLS_voSetLedLightning>
    167a:	80 91 01 02 	lds	r24, 0x0201	; 0x800201 <tFSMCoffeProg>
			
			
			
			
			/* We need to heat up to 90C */
			voBTC_SetBoilerSetTemp(tFSMCoffeProg.u32HeaterTemp+(300)); /* Set to +3 and hope to reach it */
    167e:	90 91 02 02 	lds	r25, 0x0202	; 0x800202 <tFSMCoffeProg+0x1>
    1682:	84 5d       	subi	r24, 0xD4	; 212
    1684:	9e 4f       	sbci	r25, 0xFE	; 254
    1686:	d2 dc       	rcall	.-1628   	; 0x102c <voBTC_SetBoilerSetTemp>
    1688:	d6 dc       	rcall	.-1620   	; 0x1036 <s16BTC_GetCurrentBoilerTemp>
    168a:	40 91 01 02 	lds	r20, 0x0201	; 0x800201 <tFSMCoffeProg>
			int16_t LocBoilerTemp = s16BTC_GetCurrentBoilerTemp(); /* We got the temp in 1/100C */
    168e:	50 91 02 02 	lds	r21, 0x0202	; 0x800202 <tFSMCoffeProg+0x1>
			if( (int32_t)(LocBoilerTemp) < (int32_t)(tFSMCoffeProg.u32HeaterTemp )){
    1692:	09 2e       	mov	r0, r25
    1694:	00 0c       	add	r0, r0
    1696:	aa 0b       	sbc	r26, r26
    1698:	bb 0b       	sbc	r27, r27
    169a:	60 e0       	ldi	r22, 0x00	; 0
    169c:	70 e0       	ldi	r23, 0x00	; 0
    169e:	84 17       	cp	r24, r20
    16a0:	95 07       	cpc	r25, r21
    16a2:	a6 07       	cpc	r26, r22
    16a4:	b7 07       	cpc	r27, r23
    16a6:	14 f4       	brge	.+4      	; 0x16ac <voCoffeeFSM_Task+0x278>
    16a8:	00 00       	nop
    16aa:	3a c0       	rjmp	.+116    	; 0x1720 <voCoffeeFSM_Task+0x2ec>
    16ac:	80 e0       	ldi	r24, 0x00	; 0
				/* We need to wait untill we get up to 90C */
				/* If we can't reach within 5 Minutes we stop the heatup */
				asm("nop");
    16ae:	0e 94 1e 17 	call	0x2e3c	; 0x2e3c <voSetPumpState>
					
				
				/* and we also need to set a Timout if we can't reach out temp */
			} else {
				/* Next is to start the Pump and deliver on Coffee */
				voSetPumpState(PUMP_RUNNING);	
    16b2:	83 e0       	ldi	r24, 0x03	; 3
    16b4:	80 93 1b 02 	sts	0x021B, r24	; 0x80021b <emFSMState>
				emFSMState=coffeemaker_fillcup;
    16b8:	33 c0       	rjmp	.+102    	; 0x1720 <voCoffeeFSM_Task+0x2ec>
    16ba:	68 e0       	ldi	r22, 0x08	; 8
    16bc:	81 e0       	ldi	r24, 0x01	; 1
    16be:	0e 94 7c 16 	call	0x2cf8	; 0x2cf8 <LLS_voSetLedLightning>
			
		}break;
		
		case coffeemaker_fillcup: {
		
			LLS_voSetLedLightning(LED_POWER,LED_STATIC_OFF);
    16c2:	80 91 fb 01 	lds	r24, 0x01FB	; 0x8001fb <tStatusBits>
    16c6:	68 e0       	ldi	r22, 0x08	; 8
			if(tStatusBits.bFillTwoCups==0){
    16c8:	82 fd       	sbrc	r24, 2
    16ca:	06 c0       	rjmp	.+12     	; 0x16d8 <voCoffeeFSM_Task+0x2a4>
				LLS_voSetLedLightning(LED_TWOCUP,LED_STATIC_OFF);
    16cc:	82 e0       	ldi	r24, 0x02	; 2
		}break;
		
		case coffeemaker_fillcup: {
		
			LLS_voSetLedLightning(LED_POWER,LED_STATIC_OFF);
			if(tStatusBits.bFillTwoCups==0){
    16ce:	0e 94 7c 16 	call	0x2cf8	; 0x2cf8 <LLS_voSetLedLightning>
				LLS_voSetLedLightning(LED_TWOCUP,LED_STATIC_OFF);
    16d2:	62 e0       	ldi	r22, 0x02	; 2
    16d4:	80 e0       	ldi	r24, 0x00	; 0
    16d6:	05 c0       	rjmp	.+10     	; 0x16e2 <voCoffeeFSM_Task+0x2ae>
				LLS_voSetLedLightning(LED_ONECUP,LED_BLINK_2Hz);
    16d8:	80 e0       	ldi	r24, 0x00	; 0
    16da:	0e 94 7c 16 	call	0x2cf8	; 0x2cf8 <LLS_voSetLedLightning>
			} else {
				LLS_voSetLedLightning(LED_ONECUP,LED_STATIC_OFF);
    16de:	62 e0       	ldi	r22, 0x02	; 2
    16e0:	82 e0       	ldi	r24, 0x02	; 2
    16e2:	0e 94 7c 16 	call	0x2cf8	; 0x2cf8 <LLS_voSetLedLightning>
				LLS_voSetLedLightning(LED_TWOCUP,LED_BLINK_2Hz);
    16e6:	0e 94 29 17 	call	0x2e52	; 0x2e52 <u32PSE_GetCurrentRuntimeMS>
    16ea:	20 91 05 02 	lds	r18, 0x0205	; 0x800205 <tFSMCoffeProg+0x4>
			}
			
			
			if(u32PSE_GetCurrentRuntimeMS()<tFSMCoffeProg.u16PreWaterLevel){
    16ee:	30 91 06 02 	lds	r19, 0x0206	; 0x800206 <tFSMCoffeProg+0x5>
    16f2:	49 01       	movw	r8, r18
    16f4:	a1 2c       	mov	r10, r1
    16f6:	b1 2c       	mov	r11, r1
    16f8:	68 15       	cp	r22, r8
    16fa:	79 05       	cpc	r23, r9
    16fc:	8a 05       	cpc	r24, r10
    16fe:	9b 05       	cpc	r25, r11
    1700:	78 f0       	brcs	.+30     	; 0x1720 <voCoffeeFSM_Task+0x2ec>
    1702:	84 e0       	ldi	r24, 0x04	; 4
    1704:	80 93 1b 02 	sts	0x021B, r24	; 0x80021b <emFSMState>
				/* Do nothing */
			} else {
				/*  Coffee is ready  */
				emFSMState =coffeemaker_wait_xsec_cup;
    1708:	81 e0       	ldi	r24, 0x01	; 1
    170a:	0e 94 1e 17 	call	0x2e3c	; 0x2e3c <voSetPumpState>
				voSetPumpState(PUMP_OFF);
    170e:	40 91 07 02 	lds	r20, 0x0207	; 0x800207 <tFSMCoffeProg+0x6>
    1712:	50 91 08 02 	lds	r21, 0x0208	; 0x800208 <tFSMCoffeProg+0x7>
				/* Reads now user prog */
				voSetTimeOut(PRE_HEAT_TIMER, tFSMCoffeProg.u16PreWaterWait );
    1716:	60 e0       	ldi	r22, 0x00	; 0
    1718:	70 e0       	ldi	r23, 0x00	; 0
    171a:	80 e0       	ldi	r24, 0x00	; 0
    171c:	0e 94 6b 17 	call	0x2ed6	; 0x2ed6 <voSetTimeOut>
    1720:	11 30       	cpi	r17, 0x01	; 1
    1722:	09 f0       	breq	.+2      	; 0x1726 <voCoffeeFSM_Task+0x2f2>
    1724:	e9 c0       	rjmp	.+466    	; 0x18f8 <voCoffeeFSM_Task+0x4c4>
			}
			if( (KeyChanged == PowerButtonKeyevent.KeyChangeState) & ( SWITCH_PRESSED == PowerButtonKeyevent.SwitchState ) ){
    1726:	f1 10       	cpse	r15, r1
    1728:	e7 c0       	rjmp	.+462    	; 0x18f8 <voCoffeeFSM_Task+0x4c4>
    172a:	e4 c0       	rjmp	.+456    	; 0x18f4 <voCoffeeFSM_Task+0x4c0>
    172c:	68 e0       	ldi	r22, 0x08	; 8
    172e:	81 e0       	ldi	r24, 0x01	; 1
    1730:	0e 94 7c 16 	call	0x2cf8	; 0x2cf8 <LLS_voSetLedLightning>
		} break;
		
		case coffeemaker_wait_xsec_cup:{
			
			
			LLS_voSetLedLightning(LED_POWER,LED_STATIC_OFF);
    1734:	80 91 fb 01 	lds	r24, 0x01FB	; 0x8001fb <tStatusBits>
    1738:	68 e0       	ldi	r22, 0x08	; 8
			
			if(tStatusBits.bFillTwoCups==0){
    173a:	82 fd       	sbrc	r24, 2
    173c:	06 c0       	rjmp	.+12     	; 0x174a <voCoffeeFSM_Task+0x316>
				LLS_voSetLedLightning(LED_TWOCUP,LED_STATIC_OFF);
    173e:	82 e0       	ldi	r24, 0x02	; 2
		case coffeemaker_wait_xsec_cup:{
			
			
			LLS_voSetLedLightning(LED_POWER,LED_STATIC_OFF);
			
			if(tStatusBits.bFillTwoCups==0){
    1740:	0e 94 7c 16 	call	0x2cf8	; 0x2cf8 <LLS_voSetLedLightning>
				LLS_voSetLedLightning(LED_TWOCUP,LED_STATIC_OFF);
    1744:	62 e0       	ldi	r22, 0x02	; 2
    1746:	80 e0       	ldi	r24, 0x00	; 0
    1748:	05 c0       	rjmp	.+10     	; 0x1754 <voCoffeeFSM_Task+0x320>
				LLS_voSetLedLightning(LED_ONECUP,LED_BLINK_2Hz);
    174a:	80 e0       	ldi	r24, 0x00	; 0
    174c:	0e 94 7c 16 	call	0x2cf8	; 0x2cf8 <LLS_voSetLedLightning>
			} else {
				LLS_voSetLedLightning(LED_ONECUP,LED_STATIC_OFF);
    1750:	62 e0       	ldi	r22, 0x02	; 2
    1752:	82 e0       	ldi	r24, 0x02	; 2
    1754:	0e 94 7c 16 	call	0x2cf8	; 0x2cf8 <LLS_voSetLedLightning>
				LLS_voSetLedLightning(LED_TWOCUP,LED_BLINK_2Hz);
    1758:	80 e0       	ldi	r24, 0x00	; 0
    175a:	0e 94 7a 17 	call	0x2ef4	; 0x2ef4 <u8GetTimeElapsed>
			}
			
			if(u8GetTimeElapsed(PRE_HEAT_TIMER) == TMS_NOT_ELAPSED){
    175e:	88 23       	and	r24, r24
    1760:	09 f4       	brne	.+2      	; 0x1764 <voCoffeeFSM_Task+0x330>
    1762:	c6 c0       	rjmp	.+396    	; 0x18f0 <voCoffeeFSM_Task+0x4bc>
    1764:	86 e0       	ldi	r24, 0x06	; 6
    1766:	b6 c0       	rjmp	.+364    	; 0x18d4 <voCoffeeFSM_Task+0x4a0>
    1768:	80 91 03 02 	lds	r24, 0x0203	; 0x800203 <tFSMCoffeProg+0x2>
				/* Keep in this state */
				asm("nop");
			} else {
			   /* move to next one */
			    emFSMState = coffeemaker_cont_calc_cup;
    176c:	90 91 04 02 	lds	r25, 0x0204	; 0x800204 <tFSMCoffeProg+0x3>
			
		} break;
		
		case coffeemaker_cont_calc_cup:{
			
			u32FillTime = tFSMCoffeProg.u16WaterLevelFull  ;
    1770:	a0 e0       	ldi	r26, 0x00	; 0
    1772:	b0 e0       	ldi	r27, 0x00	; 0
    1774:	80 93 fd 01 	sts	0x01FD, r24	; 0x8001fd <u32FillTime>
    1778:	90 93 fe 01 	sts	0x01FE, r25	; 0x8001fe <u32FillTime+0x1>
    177c:	a0 93 ff 01 	sts	0x01FF, r26	; 0x8001ff <u32FillTime+0x2>
    1780:	b0 93 00 02 	sts	0x0200, r27	; 0x800200 <u32FillTime+0x3>
    1784:	80 91 fb 01 	lds	r24, 0x01FB	; 0x8001fb <tStatusBits>
    1788:	82 ff       	sbrs	r24, 2
			if(tStatusBits.bFillTwoCups!=0){
    178a:	14 c0       	rjmp	.+40     	; 0x17b4 <voCoffeeFSM_Task+0x380>
    178c:	80 91 fd 01 	lds	r24, 0x01FD	; 0x8001fd <u32FillTime>
    1790:	90 91 fe 01 	lds	r25, 0x01FE	; 0x8001fe <u32FillTime+0x1>
				u32FillTime=u32FillTime*2;
    1794:	a0 91 ff 01 	lds	r26, 0x01FF	; 0x8001ff <u32FillTime+0x2>
    1798:	b0 91 00 02 	lds	r27, 0x0200	; 0x800200 <u32FillTime+0x3>
    179c:	88 0f       	add	r24, r24
    179e:	99 1f       	adc	r25, r25
    17a0:	aa 1f       	adc	r26, r26
    17a2:	bb 1f       	adc	r27, r27
    17a4:	80 93 fd 01 	sts	0x01FD, r24	; 0x8001fd <u32FillTime>
    17a8:	90 93 fe 01 	sts	0x01FE, r25	; 0x8001fe <u32FillTime+0x1>
    17ac:	a0 93 ff 01 	sts	0x01FF, r26	; 0x8001ff <u32FillTime+0x2>
    17b0:	b0 93 00 02 	sts	0x0200, r27	; 0x800200 <u32FillTime+0x3>
    17b4:	80 91 15 02 	lds	r24, 0x0215	; 0x800215 <tFSMSettings+0x4>
    17b8:	81 30       	cpi	r24, 0x01	; 1
			}
			
			switch(tFSMSettings.u8coffeelevel){
    17ba:	51 f0       	breq	.+20     	; 0x17d0 <voCoffeeFSM_Task+0x39c>
    17bc:	30 f5       	brcc	.+76     	; 0x180a <voCoffeeFSM_Task+0x3d6>
    17be:	60 91 fd 01 	lds	r22, 0x01FD	; 0x8001fd <u32FillTime>
    17c2:	70 91 fe 01 	lds	r23, 0x01FE	; 0x8001fe <u32FillTime+0x1>
				case 0:{
					u32FillTime=u32FillTime*1/3;
    17c6:	80 91 ff 01 	lds	r24, 0x01FF	; 0x8001ff <u32FillTime+0x2>
    17ca:	90 91 00 02 	lds	r25, 0x0200	; 0x800200 <u32FillTime+0x3>
    17ce:	0e c0       	rjmp	.+28     	; 0x17ec <voCoffeeFSM_Task+0x3b8>
    17d0:	80 91 fd 01 	lds	r24, 0x01FD	; 0x8001fd <u32FillTime>
    17d4:	90 91 fe 01 	lds	r25, 0x01FE	; 0x8001fe <u32FillTime+0x1>
				} break;
				
				case 1:{
					u32FillTime=u32FillTime*2/3;
    17d8:	a0 91 ff 01 	lds	r26, 0x01FF	; 0x8001ff <u32FillTime+0x2>
    17dc:	b0 91 00 02 	lds	r27, 0x0200	; 0x800200 <u32FillTime+0x3>
    17e0:	bc 01       	movw	r22, r24
    17e2:	cd 01       	movw	r24, r26
    17e4:	66 0f       	add	r22, r22
    17e6:	77 1f       	adc	r23, r23
    17e8:	88 1f       	adc	r24, r24
    17ea:	99 1f       	adc	r25, r25
    17ec:	23 e0       	ldi	r18, 0x03	; 3
    17ee:	30 e0       	ldi	r19, 0x00	; 0
    17f0:	40 e0       	ldi	r20, 0x00	; 0
    17f2:	50 e0       	ldi	r21, 0x00	; 0
    17f4:	0e 94 d5 1e 	call	0x3daa	; 0x3daa <__udivmodsi4>
    17f8:	20 93 fd 01 	sts	0x01FD, r18	; 0x8001fd <u32FillTime>
    17fc:	30 93 fe 01 	sts	0x01FE, r19	; 0x8001fe <u32FillTime+0x1>
    1800:	40 93 ff 01 	sts	0x01FF, r20	; 0x8001ff <u32FillTime+0x2>
    1804:	50 93 00 02 	sts	0x0200, r21	; 0x800200 <u32FillTime+0x3>
    1808:	10 c0       	rjmp	.+32     	; 0x182a <voCoffeeFSM_Task+0x3f6>
    180a:	80 91 fd 01 	lds	r24, 0x01FD	; 0x8001fd <u32FillTime>
				}break;
    180e:	90 91 fe 01 	lds	r25, 0x01FE	; 0x8001fe <u32FillTime+0x1>
				case 2:{
					u32FillTime=u32FillTime;
				}break;
				
				default:{
					u32FillTime=u32FillTime;
    1812:	a0 91 ff 01 	lds	r26, 0x01FF	; 0x8001ff <u32FillTime+0x2>
    1816:	b0 91 00 02 	lds	r27, 0x0200	; 0x800200 <u32FillTime+0x3>
    181a:	80 93 fd 01 	sts	0x01FD, r24	; 0x8001fd <u32FillTime>
    181e:	90 93 fe 01 	sts	0x01FE, r25	; 0x8001fe <u32FillTime+0x1>
    1822:	a0 93 ff 01 	sts	0x01FF, r26	; 0x8001ff <u32FillTime+0x2>
    1826:	b0 93 00 02 	sts	0x0200, r27	; 0x800200 <u32FillTime+0x3>
    182a:	85 e0       	ldi	r24, 0x05	; 5
    182c:	80 93 1b 02 	sts	0x021B, r24	; 0x80021b <emFSMState>
				}break;
			}
			
			emFSMState =coffeemaker_cont_fill_cup;
    1830:	40 91 fd 01 	lds	r20, 0x01FD	; 0x8001fd <u32FillTime>
    1834:	50 91 fe 01 	lds	r21, 0x01FE	; 0x8001fe <u32FillTime+0x1>
			voSetTimeOut(PUMP_TIMER,u32FillTime);
    1838:	60 91 ff 01 	lds	r22, 0x01FF	; 0x8001ff <u32FillTime+0x2>
    183c:	70 91 00 02 	lds	r23, 0x0200	; 0x800200 <u32FillTime+0x3>
    1840:	82 e0       	ldi	r24, 0x02	; 2
    1842:	0e 94 6b 17 	call	0x2ed6	; 0x2ed6 <voSetTimeOut>
    1846:	80 e0       	ldi	r24, 0x00	; 0
    1848:	0e 94 1e 17 	call	0x2e3c	; 0x2e3c <voSetPumpState>
		    voSetPumpState(PUMP_RUNNING);	   	
    184c:	55 c0       	rjmp	.+170    	; 0x18f8 <voCoffeeFSM_Task+0x4c4>
    184e:	68 e0       	ldi	r22, 0x08	; 8
    1850:	81 e0       	ldi	r24, 0x01	; 1
		} break;
    1852:	0e 94 7c 16 	call	0x2cf8	; 0x2cf8 <LLS_voSetLedLightning>
		
		case coffeemaker_cont_fill_cup:{
			
					
			LLS_voSetLedLightning(LED_POWER,LED_STATIC_OFF);
    1856:	80 91 fb 01 	lds	r24, 0x01FB	; 0x8001fb <tStatusBits>
    185a:	62 e0       	ldi	r22, 0x02	; 2
			/* We need to see if we have one or two cups filling */
			
			
			if(tStatusBits.bFillTwoCups!=0){
    185c:	82 ff       	sbrs	r24, 2
    185e:	06 c0       	rjmp	.+12     	; 0x186c <voCoffeeFSM_Task+0x438>
				LLS_voSetLedLightning(LED_TWOCUP,LED_BLINK_2Hz);
    1860:	82 e0       	ldi	r24, 0x02	; 2
					
			LLS_voSetLedLightning(LED_POWER,LED_STATIC_OFF);
			/* We need to see if we have one or two cups filling */
			
			
			if(tStatusBits.bFillTwoCups!=0){
    1862:	0e 94 7c 16 	call	0x2cf8	; 0x2cf8 <LLS_voSetLedLightning>
				LLS_voSetLedLightning(LED_TWOCUP,LED_BLINK_2Hz);
    1866:	68 e0       	ldi	r22, 0x08	; 8
    1868:	80 e0       	ldi	r24, 0x00	; 0
    186a:	05 c0       	rjmp	.+10     	; 0x1876 <voCoffeeFSM_Task+0x442>
				LLS_voSetLedLightning(LED_ONECUP,LED_STATIC_OFF);
    186c:	80 e0       	ldi	r24, 0x00	; 0
    186e:	0e 94 7c 16 	call	0x2cf8	; 0x2cf8 <LLS_voSetLedLightning>
				
			} else {
				LLS_voSetLedLightning(LED_ONECUP,LED_BLINK_2Hz);
    1872:	68 e0       	ldi	r22, 0x08	; 8
    1874:	82 e0       	ldi	r24, 0x02	; 2
    1876:	0e 94 7c 16 	call	0x2cf8	; 0x2cf8 <LLS_voSetLedLightning>
				LLS_voSetLedLightning(LED_TWOCUP,LED_STATIC_OFF);
    187a:	82 e0       	ldi	r24, 0x02	; 2
    187c:	0e 94 7a 17 	call	0x2ef4	; 0x2ef4 <u8GetTimeElapsed>
			}
			
			
			
			
			if(u8GetTimeElapsed(PUMP_TIMER)==TMS_NOT_ELAPSED){
    1880:	88 23       	and	r24, r24
    1882:	d1 f1       	breq	.+116    	; 0x18f8 <voCoffeeFSM_Task+0x4c4>
    1884:	81 e0       	ldi	r24, 0x01	; 1
    1886:	0e 94 1e 17 	call	0x2e3c	; 0x2e3c <voSetPumpState>
				/* Do nothing */
			} else {
				/*  Coffee is ready  */
				voSetPumpState(PUMP_OFF);
    188a:	60 91 11 02 	lds	r22, 0x0211	; 0x800211 <tFSMSettings>
    188e:	70 e0       	ldi	r23, 0x00	; 0
				voSetTimeOut(AUTO_POWER_OFFTIMER, TMS_MIN( tFSMSettings.u8AutoPowerOffTime ) );
    1890:	80 e0       	ldi	r24, 0x00	; 0
    1892:	90 e0       	ldi	r25, 0x00	; 0
    1894:	20 e6       	ldi	r18, 0x60	; 96
    1896:	3a ee       	ldi	r19, 0xEA	; 234
    1898:	40 e0       	ldi	r20, 0x00	; 0
    189a:	50 e0       	ldi	r21, 0x00	; 0
    189c:	0e 94 a8 1e 	call	0x3d50	; 0x3d50 <__mulsi3>
    18a0:	ab 01       	movw	r20, r22
    18a2:	bc 01       	movw	r22, r24
    18a4:	81 e0       	ldi	r24, 0x01	; 1
    18a6:	0e 94 6b 17 	call	0x2ed6	; 0x2ed6 <voSetTimeOut>
    18aa:	81 e0       	ldi	r24, 0x01	; 1
    18ac:	13 c0       	rjmp	.+38     	; 0x18d4 <voCoffeeFSM_Task+0x4a0>
				emFSMState =coffeemaker_preheat;
    18ae:	80 e0       	ldi	r24, 0x00	; 0
    18b0:	90 e8       	ldi	r25, 0x80	; 128
			
			
		}break;
		
		case coffeemaker_boiler_cold_clean:{
			voBTC_SetBoilerSetTemp(INT16_MIN); /* 0C */
    18b2:	bc db       	rcall	.-2184   	; 0x102c <voBTC_SetBoilerSetTemp>
    18b4:	62 e0       	ldi	r22, 0x02	; 2
    18b6:	80 e0       	ldi	r24, 0x00	; 0
    18b8:	0e 94 7c 16 	call	0x2cf8	; 0x2cf8 <LLS_voSetLedLightning>
			LLS_voSetLedLightning(LED_ONECUP,LED_BLINK_2Hz);
    18bc:	62 e0       	ldi	r22, 0x02	; 2
    18be:	81 e0       	ldi	r24, 0x01	; 1
    18c0:	0e 94 7c 16 	call	0x2cf8	; 0x2cf8 <LLS_voSetLedLightning>
			LLS_voSetLedLightning(LED_POWER,LED_BLINK_2Hz);
    18c4:	62 e0       	ldi	r22, 0x02	; 2
    18c6:	82 e0       	ldi	r24, 0x02	; 2
    18c8:	0e 94 7c 16 	call	0x2cf8	; 0x2cf8 <LLS_voSetLedLightning>
			LLS_voSetLedLightning(LED_TWOCUP,LED_BLINK_2Hz);
    18cc:	80 e0       	ldi	r24, 0x00	; 0
    18ce:	0e 94 1e 17 	call	0x2e3c	; 0x2e3c <voSetPumpState>
			voSetPumpState(PUMP_RUNNING); /* Enable pump */
    18d2:	88 e0       	ldi	r24, 0x08	; 8
    18d4:	80 93 1b 02 	sts	0x021B, r24	; 0x80021b <emFSMState>
			emFSMState = coffeemaker_pump_till_empty;
    18d8:	0f c0       	rjmp	.+30     	; 0x18f8 <voCoffeeFSM_Task+0x4c4>
    18da:	0e 94 bf 15 	call	0x2b7e	; 0x2b7e <HMon_tGetFaultAndWarning>
		}break;
    18de:	29 83       	std	Y+1, r18	; 0x01
		
		case coffeemaker_pump_till_empty:{
			FaultAndWarning_t htl = HMon_tGetFaultAndWarning();
    18e0:	3a 83       	std	Y+2, r19	; 0x02
    18e2:	4b 83       	std	Y+3, r20	; 0x03
    18e4:	5c 83       	std	Y+4, r21	; 0x04
    18e6:	6d 83       	std	Y+5, r22	; 0x05
    18e8:	21 30       	cpi	r18, 0x01	; 1
    18ea:	21 f0       	breq	.+8      	; 0x18f4 <voCoffeeFSM_Task+0x4c0>
			if( ( 1 == htl.WaterLevelLowFault  ) || ( 1 == htl.WaterLevelLowWarning) ){
    18ec:	31 30       	cpi	r19, 0x01	; 1
    18ee:	11 f0       	breq	.+4      	; 0x18f4 <voCoffeeFSM_Task+0x4c0>
    18f0:	00 00       	nop
				emFSMState = coffeemaker_idle; //Back to idle....
			} else {
				asm("nop");
    18f2:	02 c0       	rjmp	.+4      	; 0x18f8 <voCoffeeFSM_Task+0x4c4>
			}
		}break;
    18f4:	10 92 1b 02 	sts	0x021B, r1	; 0x80021b <emFSMState>
			emFSMState = coffeemaker_idle;
		}
	}
	
	
	voProcessLidKey(emFSMState);
    18f8:	80 91 1b 02 	lds	r24, 0x021B	; 0x80021b <emFSMState>
    18fc:	46 dd       	rcall	.-1396   	; 0x138a <voProcessLidKey>
	voCoffeeFSM_DrawArrows(tStatusBits.bIsBrewing);
    18fe:	80 91 fb 01 	lds	r24, 0x01FB	; 0x8001fb <tStatusBits>
    1902:	81 70       	andi	r24, 0x01	; 1
    1904:	5e dd       	rcall	.-1348   	; 0x13c2 <voCoffeeFSM_DrawArrows>
	voCoffeeFSM_DrawCup(tFSMSettings.u8coffeelevel);
    1906:	80 91 15 02 	lds	r24, 0x0215	; 0x800215 <tFSMSettings+0x4>
    190a:	23 dd       	rcall	.-1466   	; 0x1352 <voCoffeeFSM_DrawCup>
    190c:	81 e0       	ldi	r24, 0x01	; 1
	voCoffeeFSM_DrawWaterEmpty(HealthState.WaterLevelLowFault);
    190e:	01 11       	cpse	r16, r1
    1910:	01 c0       	rjmp	.+2      	; 0x1914 <voCoffeeFSM_Task+0x4e0>
    1912:	80 e0       	ldi	r24, 0x00	; 0
    1914:	5e dd       	rcall	.-1348   	; 0x13d2 <voCoffeeFSM_DrawWaterEmpty>
    1916:	90 db       	rcall	.-2272   	; 0x1038 <boBTC_GetIsHeating>
    1918:	61 e0       	ldi	r22, 0x01	; 1
	voCoffeeFSM_DrawThermometer(boBTC_GetIsHeating(),HealthState.OverTemperaturFault);
    191a:	e1 10       	cpse	r14, r1
    191c:	01 c0       	rjmp	.+2      	; 0x1920 <voCoffeeFSM_Task+0x4ec>
    191e:	60 e0       	ldi	r22, 0x00	; 0
    1920:	2a 96       	adiw	r28, 0x0a	; 10
    1922:	0f b6       	in	r0, 0x3f	; 63
    1924:	f8 94       	cli
}
    1926:	de bf       	out	0x3e, r29	; 62
    1928:	0f be       	out	0x3f, r0	; 63
    192a:	cd bf       	out	0x3d, r28	; 61
    192c:	df 91       	pop	r29
    192e:	cf 91       	pop	r28
    1930:	1f 91       	pop	r17
    1932:	0f 91       	pop	r16
    1934:	ff 90       	pop	r15
    1936:	ef 90       	pop	r14
    1938:	df 90       	pop	r13
    193a:	cf 90       	pop	r12
    193c:	bf 90       	pop	r11
    193e:	af 90       	pop	r10
    1940:	9f 90       	pop	r9
    1942:	8f 90       	pop	r8
    1944:	52 cd       	rjmp	.-1372   	; 0x13ea <voCoffeeFSM_DrawThermometer>

00001946 <voCleanBuffer>:
    1946:	80 e0       	ldi	r24, 0x00	; 0
    1948:	90 e0       	ldi	r25, 0x00	; 0
    194a:	fc 01       	movw	r30, r24
    194c:	ee 5a       	subi	r30, 0xAE	; 174
    194e:	fd 4f       	sbci	r31, 0xFD	; 253
    1950:	10 82       	st	Z, r1
    1952:	01 96       	adiw	r24, 0x01	; 1
    1954:	80 34       	cpi	r24, 0x40	; 64
    1956:	91 05       	cpc	r25, r1
    1958:	c1 f7       	brne	.-16     	; 0x194a <voCleanBuffer+0x4>
    195a:	10 92 93 02 	sts	0x0293, r1	; 0x800293 <u8InputBufferWriteIdx>
    195e:	08 95       	ret

00001960 <CMDI_voInit>:
    1960:	80 91 50 02 	lds	r24, 0x0250	; 0x800250 <CmdConfig>
    1964:	8e 7f       	andi	r24, 0xFE	; 254
    1966:	80 93 50 02 	sts	0x0250, r24	; 0x800250 <CmdConfig>
    196a:	10 92 51 02 	sts	0x0251, r1	; 0x800251 <u8ProgToChange>
    196e:	eb cf       	rjmp	.-42     	; 0x1946 <voCleanBuffer>

00001970 <CMDI_boAddCharToBuffer>:
    1970:	cf 93       	push	r28
    1972:	df 93       	push	r29
    1974:	90 91 93 02 	lds	r25, 0x0293	; 0x800293 <u8InputBufferWriteIdx>
    1978:	90 34       	cpi	r25, 0x40	; 64
    197a:	68 f4       	brcc	.+26     	; 0x1996 <CMDI_boAddCharToBuffer+0x26>
    197c:	e0 91 93 02 	lds	r30, 0x0293	; 0x800293 <u8InputBufferWriteIdx>
    1980:	f0 e0       	ldi	r31, 0x00	; 0
    1982:	ee 5a       	subi	r30, 0xAE	; 174
    1984:	fd 4f       	sbci	r31, 0xFD	; 253
    1986:	80 83       	st	Z, r24
    1988:	90 91 93 02 	lds	r25, 0x0293	; 0x800293 <u8InputBufferWriteIdx>
    198c:	9f 5f       	subi	r25, 0xFF	; 255
    198e:	90 93 93 02 	sts	0x0293, r25	; 0x800293 <u8InputBufferWriteIdx>
    1992:	d1 e0       	ldi	r29, 0x01	; 1
    1994:	03 c0       	rjmp	.+6      	; 0x199c <CMDI_boAddCharToBuffer+0x2c>
    1996:	80 93 91 02 	sts	0x0291, r24	; 0x800291 <chInputBuffer+0x3f>
    199a:	d0 e0       	ldi	r29, 0x00	; 0
    199c:	90 91 50 02 	lds	r25, 0x0250	; 0x800250 <CmdConfig>
    19a0:	90 ff       	sbrs	r25, 0
    19a2:	17 c0       	rjmp	.+46     	; 0x19d2 <CMDI_boAddCharToBuffer+0x62>
    19a4:	c8 2f       	mov	r28, r24
    19a6:	0e 94 f6 1d 	call	0x3bec	; 0x3bec <boGetConnected>
    19aa:	88 23       	and	r24, r24
    19ac:	91 f0       	breq	.+36     	; 0x19d2 <CMDI_boAddCharToBuffer+0x62>
    19ae:	0e 94 fd 1d 	call	0x3bfa	; 0x3bfa <GetUSBStream>
    19b2:	1f 92       	push	r1
    19b4:	cf 93       	push	r28
    19b6:	25 e6       	ldi	r18, 0x65	; 101
    19b8:	39 e0       	ldi	r19, 0x09	; 9
    19ba:	3f 93       	push	r19
    19bc:	2f 93       	push	r18
    19be:	9f 93       	push	r25
    19c0:	8f 93       	push	r24
    19c2:	0e 94 2b 1f 	call	0x3e56	; 0x3e56 <fprintf_P>
    19c6:	0f 90       	pop	r0
    19c8:	0f 90       	pop	r0
    19ca:	0f 90       	pop	r0
    19cc:	0f 90       	pop	r0
    19ce:	0f 90       	pop	r0
    19d0:	0f 90       	pop	r0
    19d2:	8d 2f       	mov	r24, r29
    19d4:	df 91       	pop	r29
    19d6:	cf 91       	pop	r28
    19d8:	08 95       	ret

000019da <StringToUint>:
    19da:	8f 92       	push	r8
    19dc:	9f 92       	push	r9
    19de:	af 92       	push	r10
    19e0:	bf 92       	push	r11
    19e2:	ef 92       	push	r14
    19e4:	ff 92       	push	r15
    19e6:	0f 93       	push	r16
    19e8:	1f 93       	push	r17
    19ea:	cf 93       	push	r28
    19ec:	8c 01       	movw	r16, r24
    19ee:	7b 01       	movw	r14, r22
    19f0:	fb 01       	movw	r30, r22
    19f2:	10 82       	st	Z, r1
    19f4:	11 82       	std	Z+1, r1	; 0x01
    19f6:	12 82       	std	Z+2, r1	; 0x02
    19f8:	13 82       	std	Z+3, r1	; 0x03
    19fa:	fc 01       	movw	r30, r24
    19fc:	80 81       	ld	r24, Z
    19fe:	8b 32       	cpi	r24, 0x2B	; 43
    1a00:	21 f0       	breq	.+8      	; 0x1a0a <StringToUint+0x30>
    1a02:	8d 32       	cpi	r24, 0x2D	; 45
    1a04:	31 f4       	brne	.+12     	; 0x1a12 <StringToUint+0x38>
    1a06:	c1 e0       	ldi	r28, 0x01	; 1
    1a08:	01 c0       	rjmp	.+2      	; 0x1a0c <StringToUint+0x32>
    1a0a:	c0 e0       	ldi	r28, 0x00	; 0
    1a0c:	0f 5f       	subi	r16, 0xFF	; 255
    1a0e:	1f 4f       	sbci	r17, 0xFF	; 255
    1a10:	36 c0       	rjmp	.+108    	; 0x1a7e <StringToUint+0xa4>
    1a12:	c0 e0       	ldi	r28, 0x00	; 0
    1a14:	34 c0       	rjmp	.+104    	; 0x1a7e <StringToUint+0xa4>
    1a16:	c4 2f       	mov	r28, r20
    1a18:	33 23       	and	r19, r19
    1a1a:	c9 f1       	breq	.+114    	; 0x1a8e <StringToUint+0xb4>
    1a1c:	c1 11       	cpse	r28, r1
    1a1e:	37 c0       	rjmp	.+110    	; 0x1a8e <StringToUint+0xb4>
    1a20:	2a 30       	cpi	r18, 0x0A	; 10
    1a22:	98 f5       	brcc	.+102    	; 0x1a8a <StringToUint+0xb0>
    1a24:	f7 01       	movw	r30, r14
    1a26:	60 81       	ld	r22, Z
    1a28:	71 81       	ldd	r23, Z+1	; 0x01
    1a2a:	82 81       	ldd	r24, Z+2	; 0x02
    1a2c:	93 81       	ldd	r25, Z+3	; 0x03
    1a2e:	41 e0       	ldi	r20, 0x01	; 1
    1a30:	69 39       	cpi	r22, 0x99	; 153
    1a32:	f9 e9       	ldi	r31, 0x99	; 153
    1a34:	7f 07       	cpc	r23, r31
    1a36:	8f 07       	cpc	r24, r31
    1a38:	f9 e1       	ldi	r31, 0x19	; 25
    1a3a:	9f 07       	cpc	r25, r31
    1a3c:	60 f7       	brcc	.-40     	; 0x1a16 <StringToUint+0x3c>
    1a3e:	2a e0       	ldi	r18, 0x0A	; 10
    1a40:	30 e0       	ldi	r19, 0x00	; 0
    1a42:	40 e0       	ldi	r20, 0x00	; 0
    1a44:	50 e0       	ldi	r21, 0x00	; 0
    1a46:	0e 94 a8 1e 	call	0x3d50	; 0x3d50 <__mulsi3>
    1a4a:	f7 01       	movw	r30, r14
    1a4c:	60 83       	st	Z, r22
    1a4e:	71 83       	std	Z+1, r23	; 0x01
    1a50:	82 83       	std	Z+2, r24	; 0x02
    1a52:	93 83       	std	Z+3, r25	; 0x03
    1a54:	f8 01       	movw	r30, r16
    1a56:	21 91       	ld	r18, Z+
    1a58:	8f 01       	movw	r16, r30
    1a5a:	30 e0       	ldi	r19, 0x00	; 0
    1a5c:	20 53       	subi	r18, 0x30	; 48
    1a5e:	31 09       	sbc	r19, r1
    1a60:	49 01       	movw	r8, r18
    1a62:	33 0f       	add	r19, r19
    1a64:	aa 08       	sbc	r10, r10
    1a66:	bb 08       	sbc	r11, r11
    1a68:	dc 01       	movw	r26, r24
    1a6a:	cb 01       	movw	r24, r22
    1a6c:	88 0d       	add	r24, r8
    1a6e:	99 1d       	adc	r25, r9
    1a70:	aa 1d       	adc	r26, r10
    1a72:	bb 1d       	adc	r27, r11
    1a74:	f7 01       	movw	r30, r14
    1a76:	80 83       	st	Z, r24
    1a78:	91 83       	std	Z+1, r25	; 0x01
    1a7a:	a2 83       	std	Z+2, r26	; 0x02
    1a7c:	b3 83       	std	Z+3, r27	; 0x03
    1a7e:	f8 01       	movw	r30, r16
    1a80:	30 81       	ld	r19, Z
    1a82:	20 ed       	ldi	r18, 0xD0	; 208
    1a84:	23 0f       	add	r18, r19
    1a86:	4c 2f       	mov	r20, r28
    1a88:	c6 cf       	rjmp	.-116    	; 0x1a16 <StringToUint+0x3c>
    1a8a:	c1 e0       	ldi	r28, 0x01	; 1
    1a8c:	c5 cf       	rjmp	.-118    	; 0x1a18 <StringToUint+0x3e>
    1a8e:	8c 2f       	mov	r24, r28
    1a90:	cf 91       	pop	r28
    1a92:	1f 91       	pop	r17
    1a94:	0f 91       	pop	r16
    1a96:	ff 90       	pop	r15
    1a98:	ef 90       	pop	r14
    1a9a:	bf 90       	pop	r11
    1a9c:	af 90       	pop	r10
    1a9e:	9f 90       	pop	r9
    1aa0:	8f 90       	pop	r8
    1aa2:	08 95       	ret

00001aa4 <finddelimiter>:
    1aa4:	fc 01       	movw	r30, r24
    1aa6:	20 e0       	ldi	r18, 0x00	; 0
    1aa8:	3e 2f       	mov	r19, r30
    1aaa:	38 1b       	sub	r19, r24
    1aac:	70 81       	ld	r23, Z
    1aae:	da 01       	movw	r26, r20
    1ab0:	9c 91       	ld	r25, X
    1ab2:	77 23       	and	r23, r23
    1ab4:	51 f0       	breq	.+20     	; 0x1aca <finddelimiter+0x26>
    1ab6:	39 17       	cp	r19, r25
    1ab8:	40 f4       	brcc	.+16     	; 0x1aca <finddelimiter+0x26>
    1aba:	21 11       	cpse	r18, r1
    1abc:	06 c0       	rjmp	.+12     	; 0x1aca <finddelimiter+0x26>
    1abe:	76 13       	cpse	r23, r22
    1ac0:	02 c0       	rjmp	.+4      	; 0x1ac6 <finddelimiter+0x22>
    1ac2:	10 82       	st	Z, r1
    1ac4:	21 e0       	ldi	r18, 0x01	; 1
    1ac6:	31 96       	adiw	r30, 0x01	; 1
    1ac8:	ef cf       	rjmp	.-34     	; 0x1aa8 <finddelimiter+0x4>
    1aca:	93 1b       	sub	r25, r19
    1acc:	da 01       	movw	r26, r20
    1ace:	9c 93       	st	X, r25
    1ad0:	21 11       	cpse	r18, r1
    1ad2:	02 c0       	rjmp	.+4      	; 0x1ad8 <finddelimiter+0x34>
    1ad4:	e0 e0       	ldi	r30, 0x00	; 0
    1ad6:	f0 e0       	ldi	r31, 0x00	; 0
    1ad8:	cf 01       	movw	r24, r30
    1ada:	08 95       	ret

00001adc <voResponseParamErr>:
    1adc:	0e 94 f6 1d 	call	0x3bec	; 0x3bec <boGetConnected>
    1ae0:	88 23       	and	r24, r24
    1ae2:	71 f0       	breq	.+28     	; 0x1b00 <voResponseParamErr+0x24>
    1ae4:	0e 94 fd 1d 	call	0x3bfa	; 0x3bfa <GetUSBStream>
    1ae8:	22 e1       	ldi	r18, 0x12	; 18
    1aea:	31 e0       	ldi	r19, 0x01	; 1
    1aec:	3f 93       	push	r19
    1aee:	2f 93       	push	r18
    1af0:	9f 93       	push	r25
    1af2:	8f 93       	push	r24
    1af4:	0e 94 2b 1f 	call	0x3e56	; 0x3e56 <fprintf_P>
    1af8:	0f 90       	pop	r0
    1afa:	0f 90       	pop	r0
    1afc:	0f 90       	pop	r0
    1afe:	0f 90       	pop	r0
    1b00:	08 95       	ret

00001b02 <voResponseParserErr>:
    1b02:	0e 94 f6 1d 	call	0x3bec	; 0x3bec <boGetConnected>
    1b06:	88 23       	and	r24, r24
    1b08:	71 f0       	breq	.+28     	; 0x1b26 <voResponseParserErr+0x24>
    1b0a:	0e 94 fd 1d 	call	0x3bfa	; 0x3bfa <GetUSBStream>
    1b0e:	25 e0       	ldi	r18, 0x05	; 5
    1b10:	31 e0       	ldi	r19, 0x01	; 1
    1b12:	3f 93       	push	r19
    1b14:	2f 93       	push	r18
    1b16:	9f 93       	push	r25
    1b18:	8f 93       	push	r24
    1b1a:	0e 94 2b 1f 	call	0x3e56	; 0x3e56 <fprintf_P>
    1b1e:	0f 90       	pop	r0
    1b20:	0f 90       	pop	r0
    1b22:	0f 90       	pop	r0
    1b24:	0f 90       	pop	r0
    1b26:	08 95       	ret

00001b28 <voResponseOk>:
    1b28:	0e 94 f6 1d 	call	0x3bec	; 0x3bec <boGetConnected>
    1b2c:	88 23       	and	r24, r24
    1b2e:	71 f0       	breq	.+28     	; 0x1b4c <voResponseOk+0x24>
    1b30:	0e 94 fd 1d 	call	0x3bfa	; 0x3bfa <GetUSBStream>
    1b34:	20 e0       	ldi	r18, 0x00	; 0
    1b36:	31 e0       	ldi	r19, 0x01	; 1
    1b38:	3f 93       	push	r19
    1b3a:	2f 93       	push	r18
    1b3c:	9f 93       	push	r25
    1b3e:	8f 93       	push	r24
    1b40:	0e 94 2b 1f 	call	0x3e56	; 0x3e56 <fprintf_P>
    1b44:	0f 90       	pop	r0
    1b46:	0f 90       	pop	r0
    1b48:	0f 90       	pop	r0
    1b4a:	0f 90       	pop	r0
    1b4c:	08 95       	ret

00001b4e <voProcessData>:
    1b4e:	2f 92       	push	r2
    1b50:	3f 92       	push	r3
    1b52:	4f 92       	push	r4
    1b54:	5f 92       	push	r5
    1b56:	6f 92       	push	r6
    1b58:	7f 92       	push	r7
    1b5a:	8f 92       	push	r8
    1b5c:	9f 92       	push	r9
    1b5e:	af 92       	push	r10
    1b60:	bf 92       	push	r11
    1b62:	cf 92       	push	r12
    1b64:	df 92       	push	r13
    1b66:	ef 92       	push	r14
    1b68:	ff 92       	push	r15
    1b6a:	0f 93       	push	r16
    1b6c:	1f 93       	push	r17
    1b6e:	cf 93       	push	r28
    1b70:	df 93       	push	r29
    1b72:	cd b7       	in	r28, 0x3d	; 61
    1b74:	de b7       	in	r29, 0x3e	; 62
    1b76:	27 97       	sbiw	r28, 0x07	; 7
    1b78:	0f b6       	in	r0, 0x3f	; 63
    1b7a:	f8 94       	cli
    1b7c:	de bf       	out	0x3e, r29	; 62
    1b7e:	0f be       	out	0x3f, r0	; 63
    1b80:	cd bf       	out	0x3d, r28	; 61
    1b82:	86 e0       	ldi	r24, 0x06	; 6
    1b84:	8a 83       	std	Y+2, r24	; 0x02
    1b86:	81 e0       	ldi	r24, 0x01	; 1
    1b88:	89 83       	std	Y+1, r24	; 0x01
    1b8a:	1b 82       	std	Y+3, r1	; 0x03
    1b8c:	1c 82       	std	Y+4, r1	; 0x04
    1b8e:	1d 82       	std	Y+5, r1	; 0x05
    1b90:	1e 82       	std	Y+6, r1	; 0x06
    1b92:	80 e4       	ldi	r24, 0x40	; 64
    1b94:	8f 83       	std	Y+7, r24	; 0x07
    1b96:	02 e5       	ldi	r16, 0x52	; 82
    1b98:	12 e0       	ldi	r17, 0x02	; 2
    1b9a:	f1 2c       	mov	r15, r1
    1b9c:	86 e0       	ldi	r24, 0x06	; 6
    1b9e:	e8 2e       	mov	r14, r24
    1ba0:	99 e0       	ldi	r25, 0x09	; 9
    1ba2:	99 2e       	mov	r9, r25
    1ba4:	28 e0       	ldi	r18, 0x08	; 8
    1ba6:	82 2e       	mov	r8, r18
    1ba8:	37 e0       	ldi	r19, 0x07	; 7
    1baa:	33 2e       	mov	r3, r19
    1bac:	45 e0       	ldi	r20, 0x05	; 5
    1bae:	24 2e       	mov	r2, r20
    1bb0:	54 e0       	ldi	r21, 0x04	; 4
    1bb2:	d5 2e       	mov	r13, r21
    1bb4:	63 e0       	ldi	r22, 0x03	; 3
    1bb6:	c6 2e       	mov	r12, r22
    1bb8:	41 2c       	mov	r4, r1
    1bba:	51 2c       	mov	r5, r1
    1bbc:	32 01       	movw	r6, r4
    1bbe:	43 94       	inc	r4
    1bc0:	ae 01       	movw	r20, r28
    1bc2:	49 5f       	subi	r20, 0xF9	; 249
    1bc4:	5f 4f       	sbci	r21, 0xFF	; 255
    1bc6:	60 e2       	ldi	r22, 0x20	; 32
    1bc8:	c8 01       	movw	r24, r16
    1bca:	6c df       	rcall	.-296    	; 0x1aa4 <finddelimiter>
    1bcc:	5c 01       	movw	r10, r24
    1bce:	01 15       	cp	r16, r1
    1bd0:	11 05       	cpc	r17, r1
    1bd2:	09 f4       	brne	.+2      	; 0x1bd6 <voProcessData+0x88>
    1bd4:	03 c1       	rjmp	.+518    	; 0x1ddc <voProcessData+0x28e>
    1bd6:	81 e0       	ldi	r24, 0x01	; 1
    1bd8:	f8 16       	cp	r15, r24
    1bda:	c1 f1       	breq	.+112    	; 0x1c4c <voProcessData+0xfe>
    1bdc:	f8 16       	cp	r15, r24
    1bde:	28 f0       	brcs	.+10     	; 0x1bea <voProcessData+0x9c>
    1be0:	92 e0       	ldi	r25, 0x02	; 2
    1be2:	f9 16       	cp	r15, r25
    1be4:	09 f4       	brne	.+2      	; 0x1be8 <voProcessData+0x9a>
    1be6:	bc c0       	rjmp	.+376    	; 0x1d60 <voProcessData+0x212>
    1be8:	f6 c0       	rjmp	.+492    	; 0x1dd6 <voProcessData+0x288>
    1bea:	61 e6       	ldi	r22, 0x61	; 97
    1bec:	79 e0       	ldi	r23, 0x09	; 9
    1bee:	c8 01       	movw	r24, r16
    1bf0:	0e 94 13 1f 	call	0x3e26	; 0x3e26 <strcmp_P>
    1bf4:	89 2b       	or	r24, r25
    1bf6:	11 f4       	brne	.+4      	; 0x1bfc <voProcessData+0xae>
    1bf8:	19 82       	std	Y+1, r1	; 0x01
    1bfa:	ed c0       	rjmp	.+474    	; 0x1dd6 <voProcessData+0x288>
    1bfc:	6d e5       	ldi	r22, 0x5D	; 93
    1bfe:	79 e0       	ldi	r23, 0x09	; 9
    1c00:	c8 01       	movw	r24, r16
    1c02:	0e 94 13 1f 	call	0x3e26	; 0x3e26 <strcmp_P>
    1c06:	89 2b       	or	r24, r25
    1c08:	11 f4       	brne	.+4      	; 0x1c0e <voProcessData+0xc0>
    1c0a:	81 e0       	ldi	r24, 0x01	; 1
    1c0c:	08 c0       	rjmp	.+16     	; 0x1c1e <voProcessData+0xd0>
    1c0e:	69 e5       	ldi	r22, 0x59	; 89
    1c10:	79 e0       	ldi	r23, 0x09	; 9
    1c12:	c8 01       	movw	r24, r16
    1c14:	0e 94 13 1f 	call	0x3e26	; 0x3e26 <strcmp_P>
    1c18:	89 2b       	or	r24, r25
    1c1a:	19 f4       	brne	.+6      	; 0x1c22 <voProcessData+0xd4>
    1c1c:	82 e0       	ldi	r24, 0x02	; 2
    1c1e:	89 83       	std	Y+1, r24	; 0x01
    1c20:	da c0       	rjmp	.+436    	; 0x1dd6 <voProcessData+0x288>
    1c22:	64 e5       	ldi	r22, 0x54	; 84
    1c24:	79 e0       	ldi	r23, 0x09	; 9
    1c26:	c8 01       	movw	r24, r16
    1c28:	0e 94 13 1f 	call	0x3e26	; 0x3e26 <strcmp_P>
    1c2c:	89 2b       	or	r24, r25
    1c2e:	11 f4       	brne	.+4      	; 0x1c34 <voProcessData+0xe6>
    1c30:	c9 82       	std	Y+1, r12	; 0x01
    1c32:	08 c0       	rjmp	.+16     	; 0x1c44 <voProcessData+0xf6>
    1c34:	6f e4       	ldi	r22, 0x4F	; 79
    1c36:	79 e0       	ldi	r23, 0x09	; 9
    1c38:	c8 01       	movw	r24, r16
    1c3a:	0e 94 13 1f 	call	0x3e26	; 0x3e26 <strcmp_P>
    1c3e:	89 2b       	or	r24, r25
    1c40:	19 f4       	brne	.+6      	; 0x1c48 <voProcessData+0xfa>
    1c42:	d9 82       	std	Y+1, r13	; 0x01
    1c44:	8c e0       	ldi	r24, 0x0C	; 12
    1c46:	19 c0       	rjmp	.+50     	; 0x1c7a <voProcessData+0x12c>
    1c48:	e9 82       	std	Y+1, r14	; 0x01
    1c4a:	c5 c0       	rjmp	.+394    	; 0x1dd6 <voProcessData+0x288>
    1c4c:	89 81       	ldd	r24, Y+1	; 0x01
    1c4e:	83 30       	cpi	r24, 0x03	; 3
    1c50:	19 f0       	breq	.+6      	; 0x1c58 <voProcessData+0x10a>
    1c52:	82 30       	cpi	r24, 0x02	; 2
    1c54:	08 f0       	brcs	.+2      	; 0x1c58 <voProcessData+0x10a>
    1c56:	6e c0       	rjmp	.+220    	; 0x1d34 <voProcessData+0x1e6>
    1c58:	6a e4       	ldi	r22, 0x4A	; 74
    1c5a:	79 e0       	ldi	r23, 0x09	; 9
    1c5c:	c8 01       	movw	r24, r16
    1c5e:	0e 94 13 1f 	call	0x3e26	; 0x3e26 <strcmp_P>
    1c62:	89 2b       	or	r24, r25
    1c64:	11 f4       	brne	.+4      	; 0x1c6a <voProcessData+0x11c>
    1c66:	1a 82       	std	Y+2, r1	; 0x02
    1c68:	b6 c0       	rjmp	.+364    	; 0x1dd6 <voProcessData+0x288>
    1c6a:	65 e4       	ldi	r22, 0x45	; 69
    1c6c:	79 e0       	ldi	r23, 0x09	; 9
    1c6e:	c8 01       	movw	r24, r16
    1c70:	0e 94 13 1f 	call	0x3e26	; 0x3e26 <strcmp_P>
    1c74:	89 2b       	or	r24, r25
    1c76:	19 f4       	brne	.+6      	; 0x1c7e <voProcessData+0x130>
    1c78:	81 e0       	ldi	r24, 0x01	; 1
    1c7a:	8a 83       	std	Y+2, r24	; 0x02
    1c7c:	ac c0       	rjmp	.+344    	; 0x1dd6 <voProcessData+0x288>
    1c7e:	6f e3       	ldi	r22, 0x3F	; 63
    1c80:	79 e0       	ldi	r23, 0x09	; 9
    1c82:	c8 01       	movw	r24, r16
    1c84:	0e 94 13 1f 	call	0x3e26	; 0x3e26 <strcmp_P>
    1c88:	89 2b       	or	r24, r25
    1c8a:	11 f4       	brne	.+4      	; 0x1c90 <voProcessData+0x142>
    1c8c:	82 e0       	ldi	r24, 0x02	; 2
    1c8e:	f5 cf       	rjmp	.-22     	; 0x1c7a <voProcessData+0x12c>
    1c90:	6a e3       	ldi	r22, 0x3A	; 58
    1c92:	79 e0       	ldi	r23, 0x09	; 9
    1c94:	c8 01       	movw	r24, r16
    1c96:	0e 94 13 1f 	call	0x3e26	; 0x3e26 <strcmp_P>
    1c9a:	89 2b       	or	r24, r25
    1c9c:	11 f4       	brne	.+4      	; 0x1ca2 <voProcessData+0x154>
    1c9e:	ca 82       	std	Y+2, r12	; 0x02
    1ca0:	9a c0       	rjmp	.+308    	; 0x1dd6 <voProcessData+0x288>
    1ca2:	66 e3       	ldi	r22, 0x36	; 54
    1ca4:	79 e0       	ldi	r23, 0x09	; 9
    1ca6:	c8 01       	movw	r24, r16
    1ca8:	0e 94 13 1f 	call	0x3e26	; 0x3e26 <strcmp_P>
    1cac:	89 2b       	or	r24, r25
    1cae:	11 f4       	brne	.+4      	; 0x1cb4 <voProcessData+0x166>
    1cb0:	da 82       	std	Y+2, r13	; 0x02
    1cb2:	91 c0       	rjmp	.+290    	; 0x1dd6 <voProcessData+0x288>
    1cb4:	60 e3       	ldi	r22, 0x30	; 48
    1cb6:	79 e0       	ldi	r23, 0x09	; 9
    1cb8:	c8 01       	movw	r24, r16
    1cba:	0e 94 13 1f 	call	0x3e26	; 0x3e26 <strcmp_P>
    1cbe:	89 2b       	or	r24, r25
    1cc0:	11 f4       	brne	.+4      	; 0x1cc6 <voProcessData+0x178>
    1cc2:	2a 82       	std	Y+2, r2	; 0x02
    1cc4:	88 c0       	rjmp	.+272    	; 0x1dd6 <voProcessData+0x288>
    1cc6:	69 e2       	ldi	r22, 0x29	; 41
    1cc8:	79 e0       	ldi	r23, 0x09	; 9
    1cca:	c8 01       	movw	r24, r16
    1ccc:	0e 94 13 1f 	call	0x3e26	; 0x3e26 <strcmp_P>
    1cd0:	89 2b       	or	r24, r25
    1cd2:	11 f4       	brne	.+4      	; 0x1cd8 <voProcessData+0x18a>
    1cd4:	3a 82       	std	Y+2, r3	; 0x02
    1cd6:	7f c0       	rjmp	.+254    	; 0x1dd6 <voProcessData+0x288>
    1cd8:	6f e1       	ldi	r22, 0x1F	; 31
    1cda:	79 e0       	ldi	r23, 0x09	; 9
    1cdc:	c8 01       	movw	r24, r16
    1cde:	0e 94 13 1f 	call	0x3e26	; 0x3e26 <strcmp_P>
    1ce2:	89 2b       	or	r24, r25
    1ce4:	11 f4       	brne	.+4      	; 0x1cea <voProcessData+0x19c>
    1ce6:	8a 82       	std	Y+2, r8	; 0x02
    1ce8:	76 c0       	rjmp	.+236    	; 0x1dd6 <voProcessData+0x288>
    1cea:	69 e1       	ldi	r22, 0x19	; 25
    1cec:	79 e0       	ldi	r23, 0x09	; 9
    1cee:	c8 01       	movw	r24, r16
    1cf0:	0e 94 13 1f 	call	0x3e26	; 0x3e26 <strcmp_P>
    1cf4:	89 2b       	or	r24, r25
    1cf6:	11 f4       	brne	.+4      	; 0x1cfc <voProcessData+0x1ae>
    1cf8:	9a 82       	std	Y+2, r9	; 0x02
    1cfa:	6d c0       	rjmp	.+218    	; 0x1dd6 <voProcessData+0x288>
    1cfc:	61 e1       	ldi	r22, 0x11	; 17
    1cfe:	79 e0       	ldi	r23, 0x09	; 9
    1d00:	c8 01       	movw	r24, r16
    1d02:	0e 94 13 1f 	call	0x3e26	; 0x3e26 <strcmp_P>
    1d06:	89 2b       	or	r24, r25
    1d08:	11 f4       	brne	.+4      	; 0x1d0e <voProcessData+0x1c0>
    1d0a:	8a e0       	ldi	r24, 0x0A	; 10
    1d0c:	b6 cf       	rjmp	.-148    	; 0x1c7a <voProcessData+0x12c>
    1d0e:	68 e0       	ldi	r22, 0x08	; 8
    1d10:	79 e0       	ldi	r23, 0x09	; 9
    1d12:	c8 01       	movw	r24, r16
    1d14:	0e 94 13 1f 	call	0x3e26	; 0x3e26 <strcmp_P>
    1d18:	89 2b       	or	r24, r25
    1d1a:	19 f4       	brne	.+6      	; 0x1d22 <voProcessData+0x1d4>
    1d1c:	9b e0       	ldi	r25, 0x0B	; 11
    1d1e:	9a 83       	std	Y+2, r25	; 0x02
    1d20:	5a c0       	rjmp	.+180    	; 0x1dd6 <voProcessData+0x288>
    1d22:	63 e0       	ldi	r22, 0x03	; 3
    1d24:	79 e0       	ldi	r23, 0x09	; 9
    1d26:	c8 01       	movw	r24, r16
    1d28:	0e 94 13 1f 	call	0x3e26	; 0x3e26 <strcmp_P>
    1d2c:	89 2b       	or	r24, r25
    1d2e:	21 f4       	brne	.+8      	; 0x1d38 <voProcessData+0x1ea>
    1d30:	8d e0       	ldi	r24, 0x0D	; 13
    1d32:	a3 cf       	rjmp	.-186    	; 0x1c7a <voProcessData+0x12c>
    1d34:	82 30       	cpi	r24, 0x02	; 2
    1d36:	11 f0       	breq	.+4      	; 0x1d3c <voProcessData+0x1ee>
    1d38:	ea 82       	std	Y+2, r14	; 0x02
    1d3a:	4d c0       	rjmp	.+154    	; 0x1dd6 <voProcessData+0x288>
    1d3c:	6e ef       	ldi	r22, 0xFE	; 254
    1d3e:	78 e0       	ldi	r23, 0x08	; 8
    1d40:	c8 01       	movw	r24, r16
    1d42:	0e 94 13 1f 	call	0x3e26	; 0x3e26 <strcmp_P>
    1d46:	89 2b       	or	r24, r25
    1d48:	11 f4       	brne	.+4      	; 0x1d4e <voProcessData+0x200>
    1d4a:	8e e0       	ldi	r24, 0x0E	; 14
    1d4c:	96 cf       	rjmp	.-212    	; 0x1c7a <voProcessData+0x12c>
    1d4e:	68 ef       	ldi	r22, 0xF8	; 248
    1d50:	78 e0       	ldi	r23, 0x08	; 8
    1d52:	c8 01       	movw	r24, r16
    1d54:	0e 94 13 1f 	call	0x3e26	; 0x3e26 <strcmp_P>
    1d58:	89 2b       	or	r24, r25
    1d5a:	71 f7       	brne	.-36     	; 0x1d38 <voProcessData+0x1ea>
    1d5c:	8f e0       	ldi	r24, 0x0F	; 15
    1d5e:	8d cf       	rjmp	.-230    	; 0x1c7a <voProcessData+0x12c>
    1d60:	89 81       	ldd	r24, Y+1	; 0x01
    1d62:	82 30       	cpi	r24, 0x02	; 2
    1d64:	48 f4       	brcc	.+18     	; 0x1d78 <voProcessData+0x22a>
    1d66:	81 30       	cpi	r24, 0x01	; 1
    1d68:	31 f0       	breq	.+12     	; 0x1d76 <voProcessData+0x228>
    1d6a:	be 01       	movw	r22, r28
    1d6c:	6d 5f       	subi	r22, 0xFD	; 253
    1d6e:	7f 4f       	sbci	r23, 0xFF	; 255
    1d70:	c8 01       	movw	r24, r16
    1d72:	33 de       	rcall	.-922    	; 0x19da <StringToUint>
    1d74:	81 11       	cpse	r24, r1
    1d76:	ea 82       	std	Y+2, r14	; 0x02
    1d78:	89 81       	ldd	r24, Y+1	; 0x01
    1d7a:	82 30       	cpi	r24, 0x02	; 2
    1d7c:	61 f5       	brne	.+88     	; 0x1dd6 <voProcessData+0x288>
    1d7e:	8a 81       	ldd	r24, Y+2	; 0x02
    1d80:	8e 30       	cpi	r24, 0x0E	; 14
    1d82:	c1 f4       	brne	.+48     	; 0x1db4 <voProcessData+0x266>
    1d84:	61 ef       	ldi	r22, 0xF1	; 241
    1d86:	78 e0       	ldi	r23, 0x08	; 8
    1d88:	c8 01       	movw	r24, r16
    1d8a:	0e 94 13 1f 	call	0x3e26	; 0x3e26 <strcmp_P>
    1d8e:	89 2b       	or	r24, r25
    1d90:	29 f4       	brne	.+10     	; 0x1d9c <voProcessData+0x24e>
    1d92:	1b 82       	std	Y+3, r1	; 0x03
    1d94:	1c 82       	std	Y+4, r1	; 0x04
    1d96:	1d 82       	std	Y+5, r1	; 0x05
    1d98:	1e 82       	std	Y+6, r1	; 0x06
    1d9a:	1d c0       	rjmp	.+58     	; 0x1dd6 <voProcessData+0x288>
    1d9c:	6a ee       	ldi	r22, 0xEA	; 234
    1d9e:	78 e0       	ldi	r23, 0x08	; 8
    1da0:	c8 01       	movw	r24, r16
    1da2:	0e 94 13 1f 	call	0x3e26	; 0x3e26 <strcmp_P>
    1da6:	89 2b       	or	r24, r25
    1da8:	39 f6       	brne	.-114    	; 0x1d38 <voProcessData+0x1ea>
    1daa:	4b 82       	std	Y+3, r4	; 0x03
    1dac:	5c 82       	std	Y+4, r5	; 0x04
    1dae:	6d 82       	std	Y+5, r6	; 0x05
    1db0:	7e 82       	std	Y+6, r7	; 0x06
    1db2:	11 c0       	rjmp	.+34     	; 0x1dd6 <voProcessData+0x288>
    1db4:	8f 30       	cpi	r24, 0x0F	; 15
    1db6:	79 f4       	brne	.+30     	; 0x1dd6 <voProcessData+0x288>
    1db8:	67 ee       	ldi	r22, 0xE7	; 231
    1dba:	78 e0       	ldi	r23, 0x08	; 8
    1dbc:	c8 01       	movw	r24, r16
    1dbe:	0e 94 13 1f 	call	0x3e26	; 0x3e26 <strcmp_P>
    1dc2:	89 2b       	or	r24, r25
    1dc4:	91 f3       	breq	.-28     	; 0x1daa <voProcessData+0x25c>
    1dc6:	63 ee       	ldi	r22, 0xE3	; 227
    1dc8:	78 e0       	ldi	r23, 0x08	; 8
    1dca:	c8 01       	movw	r24, r16
    1dcc:	0e 94 13 1f 	call	0x3e26	; 0x3e26 <strcmp_P>
    1dd0:	89 2b       	or	r24, r25
    1dd2:	f9 f2       	breq	.-66     	; 0x1d92 <voProcessData+0x244>
    1dd4:	b1 cf       	rjmp	.-158    	; 0x1d38 <voProcessData+0x1ea>
    1dd6:	f3 94       	inc	r15
    1dd8:	85 01       	movw	r16, r10
    1dda:	f2 ce       	rjmp	.-540    	; 0x1bc0 <voProcessData+0x72>
    1ddc:	8a 81       	ldd	r24, Y+2	; 0x02
    1dde:	87 30       	cpi	r24, 0x07	; 7
    1de0:	09 f0       	breq	.+2      	; 0x1de4 <voProcessData+0x296>
    1de2:	43 c0       	rjmp	.+134    	; 0x1e6a <voProcessData+0x31c>
    1de4:	89 81       	ldd	r24, Y+1	; 0x01
    1de6:	81 30       	cpi	r24, 0x01	; 1
    1de8:	e1 f4       	brne	.+56     	; 0x1e22 <voProcessData+0x2d4>
    1dea:	0e 94 f6 1d 	call	0x3bec	; 0x3bec <boGetConnected>
    1dee:	88 23       	and	r24, r24
    1df0:	09 f4       	brne	.+2      	; 0x1df4 <voProcessData+0x2a6>
    1df2:	65 c0       	rjmp	.+202    	; 0x1ebe <voProcessData+0x370>
    1df4:	0e 94 fd 1d 	call	0x3bfa	; 0x3bfa <GetUSBStream>
    1df8:	18 2f       	mov	r17, r24
    1dfa:	09 2f       	mov	r16, r25
    1dfc:	f1 d7       	rcall	.+4066   	; 0x2de0 <u32PWRMTR_GetmAmp>
    1dfe:	9f 93       	push	r25
    1e00:	8f 93       	push	r24
    1e02:	7f 93       	push	r23
    1e04:	6f 93       	push	r22
    1e06:	86 e9       	ldi	r24, 0x96	; 150
    1e08:	92 e0       	ldi	r25, 0x02	; 2
    1e0a:	9f 93       	push	r25
    1e0c:	8f 93       	push	r24
    1e0e:	0f 93       	push	r16
    1e10:	1f 93       	push	r17
    1e12:	0e 94 2b 1f 	call	0x3e56	; 0x3e56 <fprintf_P>
    1e16:	0f b6       	in	r0, 0x3f	; 63
    1e18:	f8 94       	cli
    1e1a:	de bf       	out	0x3e, r29	; 62
    1e1c:	0f be       	out	0x3f, r0	; 63
    1e1e:	cd bf       	out	0x3d, r28	; 61
    1e20:	4e c0       	rjmp	.+156    	; 0x1ebe <voProcessData+0x370>
    1e22:	83 30       	cpi	r24, 0x03	; 3
    1e24:	a9 f5       	brne	.+106    	; 0x1e90 <voProcessData+0x342>
    1e26:	0e 94 f6 1d 	call	0x3bec	; 0x3bec <boGetConnected>
    1e2a:	88 23       	and	r24, r24
    1e2c:	09 f4       	brne	.+2      	; 0x1e30 <voProcessData+0x2e2>
    1e2e:	47 c0       	rjmp	.+142    	; 0x1ebe <voProcessData+0x370>
    1e30:	0e 94 fd 1d 	call	0x3bfa	; 0x3bfa <GetUSBStream>
    1e34:	2b e5       	ldi	r18, 0x5B	; 91
    1e36:	32 e0       	ldi	r19, 0x02	; 2
    1e38:	0d c0       	rjmp	.+26     	; 0x1e54 <voProcessData+0x306>
    1e3a:	91 30       	cpi	r25, 0x01	; 1
    1e3c:	09 f4       	brne	.+2      	; 0x1e40 <voProcessData+0x2f2>
    1e3e:	b9 c0       	rjmp	.+370    	; 0x1fb2 <voProcessData+0x464>
    1e40:	93 30       	cpi	r25, 0x03	; 3
    1e42:	31 f5       	brne	.+76     	; 0x1e90 <voProcessData+0x342>
    1e44:	0e 94 f6 1d 	call	0x3bec	; 0x3bec <boGetConnected>
    1e48:	88 23       	and	r24, r24
    1e4a:	c9 f1       	breq	.+114    	; 0x1ebe <voProcessData+0x370>
    1e4c:	0e 94 fd 1d 	call	0x3bfa	; 0x3bfa <GetUSBStream>
    1e50:	28 ef       	ldi	r18, 0xF8	; 248
    1e52:	33 e0       	ldi	r19, 0x03	; 3
    1e54:	3f 93       	push	r19
    1e56:	2f 93       	push	r18
    1e58:	9f 93       	push	r25
    1e5a:	8f 93       	push	r24
    1e5c:	0e 94 2b 1f 	call	0x3e56	; 0x3e56 <fprintf_P>
    1e60:	0f 90       	pop	r0
    1e62:	0f 90       	pop	r0
    1e64:	0f 90       	pop	r0
    1e66:	0f 90       	pop	r0
    1e68:	2a c0       	rjmp	.+84     	; 0x1ebe <voProcessData+0x370>
    1e6a:	88 30       	cpi	r24, 0x08	; 8
    1e6c:	98 f0       	brcs	.+38     	; 0x1e94 <voProcessData+0x346>
    1e6e:	8b 30       	cpi	r24, 0x0B	; 11
    1e70:	09 f4       	brne	.+2      	; 0x1e74 <voProcessData+0x326>
    1e72:	66 c1       	rjmp	.+716    	; 0x2140 <voProcessData+0x5f2>
    1e74:	08 f4       	brcc	.+2      	; 0x1e78 <voProcessData+0x32a>
    1e76:	2f c1       	rjmp	.+606    	; 0x20d6 <voProcessData+0x588>
    1e78:	8d 30       	cpi	r24, 0x0D	; 13
    1e7a:	09 f4       	brne	.+2      	; 0x1e7e <voProcessData+0x330>
    1e7c:	d6 c1       	rjmp	.+940    	; 0x222a <voProcessData+0x6dc>
    1e7e:	08 f0       	brcs	.+2      	; 0x1e82 <voProcessData+0x334>
    1e80:	5a c2       	rjmp	.+1204   	; 0x2336 <voProcessData+0x7e8>
    1e82:	89 81       	ldd	r24, Y+1	; 0x01
    1e84:	83 30       	cpi	r24, 0x03	; 3
    1e86:	09 f4       	brne	.+2      	; 0x1e8a <voProcessData+0x33c>
    1e88:	07 c2       	rjmp	.+1038   	; 0x2298 <voProcessData+0x74a>
    1e8a:	84 30       	cpi	r24, 0x04	; 4
    1e8c:	09 f4       	brne	.+2      	; 0x1e90 <voProcessData+0x342>
    1e8e:	18 c2       	rjmp	.+1072   	; 0x22c0 <voProcessData+0x772>
    1e90:	38 de       	rcall	.-912    	; 0x1b02 <voResponseParserErr>
    1e92:	15 c0       	rjmp	.+42     	; 0x1ebe <voProcessData+0x370>
    1e94:	83 30       	cpi	r24, 0x03	; 3
    1e96:	69 f1       	breq	.+90     	; 0x1ef2 <voProcessData+0x3a4>
    1e98:	08 f0       	brcs	.+2      	; 0x1e9c <voProcessData+0x34e>
    1e9a:	cc c0       	rjmp	.+408    	; 0x2034 <voProcessData+0x4e6>
    1e9c:	99 81       	ldd	r25, Y+1	; 0x01
    1e9e:	81 30       	cpi	r24, 0x01	; 1
    1ea0:	09 f4       	brne	.+2      	; 0x1ea4 <voProcessData+0x356>
    1ea2:	54 c0       	rjmp	.+168    	; 0x1f4c <voProcessData+0x3fe>
    1ea4:	08 f0       	brcs	.+2      	; 0x1ea8 <voProcessData+0x35a>
    1ea6:	99 c0       	rjmp	.+306    	; 0x1fda <voProcessData+0x48c>
    1ea8:	91 11       	cpse	r25, r1
    1eaa:	c7 cf       	rjmp	.-114    	; 0x1e3a <voProcessData+0x2ec>
    1eac:	80 91 51 02 	lds	r24, 0x0251	; 0x800251 <u8ProgToChange>
    1eb0:	2b 81       	ldd	r18, Y+3	; 0x03
    1eb2:	3c 81       	ldd	r19, Y+4	; 0x04
    1eb4:	4d 81       	ldd	r20, Y+5	; 0x05
    1eb6:	5e 81       	ldd	r21, Y+6	; 0x06
    1eb8:	60 e0       	ldi	r22, 0x00	; 0
    1eba:	36 d5       	rcall	.+2668   	; 0x2928 <boEEFS_UpdateUserProgramm>
    1ebc:	35 de       	rcall	.-918    	; 0x1b28 <voResponseOk>
    1ebe:	43 dd       	rcall	.-1402   	; 0x1946 <voCleanBuffer>
    1ec0:	27 96       	adiw	r28, 0x07	; 7
    1ec2:	0f b6       	in	r0, 0x3f	; 63
    1ec4:	f8 94       	cli
    1ec6:	de bf       	out	0x3e, r29	; 62
    1ec8:	0f be       	out	0x3f, r0	; 63
    1eca:	cd bf       	out	0x3d, r28	; 61
    1ecc:	df 91       	pop	r29
    1ece:	cf 91       	pop	r28
    1ed0:	1f 91       	pop	r17
    1ed2:	0f 91       	pop	r16
    1ed4:	ff 90       	pop	r15
    1ed6:	ef 90       	pop	r14
    1ed8:	df 90       	pop	r13
    1eda:	cf 90       	pop	r12
    1edc:	bf 90       	pop	r11
    1ede:	af 90       	pop	r10
    1ee0:	9f 90       	pop	r9
    1ee2:	8f 90       	pop	r8
    1ee4:	7f 90       	pop	r7
    1ee6:	6f 90       	pop	r6
    1ee8:	5f 90       	pop	r5
    1eea:	4f 90       	pop	r4
    1eec:	3f 90       	pop	r3
    1eee:	2f 90       	pop	r2
    1ef0:	08 95       	ret
    1ef2:	89 81       	ldd	r24, Y+1	; 0x01
    1ef4:	81 11       	cpse	r24, r1
    1ef6:	08 c0       	rjmp	.+16     	; 0x1f08 <voProcessData+0x3ba>
    1ef8:	80 91 51 02 	lds	r24, 0x0251	; 0x800251 <u8ProgToChange>
    1efc:	2b 81       	ldd	r18, Y+3	; 0x03
    1efe:	3c 81       	ldd	r19, Y+4	; 0x04
    1f00:	4d 81       	ldd	r20, Y+5	; 0x05
    1f02:	5e 81       	ldd	r21, Y+6	; 0x06
    1f04:	63 e0       	ldi	r22, 0x03	; 3
    1f06:	d9 cf       	rjmp	.-78     	; 0x1eba <voProcessData+0x36c>
    1f08:	81 30       	cpi	r24, 0x01	; 1
    1f0a:	99 f4       	brne	.+38     	; 0x1f32 <voProcessData+0x3e4>
    1f0c:	0e 94 f6 1d 	call	0x3bec	; 0x3bec <boGetConnected>
    1f10:	88 23       	and	r24, r24
    1f12:	a9 f2       	breq	.-86     	; 0x1ebe <voProcessData+0x370>
    1f14:	0e 94 fd 1d 	call	0x3bfa	; 0x3bfa <GetUSBStream>
    1f18:	18 2f       	mov	r17, r24
    1f1a:	09 2f       	mov	r16, r25
    1f1c:	80 91 51 02 	lds	r24, 0x0251	; 0x800251 <u8ProgToChange>
    1f20:	63 e0       	ldi	r22, 0x03	; 3
    1f22:	59 d5       	rcall	.+2738   	; 0x29d6 <boEEFS_ReadUserProgrammParam>
    1f24:	9f 93       	push	r25
    1f26:	8f 93       	push	r24
    1f28:	7f 93       	push	r23
    1f2a:	6f 93       	push	r22
    1f2c:	86 e6       	ldi	r24, 0x66	; 102
    1f2e:	93 e0       	ldi	r25, 0x03	; 3
    1f30:	6c cf       	rjmp	.-296    	; 0x1e0a <voProcessData+0x2bc>
    1f32:	83 30       	cpi	r24, 0x03	; 3
    1f34:	09 f0       	breq	.+2      	; 0x1f38 <voProcessData+0x3ea>
    1f36:	ac cf       	rjmp	.-168    	; 0x1e90 <voProcessData+0x342>
    1f38:	0e 94 f6 1d 	call	0x3bec	; 0x3bec <boGetConnected>
    1f3c:	88 23       	and	r24, r24
    1f3e:	09 f4       	brne	.+2      	; 0x1f42 <voProcessData+0x3f4>
    1f40:	be cf       	rjmp	.-132    	; 0x1ebe <voProcessData+0x370>
    1f42:	0e 94 fd 1d 	call	0x3bfa	; 0x3bfa <GetUSBStream>
    1f46:	26 e2       	ldi	r18, 0x26	; 38
    1f48:	33 e0       	ldi	r19, 0x03	; 3
    1f4a:	84 cf       	rjmp	.-248    	; 0x1e54 <voProcessData+0x306>
    1f4c:	91 11       	cpse	r25, r1
    1f4e:	08 c0       	rjmp	.+16     	; 0x1f60 <voProcessData+0x412>
    1f50:	80 91 51 02 	lds	r24, 0x0251	; 0x800251 <u8ProgToChange>
    1f54:	2b 81       	ldd	r18, Y+3	; 0x03
    1f56:	3c 81       	ldd	r19, Y+4	; 0x04
    1f58:	4d 81       	ldd	r20, Y+5	; 0x05
    1f5a:	5e 81       	ldd	r21, Y+6	; 0x06
    1f5c:	62 e0       	ldi	r22, 0x02	; 2
    1f5e:	ad cf       	rjmp	.-166    	; 0x1eba <voProcessData+0x36c>
    1f60:	91 30       	cpi	r25, 0x01	; 1
    1f62:	d1 f4       	brne	.+52     	; 0x1f98 <voProcessData+0x44a>
    1f64:	0e 94 f6 1d 	call	0x3bec	; 0x3bec <boGetConnected>
    1f68:	88 23       	and	r24, r24
    1f6a:	09 f4       	brne	.+2      	; 0x1f6e <voProcessData+0x420>
    1f6c:	a8 cf       	rjmp	.-176    	; 0x1ebe <voProcessData+0x370>
    1f6e:	0e 94 fd 1d 	call	0x3bfa	; 0x3bfa <GetUSBStream>
    1f72:	18 2f       	mov	r17, r24
    1f74:	09 2f       	mov	r16, r25
    1f76:	80 91 51 02 	lds	r24, 0x0251	; 0x800251 <u8ProgToChange>
    1f7a:	62 e0       	ldi	r22, 0x02	; 2
    1f7c:	2c d5       	rcall	.+2648   	; 0x29d6 <boEEFS_ReadUserProgrammParam>
    1f7e:	9f 93       	push	r25
    1f80:	8f 93       	push	r24
    1f82:	7f 93       	push	r23
    1f84:	6f 93       	push	r22
    1f86:	82 e4       	ldi	r24, 0x42	; 66
    1f88:	91 e0       	ldi	r25, 0x01	; 1
    1f8a:	9f 93       	push	r25
    1f8c:	8f 93       	push	r24
    1f8e:	0f 93       	push	r16
    1f90:	1f 93       	push	r17
    1f92:	0e 94 1c 1f 	call	0x3e38	; 0x3e38 <fprintf>
    1f96:	3f cf       	rjmp	.-386    	; 0x1e16 <voProcessData+0x2c8>
    1f98:	93 30       	cpi	r25, 0x03	; 3
    1f9a:	09 f0       	breq	.+2      	; 0x1f9e <voProcessData+0x450>
    1f9c:	79 cf       	rjmp	.-270    	; 0x1e90 <voProcessData+0x342>
    1f9e:	0e 94 f6 1d 	call	0x3bec	; 0x3bec <boGetConnected>
    1fa2:	88 23       	and	r24, r24
    1fa4:	09 f4       	brne	.+2      	; 0x1fa8 <voProcessData+0x45a>
    1fa6:	8b cf       	rjmp	.-234    	; 0x1ebe <voProcessData+0x370>
    1fa8:	0e 94 fd 1d 	call	0x3bfa	; 0x3bfa <GetUSBStream>
    1fac:	28 eb       	ldi	r18, 0xB8	; 184
    1fae:	33 e0       	ldi	r19, 0x03	; 3
    1fb0:	51 cf       	rjmp	.-350    	; 0x1e54 <voProcessData+0x306>
    1fb2:	0e 94 f6 1d 	call	0x3bec	; 0x3bec <boGetConnected>
    1fb6:	88 23       	and	r24, r24
    1fb8:	09 f4       	brne	.+2      	; 0x1fbc <voProcessData+0x46e>
    1fba:	81 cf       	rjmp	.-254    	; 0x1ebe <voProcessData+0x370>
    1fbc:	0e 94 fd 1d 	call	0x3bfa	; 0x3bfa <GetUSBStream>
    1fc0:	18 2f       	mov	r17, r24
    1fc2:	09 2f       	mov	r16, r25
    1fc4:	80 91 51 02 	lds	r24, 0x0251	; 0x800251 <u8ProgToChange>
    1fc8:	60 e0       	ldi	r22, 0x00	; 0
    1fca:	05 d5       	rcall	.+2570   	; 0x29d6 <boEEFS_ReadUserProgrammParam>
    1fcc:	9f 93       	push	r25
    1fce:	8f 93       	push	r24
    1fd0:	7f 93       	push	r23
    1fd2:	6f 93       	push	r22
    1fd4:	87 e3       	ldi	r24, 0x37	; 55
    1fd6:	94 e0       	ldi	r25, 0x04	; 4
    1fd8:	18 cf       	rjmp	.-464    	; 0x1e0a <voProcessData+0x2bc>
    1fda:	91 11       	cpse	r25, r1
    1fdc:	08 c0       	rjmp	.+16     	; 0x1fee <voProcessData+0x4a0>
    1fde:	80 91 51 02 	lds	r24, 0x0251	; 0x800251 <u8ProgToChange>
    1fe2:	2b 81       	ldd	r18, Y+3	; 0x03
    1fe4:	3c 81       	ldd	r19, Y+4	; 0x04
    1fe6:	4d 81       	ldd	r20, Y+5	; 0x05
    1fe8:	5e 81       	ldd	r21, Y+6	; 0x06
    1fea:	61 e0       	ldi	r22, 0x01	; 1
    1fec:	66 cf       	rjmp	.-308    	; 0x1eba <voProcessData+0x36c>
    1fee:	91 30       	cpi	r25, 0x01	; 1
    1ff0:	a1 f4       	brne	.+40     	; 0x201a <voProcessData+0x4cc>
    1ff2:	0e 94 f6 1d 	call	0x3bec	; 0x3bec <boGetConnected>
    1ff6:	88 23       	and	r24, r24
    1ff8:	09 f4       	brne	.+2      	; 0x1ffc <voProcessData+0x4ae>
    1ffa:	61 cf       	rjmp	.-318    	; 0x1ebe <voProcessData+0x370>
    1ffc:	0e 94 fd 1d 	call	0x3bfa	; 0x3bfa <GetUSBStream>
    2000:	18 2f       	mov	r17, r24
    2002:	09 2f       	mov	r16, r25
    2004:	80 91 51 02 	lds	r24, 0x0251	; 0x800251 <u8ProgToChange>
    2008:	61 e0       	ldi	r22, 0x01	; 1
    200a:	e5 d4       	rcall	.+2506   	; 0x29d6 <boEEFS_ReadUserProgrammParam>
    200c:	9f 93       	push	r25
    200e:	8f 93       	push	r24
    2010:	7f 93       	push	r23
    2012:	6f 93       	push	r22
    2014:	80 eb       	ldi	r24, 0xB0	; 176
    2016:	93 e0       	ldi	r25, 0x03	; 3
    2018:	f8 ce       	rjmp	.-528    	; 0x1e0a <voProcessData+0x2bc>
    201a:	93 30       	cpi	r25, 0x03	; 3
    201c:	09 f0       	breq	.+2      	; 0x2020 <voProcessData+0x4d2>
    201e:	38 cf       	rjmp	.-400    	; 0x1e90 <voProcessData+0x342>
    2020:	0e 94 f6 1d 	call	0x3bec	; 0x3bec <boGetConnected>
    2024:	88 23       	and	r24, r24
    2026:	09 f4       	brne	.+2      	; 0x202a <voProcessData+0x4dc>
    2028:	4a cf       	rjmp	.-364    	; 0x1ebe <voProcessData+0x370>
    202a:	0e 94 fd 1d 	call	0x3bfa	; 0x3bfa <GetUSBStream>
    202e:	2e e6       	ldi	r18, 0x6E	; 110
    2030:	33 e0       	ldi	r19, 0x03	; 3
    2032:	10 cf       	rjmp	.-480    	; 0x1e54 <voProcessData+0x306>
    2034:	85 30       	cpi	r24, 0x05	; 5
    2036:	89 f5       	brne	.+98     	; 0x209a <voProcessData+0x54c>
    2038:	89 81       	ldd	r24, Y+1	; 0x01
    203a:	81 11       	cpse	r24, r1
    203c:	0d c0       	rjmp	.+26     	; 0x2058 <voProcessData+0x50a>
    203e:	8b 81       	ldd	r24, Y+3	; 0x03
    2040:	9c 81       	ldd	r25, Y+4	; 0x04
    2042:	ad 81       	ldd	r26, Y+5	; 0x05
    2044:	be 81       	ldd	r27, Y+6	; 0x06
    2046:	88 30       	cpi	r24, 0x08	; 8
    2048:	91 05       	cpc	r25, r1
    204a:	a1 05       	cpc	r26, r1
    204c:	b1 05       	cpc	r27, r1
    204e:	08 f0       	brcs	.+2      	; 0x2052 <voProcessData+0x504>
    2050:	68 c0       	rjmp	.+208    	; 0x2122 <voProcessData+0x5d4>
    2052:	80 93 51 02 	sts	0x0251, r24	; 0x800251 <u8ProgToChange>
    2056:	32 cf       	rjmp	.-412    	; 0x1ebc <voProcessData+0x36e>
    2058:	81 30       	cpi	r24, 0x01	; 1
    205a:	91 f4       	brne	.+36     	; 0x2080 <voProcessData+0x532>
    205c:	0e 94 f6 1d 	call	0x3bec	; 0x3bec <boGetConnected>
    2060:	88 23       	and	r24, r24
    2062:	09 f4       	brne	.+2      	; 0x2066 <voProcessData+0x518>
    2064:	2c cf       	rjmp	.-424    	; 0x1ebe <voProcessData+0x370>
    2066:	0e 94 fd 1d 	call	0x3bfa	; 0x3bfa <GetUSBStream>
    206a:	20 91 51 02 	lds	r18, 0x0251	; 0x800251 <u8ProgToChange>
    206e:	1f 92       	push	r1
    2070:	2f 93       	push	r18
    2072:	2c ed       	ldi	r18, 0xDC	; 220
    2074:	32 e0       	ldi	r19, 0x02	; 2
    2076:	3f 93       	push	r19
    2078:	2f 93       	push	r18
    207a:	9f 93       	push	r25
    207c:	8f 93       	push	r24
    207e:	28 c0       	rjmp	.+80     	; 0x20d0 <voProcessData+0x582>
    2080:	83 30       	cpi	r24, 0x03	; 3
    2082:	09 f0       	breq	.+2      	; 0x2086 <voProcessData+0x538>
    2084:	05 cf       	rjmp	.-502    	; 0x1e90 <voProcessData+0x342>
    2086:	0e 94 f6 1d 	call	0x3bec	; 0x3bec <boGetConnected>
    208a:	88 23       	and	r24, r24
    208c:	09 f4       	brne	.+2      	; 0x2090 <voProcessData+0x542>
    208e:	17 cf       	rjmp	.-466    	; 0x1ebe <voProcessData+0x370>
    2090:	0e 94 fd 1d 	call	0x3bfa	; 0x3bfa <GetUSBStream>
    2094:	2e e9       	ldi	r18, 0x9E	; 158
    2096:	32 e0       	ldi	r19, 0x02	; 2
    2098:	dd ce       	rjmp	.-582    	; 0x1e54 <voProcessData+0x306>
    209a:	86 30       	cpi	r24, 0x06	; 6
    209c:	08 f0       	brcs	.+2      	; 0x20a0 <voProcessData+0x552>
    209e:	f8 ce       	rjmp	.-528    	; 0x1e90 <voProcessData+0x342>
    20a0:	89 81       	ldd	r24, Y+1	; 0x01
    20a2:	88 23       	and	r24, r24
    20a4:	d1 f1       	breq	.+116    	; 0x211a <voProcessData+0x5cc>
    20a6:	81 30       	cpi	r24, 0x01	; 1
    20a8:	09 f0       	breq	.+2      	; 0x20ac <voProcessData+0x55e>
    20aa:	3d c0       	rjmp	.+122    	; 0x2126 <voProcessData+0x5d8>
    20ac:	0e 94 f6 1d 	call	0x3bec	; 0x3bec <boGetConnected>
    20b0:	88 23       	and	r24, r24
    20b2:	09 f4       	brne	.+2      	; 0x20b6 <voProcessData+0x568>
    20b4:	04 cf       	rjmp	.-504    	; 0x1ebe <voProcessData+0x370>
    20b6:	0e 94 fd 1d 	call	0x3bfa	; 0x3bfa <GetUSBStream>
    20ba:	18 2f       	mov	r17, r24
    20bc:	09 2f       	mov	r16, r25
    20be:	d5 d8       	rcall	.-3670   	; 0x126a <u8GetCurrenProgrammIdx>
    20c0:	1f 92       	push	r1
    20c2:	8f 93       	push	r24
    20c4:	8e e1       	ldi	r24, 0x1E	; 30
    20c6:	93 e0       	ldi	r25, 0x03	; 3
    20c8:	9f 93       	push	r25
    20ca:	8f 93       	push	r24
    20cc:	0f 93       	push	r16
    20ce:	1f 93       	push	r17
    20d0:	0e 94 2b 1f 	call	0x3e56	; 0x3e56 <fprintf_P>
    20d4:	1b c0       	rjmp	.+54     	; 0x210c <voProcessData+0x5be>
    20d6:	99 81       	ldd	r25, Y+1	; 0x01
    20d8:	89 30       	cpi	r24, 0x09	; 9
    20da:	09 f0       	breq	.+2      	; 0x20de <voProcessData+0x590>
    20dc:	66 c0       	rjmp	.+204    	; 0x21aa <voProcessData+0x65c>
    20de:	91 30       	cpi	r25, 0x01	; 1
    20e0:	09 f0       	breq	.+2      	; 0x20e4 <voProcessData+0x596>
    20e2:	51 c0       	rjmp	.+162    	; 0x2186 <voProcessData+0x638>
    20e4:	0e 94 f6 1d 	call	0x3bec	; 0x3bec <boGetConnected>
    20e8:	88 23       	and	r24, r24
    20ea:	09 f4       	brne	.+2      	; 0x20ee <voProcessData+0x5a0>
    20ec:	e8 ce       	rjmp	.-560    	; 0x1ebe <voProcessData+0x370>
    20ee:	0e 94 fd 1d 	call	0x3bfa	; 0x3bfa <GetUSBStream>
    20f2:	18 2f       	mov	r17, r24
    20f4:	09 2f       	mov	r16, r25
    20f6:	1e d9       	rcall	.-3524   	; 0x1334 <u8GetCupLevel>
    20f8:	1f 92       	push	r1
    20fa:	8f 93       	push	r24
    20fc:	8b e4       	ldi	r24, 0x4B	; 75
    20fe:	91 e0       	ldi	r25, 0x01	; 1
    2100:	9f 93       	push	r25
    2102:	8f 93       	push	r24
    2104:	0f 93       	push	r16
    2106:	1f 93       	push	r17
    2108:	0e 94 1c 1f 	call	0x3e38	; 0x3e38 <fprintf>
    210c:	0f 90       	pop	r0
    210e:	0f 90       	pop	r0
    2110:	0f 90       	pop	r0
    2112:	0f 90       	pop	r0
    2114:	0f 90       	pop	r0
    2116:	0f 90       	pop	r0
    2118:	d2 ce       	rjmp	.-604    	; 0x1ebe <voProcessData+0x370>
    211a:	8b 81       	ldd	r24, Y+3	; 0x03
    211c:	71 d8       	rcall	.-3870   	; 0x1200 <boCoffeeFSM_LoadProgramm>
    211e:	81 11       	cpse	r24, r1
    2120:	cd ce       	rjmp	.-614    	; 0x1ebc <voProcessData+0x36e>
    2122:	dc dc       	rcall	.-1608   	; 0x1adc <voResponseParamErr>
    2124:	cc ce       	rjmp	.-616    	; 0x1ebe <voProcessData+0x370>
    2126:	83 30       	cpi	r24, 0x03	; 3
    2128:	09 f0       	breq	.+2      	; 0x212c <voProcessData+0x5de>
    212a:	b2 ce       	rjmp	.-668    	; 0x1e90 <voProcessData+0x342>
    212c:	0e 94 f6 1d 	call	0x3bec	; 0x3bec <boGetConnected>
    2130:	88 23       	and	r24, r24
    2132:	09 f4       	brne	.+2      	; 0x2136 <voProcessData+0x5e8>
    2134:	c4 ce       	rjmp	.-632    	; 0x1ebe <voProcessData+0x370>
    2136:	0e 94 fd 1d 	call	0x3bfa	; 0x3bfa <GetUSBStream>
    213a:	24 ee       	ldi	r18, 0xE4	; 228
    213c:	32 e0       	ldi	r19, 0x02	; 2
    213e:	8a ce       	rjmp	.-748    	; 0x1e54 <voProcessData+0x306>
    2140:	89 81       	ldd	r24, Y+1	; 0x01
    2142:	81 30       	cpi	r24, 0x01	; 1
    2144:	09 f0       	breq	.+2      	; 0x2148 <voProcessData+0x5fa>
    2146:	bb ce       	rjmp	.-650    	; 0x1ebe <voProcessData+0x370>
    2148:	0e 94 f6 1d 	call	0x3bec	; 0x3bec <boGetConnected>
    214c:	88 23       	and	r24, r24
    214e:	39 f0       	breq	.+14     	; 0x215e <voProcessData+0x610>
    2150:	0e 94 fd 1d 	call	0x3bfa	; 0x3bfa <GetUSBStream>
    2154:	18 2f       	mov	r17, r24
    2156:	09 2f       	mov	r16, r25
    2158:	3d d8       	rcall	.-3974   	; 0x11d4 <u16GetStandbyTemp>
    215a:	9f 93       	push	r25
    215c:	ce cf       	rjmp	.-100    	; 0x20fa <voProcessData+0x5ac>
    215e:	89 81       	ldd	r24, Y+1	; 0x01
    2160:	81 11       	cpse	r24, r1
    2162:	04 c0       	rjmp	.+8      	; 0x216c <voProcessData+0x61e>
    2164:	8b 81       	ldd	r24, Y+3	; 0x03
    2166:	9c 81       	ldd	r25, Y+4	; 0x04
    2168:	3a d8       	rcall	.-3980   	; 0x11de <voSetStandbyTemp>
    216a:	a8 ce       	rjmp	.-688    	; 0x1ebc <voProcessData+0x36e>
    216c:	83 30       	cpi	r24, 0x03	; 3
    216e:	09 f0       	breq	.+2      	; 0x2172 <voProcessData+0x624>
    2170:	8f ce       	rjmp	.-738    	; 0x1e90 <voProcessData+0x342>
    2172:	0e 94 f6 1d 	call	0x3bec	; 0x3bec <boGetConnected>
    2176:	88 23       	and	r24, r24
    2178:	09 f4       	brne	.+2      	; 0x217c <voProcessData+0x62e>
    217a:	a1 ce       	rjmp	.-702    	; 0x1ebe <voProcessData+0x370>
    217c:	0e 94 fd 1d 	call	0x3bfa	; 0x3bfa <GetUSBStream>
    2180:	2c e5       	ldi	r18, 0x5C	; 92
    2182:	31 e0       	ldi	r19, 0x01	; 1
    2184:	67 ce       	rjmp	.-818    	; 0x1e54 <voProcessData+0x306>
    2186:	91 11       	cpse	r25, r1
    2188:	03 c0       	rjmp	.+6      	; 0x2190 <voProcessData+0x642>
    218a:	8b 81       	ldd	r24, Y+3	; 0x03
    218c:	c1 d8       	rcall	.-3710   	; 0x1310 <voSetCupLevel>
    218e:	96 ce       	rjmp	.-724    	; 0x1ebc <voProcessData+0x36e>
    2190:	93 30       	cpi	r25, 0x03	; 3
    2192:	09 f0       	breq	.+2      	; 0x2196 <voProcessData+0x648>
    2194:	7d ce       	rjmp	.-774    	; 0x1e90 <voProcessData+0x342>
    2196:	0e 94 f6 1d 	call	0x3bec	; 0x3bec <boGetConnected>
    219a:	88 23       	and	r24, r24
    219c:	09 f4       	brne	.+2      	; 0x21a0 <voProcessData+0x652>
    219e:	8f ce       	rjmp	.-738    	; 0x1ebe <voProcessData+0x370>
    21a0:	0e 94 fd 1d 	call	0x3bfa	; 0x3bfa <GetUSBStream>
    21a4:	29 ec       	ldi	r18, 0xC9	; 201
    21a6:	31 e0       	ldi	r19, 0x01	; 1
    21a8:	55 ce       	rjmp	.-854    	; 0x1e54 <voProcessData+0x306>
    21aa:	8a 30       	cpi	r24, 0x0A	; 10
    21ac:	f8 f4       	brcc	.+62     	; 0x21ec <voProcessData+0x69e>
    21ae:	91 30       	cpi	r25, 0x01	; 1
    21b0:	81 f4       	brne	.+32     	; 0x21d2 <voProcessData+0x684>
    21b2:	0e 94 f6 1d 	call	0x3bec	; 0x3bec <boGetConnected>
    21b6:	88 23       	and	r24, r24
    21b8:	09 f4       	brne	.+2      	; 0x21bc <voProcessData+0x66e>
    21ba:	81 ce       	rjmp	.-766    	; 0x1ebe <voProcessData+0x370>
    21bc:	0e 94 fd 1d 	call	0x3bfa	; 0x3bfa <GetUSBStream>
    21c0:	18 2f       	mov	r17, r24
    21c2:	09 2f       	mov	r16, r25
    21c4:	0e 94 1b 08 	call	0x1036	; 0x1036 <s16BTC_GetCurrentBoilerTemp>
    21c8:	9f 93       	push	r25
    21ca:	8f 93       	push	r24
    21cc:	83 e5       	ldi	r24, 0x53	; 83
    21ce:	92 e0       	ldi	r25, 0x02	; 2
    21d0:	7b cf       	rjmp	.-266    	; 0x20c8 <voProcessData+0x57a>
    21d2:	93 30       	cpi	r25, 0x03	; 3
    21d4:	09 f0       	breq	.+2      	; 0x21d8 <voProcessData+0x68a>
    21d6:	5c ce       	rjmp	.-840    	; 0x1e90 <voProcessData+0x342>
    21d8:	0e 94 f6 1d 	call	0x3bec	; 0x3bec <boGetConnected>
    21dc:	88 23       	and	r24, r24
    21de:	09 f4       	brne	.+2      	; 0x21e2 <voProcessData+0x694>
    21e0:	6e ce       	rjmp	.-804    	; 0x1ebe <voProcessData+0x370>
    21e2:	0e 94 fd 1d 	call	0x3bfa	; 0x3bfa <GetUSBStream>
    21e6:	27 e0       	ldi	r18, 0x07	; 7
    21e8:	32 e0       	ldi	r19, 0x02	; 2
    21ea:	34 ce       	rjmp	.-920    	; 0x1e54 <voProcessData+0x306>
    21ec:	91 30       	cpi	r25, 0x01	; 1
    21ee:	59 f4       	brne	.+22     	; 0x2206 <voProcessData+0x6b8>
    21f0:	0e 94 f6 1d 	call	0x3bec	; 0x3bec <boGetConnected>
    21f4:	88 23       	and	r24, r24
    21f6:	09 f4       	brne	.+2      	; 0x21fa <voProcessData+0x6ac>
    21f8:	62 ce       	rjmp	.-828    	; 0x1ebe <voProcessData+0x370>
    21fa:	0e 94 fd 1d 	call	0x3bfa	; 0x3bfa <GetUSBStream>
    21fe:	18 2f       	mov	r17, r24
    2200:	09 2f       	mov	r16, r25
    2202:	a4 d8       	rcall	.-3768   	; 0x134c <u8GetAutoPowerOff>
    2204:	79 cf       	rjmp	.-270    	; 0x20f8 <voProcessData+0x5aa>
    2206:	91 11       	cpse	r25, r1
    2208:	03 c0       	rjmp	.+6      	; 0x2210 <voProcessData+0x6c2>
    220a:	8b 81       	ldd	r24, Y+3	; 0x03
    220c:	96 d8       	rcall	.-3796   	; 0x133a <voSetAutoPowerOff>
    220e:	56 ce       	rjmp	.-852    	; 0x1ebc <voProcessData+0x36e>
    2210:	93 30       	cpi	r25, 0x03	; 3
    2212:	09 f0       	breq	.+2      	; 0x2216 <voProcessData+0x6c8>
    2214:	3d ce       	rjmp	.-902    	; 0x1e90 <voProcessData+0x342>
    2216:	0e 94 f6 1d 	call	0x3bec	; 0x3bec <boGetConnected>
    221a:	88 23       	and	r24, r24
    221c:	09 f4       	brne	.+2      	; 0x2220 <voProcessData+0x6d2>
    221e:	4f ce       	rjmp	.-866    	; 0x1ebe <voProcessData+0x370>
    2220:	0e 94 fd 1d 	call	0x3bfa	; 0x3bfa <GetUSBStream>
    2224:	26 e8       	ldi	r18, 0x86	; 134
    2226:	31 e0       	ldi	r19, 0x01	; 1
    2228:	15 ce       	rjmp	.-982    	; 0x1e54 <voProcessData+0x306>
    222a:	89 81       	ldd	r24, Y+1	; 0x01
    222c:	81 30       	cpi	r24, 0x01	; 1
    222e:	99 f4       	brne	.+38     	; 0x2256 <voProcessData+0x708>
    2230:	0e 94 f6 1d 	call	0x3bec	; 0x3bec <boGetConnected>
    2234:	88 23       	and	r24, r24
    2236:	09 f4       	brne	.+2      	; 0x223a <voProcessData+0x6ec>
    2238:	42 ce       	rjmp	.-892    	; 0x1ebe <voProcessData+0x370>
    223a:	0e 94 fd 1d 	call	0x3bfa	; 0x3bfa <GetUSBStream>
    223e:	20 91 50 02 	lds	r18, 0x0250	; 0x800250 <CmdConfig>
    2242:	21 70       	andi	r18, 0x01	; 1
    2244:	1f 92       	push	r1
    2246:	2f 93       	push	r18
    2248:	2b e4       	ldi	r18, 0x4B	; 75
    224a:	31 e0       	ldi	r19, 0x01	; 1
    224c:	3f 93       	push	r19
    224e:	2f 93       	push	r18
    2250:	9f 93       	push	r25
    2252:	8f 93       	push	r24
    2254:	59 cf       	rjmp	.-334    	; 0x2108 <voProcessData+0x5ba>
    2256:	81 11       	cpse	r24, r1
    2258:	12 c0       	rjmp	.+36     	; 0x227e <voProcessData+0x730>
    225a:	8b 81       	ldd	r24, Y+3	; 0x03
    225c:	9c 81       	ldd	r25, Y+4	; 0x04
    225e:	ad 81       	ldd	r26, Y+5	; 0x05
    2260:	be 81       	ldd	r27, Y+6	; 0x06
    2262:	89 2b       	or	r24, r25
    2264:	8a 2b       	or	r24, r26
    2266:	8b 2b       	or	r24, r27
    2268:	21 f0       	breq	.+8      	; 0x2272 <voProcessData+0x724>
    226a:	80 91 50 02 	lds	r24, 0x0250	; 0x800250 <CmdConfig>
    226e:	81 60       	ori	r24, 0x01	; 1
    2270:	03 c0       	rjmp	.+6      	; 0x2278 <voProcessData+0x72a>
    2272:	80 91 50 02 	lds	r24, 0x0250	; 0x800250 <CmdConfig>
    2276:	8e 7f       	andi	r24, 0xFE	; 254
    2278:	80 93 50 02 	sts	0x0250, r24	; 0x800250 <CmdConfig>
    227c:	1f ce       	rjmp	.-962    	; 0x1ebc <voProcessData+0x36e>
    227e:	83 30       	cpi	r24, 0x03	; 3
    2280:	09 f0       	breq	.+2      	; 0x2284 <voProcessData+0x736>
    2282:	06 ce       	rjmp	.-1012   	; 0x1e90 <voProcessData+0x342>
    2284:	0e 94 f6 1d 	call	0x3bec	; 0x3bec <boGetConnected>
    2288:	88 23       	and	r24, r24
    228a:	09 f4       	brne	.+2      	; 0x228e <voProcessData+0x740>
    228c:	18 ce       	rjmp	.-976    	; 0x1ebe <voProcessData+0x370>
    228e:	0e 94 fd 1d 	call	0x3bfa	; 0x3bfa <GetUSBStream>
    2292:	2e e1       	ldi	r18, 0x1E	; 30
    2294:	31 e0       	ldi	r19, 0x01	; 1
    2296:	de cd       	rjmp	.-1092   	; 0x1e54 <voProcessData+0x306>
    2298:	0e 94 f6 1d 	call	0x3bec	; 0x3bec <boGetConnected>
    229c:	88 23       	and	r24, r24
    229e:	09 f4       	brne	.+2      	; 0x22a2 <voProcessData+0x754>
    22a0:	0e ce       	rjmp	.-996    	; 0x1ebe <voProcessData+0x370>
    22a2:	0e 94 fd 1d 	call	0x3bfa	; 0x3bfa <GetUSBStream>
    22a6:	18 2f       	mov	r17, r24
    22a8:	09 2f       	mov	r16, r25
    22aa:	80 91 51 02 	lds	r24, 0x0251	; 0x800251 <u8ProgToChange>
    22ae:	60 e0       	ldi	r22, 0x00	; 0
    22b0:	92 d3       	rcall	.+1828   	; 0x29d6 <boEEFS_ReadUserProgrammParam>
    22b2:	9f 93       	push	r25
    22b4:	8f 93       	push	r24
    22b6:	7f 93       	push	r23
    22b8:	6f 93       	push	r22
    22ba:	80 e5       	ldi	r24, 0x50	; 80
    22bc:	95 e0       	ldi	r25, 0x05	; 5
    22be:	a5 cd       	rjmp	.-1206   	; 0x1e0a <voProcessData+0x2bc>
    22c0:	80 91 00 01 	lds	r24, 0x0100	; 0x800100 <__data_start>
    22c4:	88 23       	and	r24, r24
    22c6:	21 f1       	breq	.+72     	; 0x2310 <voProcessData+0x7c2>
    22c8:	0e 94 f6 1d 	call	0x3bec	; 0x3bec <boGetConnected>
    22cc:	88 23       	and	r24, r24
    22ce:	09 f4       	brne	.+2      	; 0x22d2 <voProcessData+0x784>
    22d0:	f6 cd       	rjmp	.-1044   	; 0x1ebe <voProcessData+0x370>
    22d2:	0e 94 fd 1d 	call	0x3bfa	; 0x3bfa <GetUSBStream>
    22d6:	20 91 00 01 	lds	r18, 0x0100	; 0x800100 <__data_start>
    22da:	50 91 00 01 	lds	r21, 0x0100	; 0x800100 <__data_start>
    22de:	40 91 00 01 	lds	r20, 0x0100	; 0x800100 <__data_start>
    22e2:	30 e0       	ldi	r19, 0x00	; 0
    22e4:	21 50       	subi	r18, 0x01	; 1
    22e6:	31 09       	sbc	r19, r1
    22e8:	3f 93       	push	r19
    22ea:	2f 93       	push	r18
    22ec:	1f 92       	push	r1
    22ee:	5f 93       	push	r21
    22f0:	1f 92       	push	r1
    22f2:	4f 93       	push	r20
    22f4:	22 ed       	ldi	r18, 0xD2	; 210
    22f6:	34 e0       	ldi	r19, 0x04	; 4
    22f8:	3f 93       	push	r19
    22fa:	2f 93       	push	r18
    22fc:	9f 93       	push	r25
    22fe:	8f 93       	push	r24
    2300:	0e 94 2b 1f 	call	0x3e56	; 0x3e56 <fprintf_P>
    2304:	80 91 00 01 	lds	r24, 0x0100	; 0x800100 <__data_start>
    2308:	81 50       	subi	r24, 0x01	; 1
    230a:	80 93 00 01 	sts	0x0100, r24	; 0x800100 <__data_start>
    230e:	83 cd       	rjmp	.-1274   	; 0x1e16 <voProcessData+0x2c8>
    2310:	0e 94 f6 1d 	call	0x3bec	; 0x3bec <boGetConnected>
    2314:	88 23       	and	r24, r24
    2316:	09 f4       	brne	.+2      	; 0x231a <voProcessData+0x7cc>
    2318:	d2 cd       	rjmp	.-1116   	; 0x1ebe <voProcessData+0x370>
    231a:	0e 94 fd 1d 	call	0x3bfa	; 0x3bfa <GetUSBStream>
    231e:	2f e3       	ldi	r18, 0x3F	; 63
    2320:	34 e0       	ldi	r19, 0x04	; 4
    2322:	3f 93       	push	r19
    2324:	2f 93       	push	r18
    2326:	9f 93       	push	r25
    2328:	8f 93       	push	r24
    232a:	0e 94 2b 1f 	call	0x3e56	; 0x3e56 <fprintf_P>
    232e:	83 e6       	ldi	r24, 0x63	; 99
    2330:	80 93 00 01 	sts	0x0100, r24	; 0x800100 <__data_start>
    2334:	95 cd       	rjmp	.-1238   	; 0x1e60 <voProcessData+0x312>
    2336:	8e 30       	cpi	r24, 0x0E	; 14
    2338:	09 f0       	breq	.+2      	; 0x233c <voProcessData+0x7ee>
    233a:	4b c0       	rjmp	.+150    	; 0x23d2 <voProcessData+0x884>
    233c:	89 81       	ldd	r24, Y+1	; 0x01
    233e:	82 30       	cpi	r24, 0x02	; 2
    2340:	c1 f5       	brne	.+112    	; 0x23b2 <voProcessData+0x864>
    2342:	8b 81       	ldd	r24, Y+3	; 0x03
    2344:	9c 81       	ldd	r25, Y+4	; 0x04
    2346:	ad 81       	ldd	r26, Y+5	; 0x05
    2348:	be 81       	ldd	r27, Y+6	; 0x06
    234a:	00 97       	sbiw	r24, 0x00	; 0
    234c:	a1 05       	cpc	r26, r1
    234e:	b1 05       	cpc	r27, r1
    2350:	29 f0       	breq	.+10     	; 0x235c <voProcessData+0x80e>
    2352:	01 97       	sbiw	r24, 0x01	; 1
    2354:	a1 05       	cpc	r26, r1
    2356:	b1 05       	cpc	r27, r1
    2358:	89 f0       	breq	.+34     	; 0x237c <voProcessData+0x82e>
    235a:	e3 ce       	rjmp	.-570    	; 0x2122 <voProcessData+0x5d4>
    235c:	81 e0       	ldi	r24, 0x01	; 1
    235e:	0e 94 61 09 	call	0x12c2	; 0x12c2 <boCoffeeFSM_MakeCoffee>
    2362:	88 23       	and	r24, r24
    2364:	d9 f0       	breq	.+54     	; 0x239c <voProcessData+0x84e>
    2366:	0e 94 f6 1d 	call	0x3bec	; 0x3bec <boGetConnected>
    236a:	88 23       	and	r24, r24
    236c:	09 f4       	brne	.+2      	; 0x2370 <voProcessData+0x822>
    236e:	a7 cd       	rjmp	.-1202   	; 0x1ebe <voProcessData+0x370>
    2370:	0e 94 fd 1d 	call	0x3bfa	; 0x3bfa <GetUSBStream>
    2374:	bc 01       	movw	r22, r24
    2376:	8f e6       	ldi	r24, 0x6F	; 111
    2378:	91 e0       	ldi	r25, 0x01	; 1
    237a:	28 c0       	rjmp	.+80     	; 0x23cc <voProcessData+0x87e>
    237c:	81 e0       	ldi	r24, 0x01	; 1
    237e:	0e 94 61 09 	call	0x12c2	; 0x12c2 <boCoffeeFSM_MakeCoffee>
    2382:	88 23       	and	r24, r24
    2384:	59 f0       	breq	.+22     	; 0x239c <voProcessData+0x84e>
    2386:	0e 94 f6 1d 	call	0x3bec	; 0x3bec <boGetConnected>
    238a:	88 23       	and	r24, r24
    238c:	09 f4       	brne	.+2      	; 0x2390 <voProcessData+0x842>
    238e:	97 cd       	rjmp	.-1234   	; 0x1ebe <voProcessData+0x370>
    2390:	0e 94 fd 1d 	call	0x3bfa	; 0x3bfa <GetUSBStream>
    2394:	bc 01       	movw	r22, r24
    2396:	8a e8       	ldi	r24, 0x8A	; 138
    2398:	91 e0       	ldi	r25, 0x01	; 1
    239a:	18 c0       	rjmp	.+48     	; 0x23cc <voProcessData+0x87e>
    239c:	0e 94 f6 1d 	call	0x3bec	; 0x3bec <boGetConnected>
    23a0:	88 23       	and	r24, r24
    23a2:	09 f4       	brne	.+2      	; 0x23a6 <voProcessData+0x858>
    23a4:	8c cd       	rjmp	.-1256   	; 0x1ebe <voProcessData+0x370>
    23a6:	0e 94 fd 1d 	call	0x3bfa	; 0x3bfa <GetUSBStream>
    23aa:	bc 01       	movw	r22, r24
    23ac:	8c e7       	ldi	r24, 0x7C	; 124
    23ae:	91 e0       	ldi	r25, 0x01	; 1
    23b0:	0d c0       	rjmp	.+26     	; 0x23cc <voProcessData+0x87e>
    23b2:	83 30       	cpi	r24, 0x03	; 3
    23b4:	09 f0       	breq	.+2      	; 0x23b8 <voProcessData+0x86a>
    23b6:	83 cd       	rjmp	.-1274   	; 0x1ebe <voProcessData+0x370>
    23b8:	0e 94 f6 1d 	call	0x3bec	; 0x3bec <boGetConnected>
    23bc:	88 23       	and	r24, r24
    23be:	09 f4       	brne	.+2      	; 0x23c2 <voProcessData+0x874>
    23c0:	7e cd       	rjmp	.-1284   	; 0x1ebe <voProcessData+0x370>
    23c2:	0e 94 fd 1d 	call	0x3bfa	; 0x3bfa <GetUSBStream>
    23c6:	bc 01       	movw	r22, r24
    23c8:	86 e9       	ldi	r24, 0x96	; 150
    23ca:	91 e0       	ldi	r25, 0x01	; 1
    23cc:	0e 94 43 1f 	call	0x3e86	; 0x3e86 <fputs>
    23d0:	76 cd       	rjmp	.-1300   	; 0x1ebe <voProcessData+0x370>
    23d2:	8f 30       	cpi	r24, 0x0F	; 15
    23d4:	09 f0       	breq	.+2      	; 0x23d8 <voProcessData+0x88a>
    23d6:	73 cd       	rjmp	.-1306   	; 0x1ebe <voProcessData+0x370>
    23d8:	89 81       	ldd	r24, Y+1	; 0x01
    23da:	82 30       	cpi	r24, 0x02	; 2
    23dc:	59 f5       	brne	.+86     	; 0x2434 <voProcessData+0x8e6>
    23de:	8b 81       	ldd	r24, Y+3	; 0x03
    23e0:	9c 81       	ldd	r25, Y+4	; 0x04
    23e2:	ad 81       	ldd	r26, Y+5	; 0x05
    23e4:	be 81       	ldd	r27, Y+6	; 0x06
    23e6:	00 97       	sbiw	r24, 0x00	; 0
    23e8:	a1 05       	cpc	r26, r1
    23ea:	b1 05       	cpc	r27, r1
    23ec:	29 f0       	breq	.+10     	; 0x23f8 <voProcessData+0x8aa>
    23ee:	01 97       	sbiw	r24, 0x01	; 1
    23f0:	a1 05       	cpc	r26, r1
    23f2:	b1 05       	cpc	r27, r1
    23f4:	79 f0       	breq	.+30     	; 0x2414 <voProcessData+0x8c6>
    23f6:	95 ce       	rjmp	.-726    	; 0x2122 <voProcessData+0x5d4>
    23f8:	0e 94 f6 1d 	call	0x3bec	; 0x3bec <boGetConnected>
    23fc:	88 23       	and	r24, r24
    23fe:	09 f4       	brne	.+2      	; 0x2402 <voProcessData+0x8b4>
    2400:	5e cd       	rjmp	.-1348   	; 0x1ebe <voProcessData+0x370>
    2402:	0e 94 fd 1d 	call	0x3bfa	; 0x3bfa <GetUSBStream>
    2406:	bc 01       	movw	r22, r24
    2408:	83 e5       	ldi	r24, 0x53	; 83
    240a:	91 e0       	ldi	r25, 0x01	; 1
    240c:	0e 94 43 1f 	call	0x3e86	; 0x3e86 <fputs>
    2410:	80 e0       	ldi	r24, 0x00	; 0
    2412:	0d c0       	rjmp	.+26     	; 0x242e <voProcessData+0x8e0>
    2414:	0e 94 f6 1d 	call	0x3bec	; 0x3bec <boGetConnected>
    2418:	88 23       	and	r24, r24
    241a:	09 f4       	brne	.+2      	; 0x241e <voProcessData+0x8d0>
    241c:	50 cd       	rjmp	.-1376   	; 0x1ebe <voProcessData+0x370>
    241e:	0e 94 fd 1d 	call	0x3bfa	; 0x3bfa <GetUSBStream>
    2422:	bc 01       	movw	r22, r24
    2424:	82 e6       	ldi	r24, 0x62	; 98
    2426:	91 e0       	ldi	r25, 0x01	; 1
    2428:	0e 94 43 1f 	call	0x3e86	; 0x3e86 <fputs>
    242c:	81 e0       	ldi	r24, 0x01	; 1
    242e:	0e 94 7b 09 	call	0x12f6	; 0x12f6 <voCoffeeFSM_SetPower>
    2432:	45 cd       	rjmp	.-1398   	; 0x1ebe <voProcessData+0x370>
    2434:	83 30       	cpi	r24, 0x03	; 3
    2436:	09 f0       	breq	.+2      	; 0x243a <voProcessData+0x8ec>
    2438:	42 cd       	rjmp	.-1404   	; 0x1ebe <voProcessData+0x370>
    243a:	73 ce       	rjmp	.-794    	; 0x2122 <voProcessData+0x5d4>

0000243c <CMDI_voTask>:
    243c:	10 92 92 02 	sts	0x0292, r1	; 0x800292 <chInputBuffer+0x40>
    2440:	80 91 93 02 	lds	r24, 0x0293	; 0x800293 <u8InputBufferWriteIdx>
    2444:	88 23       	and	r24, r24
    2446:	79 f0       	breq	.+30     	; 0x2466 <CMDI_voTask+0x2a>
    2448:	e0 91 93 02 	lds	r30, 0x0293	; 0x800293 <u8InputBufferWriteIdx>
    244c:	f0 e0       	ldi	r31, 0x00	; 0
    244e:	ef 5a       	subi	r30, 0xAF	; 175
    2450:	fd 4f       	sbci	r31, 0xFD	; 253
    2452:	80 81       	ld	r24, Z
    2454:	8d 30       	cpi	r24, 0x0D	; 13
    2456:	39 f4       	brne	.+14     	; 0x2466 <CMDI_voTask+0x2a>
    2458:	e0 91 93 02 	lds	r30, 0x0293	; 0x800293 <u8InputBufferWriteIdx>
    245c:	f0 e0       	ldi	r31, 0x00	; 0
    245e:	ef 5a       	subi	r30, 0xAF	; 175
    2460:	fd 4f       	sbci	r31, 0xFD	; 253
    2462:	10 82       	st	Z, r1
    2464:	74 cb       	rjmp	.-2328   	; 0x1b4e <voProcessData>
    2466:	08 95       	ret

00002468 <DPS_Init>:
    2468:	ef 92       	push	r14
    246a:	ff 92       	push	r15
    246c:	0f 93       	push	r16
    246e:	1f 93       	push	r17
    2470:	cf 93       	push	r28
    2472:	df 93       	push	r29
    2474:	82 e3       	ldi	r24, 0x32	; 50
    2476:	e8 2e       	mov	r14, r24
    2478:	82 e0       	ldi	r24, 0x02	; 2
    247a:	f8 2e       	mov	r15, r24
    247c:	09 e2       	ldi	r16, 0x29	; 41
    247e:	12 e0       	ldi	r17, 0x02	; 2
    2480:	c0 e0       	ldi	r28, 0x00	; 0
    2482:	d4 e0       	ldi	r29, 0x04	; 4
    2484:	f7 01       	movw	r30, r14
    2486:	d1 93       	st	Z+, r29
    2488:	7f 01       	movw	r14, r30
    248a:	f8 01       	movw	r30, r16
    248c:	d1 93       	st	Z+, r29
    248e:	8f 01       	movw	r16, r30
    2490:	61 e0       	ldi	r22, 0x01	; 1
    2492:	8c 2f       	mov	r24, r28
    2494:	0e 94 1e 06 	call	0xc3c	; 0xc3c <SDP_voSetIconVisibility>
    2498:	cf 5f       	subi	r28, 0xFF	; 255
    249a:	c9 30       	cpi	r28, 0x09	; 9
    249c:	99 f7       	brne	.-26     	; 0x2484 <DPS_Init+0x1c>
    249e:	df 91       	pop	r29
    24a0:	cf 91       	pop	r28
    24a2:	1f 91       	pop	r17
    24a4:	0f 91       	pop	r16
    24a6:	ff 90       	pop	r15
    24a8:	ef 90       	pop	r14
    24aa:	0c 94 d4 06 	jmp	0xda8	; 0xda8 <SDP_voRefreshDisplay>

000024ae <DPS_voTask>:
    24ae:	af 92       	push	r10
    24b0:	bf 92       	push	r11
    24b2:	cf 92       	push	r12
    24b4:	df 92       	push	r13
    24b6:	ef 92       	push	r14
    24b8:	ff 92       	push	r15
    24ba:	0f 93       	push	r16
    24bc:	1f 93       	push	r17
    24be:	cf 93       	push	r28
    24c0:	30 91 1f 02 	lds	r19, 0x021F	; 0x80021f <u8_10Hz_Cnt>
    24c4:	3f 5f       	subi	r19, 0xFF	; 255
    24c6:	30 93 1f 02 	sts	0x021F, r19	; 0x80021f <u8_10Hz_Cnt>
    24ca:	20 91 1e 02 	lds	r18, 0x021E	; 0x80021e <u8_5Hz_Cnt>
    24ce:	2f 5f       	subi	r18, 0xFF	; 255
    24d0:	20 93 1e 02 	sts	0x021E, r18	; 0x80021e <u8_5Hz_Cnt>
    24d4:	90 91 1d 02 	lds	r25, 0x021D	; 0x80021d <u8_2Hz_Cnt>
    24d8:	9f 5f       	subi	r25, 0xFF	; 255
    24da:	90 93 1d 02 	sts	0x021D, r25	; 0x80021d <u8_2Hz_Cnt>
    24de:	80 91 1c 02 	lds	r24, 0x021C	; 0x80021c <u8_1Hz_Cnt>
    24e2:	8f 5f       	subi	r24, 0xFF	; 255
    24e4:	80 93 1c 02 	sts	0x021C, r24	; 0x80021c <u8_1Hz_Cnt>
    24e8:	31 11       	cpse	r19, r1
    24ea:	10 92 1f 02 	sts	0x021F, r1	; 0x80021f <u8_10Hz_Cnt>
    24ee:	22 30       	cpi	r18, 0x02	; 2
    24f0:	10 f0       	brcs	.+4      	; 0x24f6 <DPS_voTask+0x48>
    24f2:	10 92 1e 02 	sts	0x021E, r1	; 0x80021e <u8_5Hz_Cnt>
    24f6:	95 30       	cpi	r25, 0x05	; 5
    24f8:	10 f0       	brcs	.+4      	; 0x24fe <DPS_voTask+0x50>
    24fa:	10 92 1d 02 	sts	0x021D, r1	; 0x80021d <u8_2Hz_Cnt>
    24fe:	8a 30       	cpi	r24, 0x0A	; 10
    2500:	10 f0       	brcs	.+4      	; 0x2506 <DPS_voTask+0x58>
    2502:	10 92 1c 02 	sts	0x021C, r1	; 0x80021c <u8_1Hz_Cnt>
    2506:	09 e2       	ldi	r16, 0x29	; 41
    2508:	12 e0       	ldi	r17, 0x02	; 2
    250a:	82 e3       	ldi	r24, 0x32	; 50
    250c:	c8 2e       	mov	r12, r24
    250e:	82 e0       	ldi	r24, 0x02	; 2
    2510:	d8 2e       	mov	r13, r24
    2512:	90 e2       	ldi	r25, 0x20	; 32
    2514:	e9 2e       	mov	r14, r25
    2516:	92 e0       	ldi	r25, 0x02	; 2
    2518:	f9 2e       	mov	r15, r25
    251a:	c0 e0       	ldi	r28, 0x00	; 0
    251c:	f8 01       	movw	r30, r16
    251e:	90 81       	ld	r25, Z
    2520:	56 01       	movw	r10, r12
    2522:	f6 01       	movw	r30, r12
    2524:	80 81       	ld	r24, Z
    2526:	98 17       	cp	r25, r24
    2528:	99 f0       	breq	.+38     	; 0x2550 <DPS_voTask+0xa2>
    252a:	94 30       	cpi	r25, 0x04	; 4
    252c:	41 f4       	brne	.+16     	; 0x253e <DPS_voTask+0x90>
    252e:	f8 01       	movw	r30, r16
    2530:	80 83       	st	Z, r24
    2532:	8c 2f       	mov	r24, r28
    2534:	0e 94 f5 06 	call	0xdea	; 0xdea <SDP_emGetIconVisibility>
    2538:	f7 01       	movw	r30, r14
    253a:	80 83       	st	Z, r24
    253c:	09 c0       	rjmp	.+18     	; 0x2550 <DPS_voTask+0xa2>
    253e:	84 30       	cpi	r24, 0x04	; 4
    2540:	39 f4       	brne	.+14     	; 0x2550 <DPS_voTask+0xa2>
    2542:	f8 01       	movw	r30, r16
    2544:	80 83       	st	Z, r24
    2546:	f7 01       	movw	r30, r14
    2548:	60 81       	ld	r22, Z
    254a:	8c 2f       	mov	r24, r28
    254c:	0e 94 1e 06 	call	0xc3c	; 0xc3c <SDP_voSetIconVisibility>
    2550:	ff ef       	ldi	r31, 0xFF	; 255
    2552:	cf 1a       	sub	r12, r31
    2554:	df 0a       	sbc	r13, r31
    2556:	f5 01       	movw	r30, r10
    2558:	80 81       	ld	r24, Z
    255a:	81 30       	cpi	r24, 0x01	; 1
    255c:	59 f0       	breq	.+22     	; 0x2574 <DPS_voTask+0xc6>
    255e:	38 f0       	brcs	.+14     	; 0x256e <DPS_voTask+0xc0>
    2560:	82 30       	cpi	r24, 0x02	; 2
    2562:	59 f0       	breq	.+22     	; 0x257a <DPS_voTask+0xcc>
    2564:	83 30       	cpi	r24, 0x03	; 3
    2566:	89 f4       	brne	.+34     	; 0x258a <DPS_voTask+0xdc>
    2568:	80 91 1c 02 	lds	r24, 0x021C	; 0x80021c <u8_1Hz_Cnt>
    256c:	08 c0       	rjmp	.+16     	; 0x257e <DPS_voTask+0xd0>
    256e:	80 91 1f 02 	lds	r24, 0x021F	; 0x80021f <u8_10Hz_Cnt>
    2572:	05 c0       	rjmp	.+10     	; 0x257e <DPS_voTask+0xd0>
    2574:	80 91 1e 02 	lds	r24, 0x021E	; 0x80021e <u8_5Hz_Cnt>
    2578:	02 c0       	rjmp	.+4      	; 0x257e <DPS_voTask+0xd0>
    257a:	80 91 1d 02 	lds	r24, 0x021D	; 0x80021d <u8_2Hz_Cnt>
    257e:	81 11       	cpse	r24, r1
    2580:	04 c0       	rjmp	.+8      	; 0x258a <DPS_voTask+0xdc>
    2582:	62 e0       	ldi	r22, 0x02	; 2
    2584:	8c 2f       	mov	r24, r28
    2586:	0e 94 1e 06 	call	0xc3c	; 0xc3c <SDP_voSetIconVisibility>
    258a:	cf 5f       	subi	r28, 0xFF	; 255
    258c:	0f 5f       	subi	r16, 0xFF	; 255
    258e:	1f 4f       	sbci	r17, 0xFF	; 255
    2590:	ff ef       	ldi	r31, 0xFF	; 255
    2592:	ef 1a       	sub	r14, r31
    2594:	ff 0a       	sbc	r15, r31
    2596:	c9 30       	cpi	r28, 0x09	; 9
    2598:	09 f6       	brne	.-126    	; 0x251c <DPS_voTask+0x6e>
    259a:	cf 91       	pop	r28
    259c:	1f 91       	pop	r17
    259e:	0f 91       	pop	r16
    25a0:	ff 90       	pop	r15
    25a2:	ef 90       	pop	r14
    25a4:	df 90       	pop	r13
    25a6:	cf 90       	pop	r12
    25a8:	bf 90       	pop	r11
    25aa:	af 90       	pop	r10
    25ac:	0c 94 d4 06 	jmp	0xda8	; 0xda8 <SDP_voRefreshDisplay>

000025b0 <DPS_SetBlinkFreq>:
    25b0:	69 30       	cpi	r22, 0x09	; 9
    25b2:	38 f4       	brcc	.+14     	; 0x25c2 <DPS_SetBlinkFreq+0x12>
    25b4:	e6 2f       	mov	r30, r22
    25b6:	f0 e0       	ldi	r31, 0x00	; 0
    25b8:	ee 5c       	subi	r30, 0xCE	; 206
    25ba:	fd 4f       	sbci	r31, 0xFD	; 253
    25bc:	90 81       	ld	r25, Z
    25be:	98 13       	cpse	r25, r24
    25c0:	80 83       	st	Z, r24
    25c2:	08 95       	ret

000025c4 <DPS_SetIconVisibility>:
    25c4:	98 2f       	mov	r25, r24
    25c6:	86 2f       	mov	r24, r22
    25c8:	69 2f       	mov	r22, r25
    25ca:	0c 94 1e 06 	jmp	0xc3c	; 0xc3c <SDP_voSetIconVisibility>

000025ce <_crc_ccitt_update>:
static __inline__ uint16_t
_crc_ccitt_update (uint16_t __crc, uint8_t __data)
{
    uint16_t __ret;

    __asm__ __volatile__ (
    25ce:	86 27       	eor	r24, r22
    25d0:	08 2e       	mov	r0, r24
    25d2:	82 95       	swap	r24
    25d4:	80 7f       	andi	r24, 0xF0	; 240
    25d6:	80 25       	eor	r24, r0
    25d8:	09 2e       	mov	r0, r25
    25da:	98 2f       	mov	r25, r24
    25dc:	82 95       	swap	r24
    25de:	8f 70       	andi	r24, 0x0F	; 15
    25e0:	08 26       	eor	r0, r24
    25e2:	86 95       	lsr	r24
    25e4:	98 27       	eor	r25, r24
    25e6:	89 27       	eor	r24, r25
    25e8:	88 0f       	add	r24, r24
    25ea:	88 0f       	add	r24, r24
    25ec:	88 0f       	add	r24, r24
    25ee:	80 25       	eor	r24, r0
        : "=d" (__ret)
        : "r" (__data), "0" (__crc)
        : "r0"
    );
    return __ret;
}
    25f0:	08 95       	ret

000025f2 <voSetDefaultSystemSettingsValues>:
    25f2:	fc 01       	movw	r30, r24
    25f4:	83 81       	ldd	r24, Z+3	; 0x03
    25f6:	80 78       	andi	r24, 0x80	; 128
    25f8:	8c 60       	ori	r24, 0x0C	; 12
    25fa:	8f 77       	andi	r24, 0x7F	; 127
    25fc:	83 83       	std	Z+3, r24	; 0x03
    25fe:	82 e3       	ldi	r24, 0x32	; 50
    2600:	81 83       	std	Z+1, r24	; 0x01
    2602:	86 ee       	ldi	r24, 0xE6	; 230
    2604:	82 83       	std	Z+2, r24	; 0x02
    2606:	8c e4       	ldi	r24, 0x4C	; 76
    2608:	9d e1       	ldi	r25, 0x1D	; 29
    260a:	96 83       	std	Z+6, r25	; 0x06
    260c:	85 83       	std	Z+5, r24	; 0x05
    260e:	82 e0       	ldi	r24, 0x02	; 2
    2610:	84 83       	std	Z+4, r24	; 0x04
    2612:	17 82       	std	Z+7, r1	; 0x07
    2614:	08 95       	ret

00002616 <voSetDefaultUserSettingsValues>:
    2616:	fc 01       	movw	r30, r24
    2618:	88 ee       	ldi	r24, 0xE8	; 232
    261a:	93 e0       	ldi	r25, 0x03	; 3
    261c:	95 83       	std	Z+5, r25	; 0x05
    261e:	84 83       	std	Z+4, r24	; 0x04
    2620:	8c ea       	ldi	r24, 0xAC	; 172
    2622:	9d e0       	ldi	r25, 0x0D	; 13
    2624:	97 83       	std	Z+7, r25	; 0x07
    2626:	86 83       	std	Z+6, r24	; 0x06
    2628:	8c e4       	ldi	r24, 0x4C	; 76
    262a:	9d e1       	ldi	r25, 0x1D	; 29
    262c:	93 83       	std	Z+3, r25	; 0x03
    262e:	82 83       	std	Z+2, r24	; 0x02
    2630:	88 e2       	ldi	r24, 0x28	; 40
    2632:	93 e2       	ldi	r25, 0x23	; 35
    2634:	91 83       	std	Z+1, r25	; 0x01
    2636:	80 83       	st	Z, r24
    2638:	8a ea       	ldi	r24, 0xAA	; 170
    263a:	9a ea       	ldi	r25, 0xAA	; 170
    263c:	91 87       	std	Z+9, r25	; 0x09
    263e:	80 87       	std	Z+8, r24	; 0x08
    2640:	25 e5       	ldi	r18, 0x55	; 85
    2642:	35 e5       	ldi	r19, 0x55	; 85
    2644:	33 87       	std	Z+11, r19	; 0x0b
    2646:	22 87       	std	Z+10, r18	; 0x0a
    2648:	95 87       	std	Z+13, r25	; 0x0d
    264a:	84 87       	std	Z+12, r24	; 0x0c
    264c:	17 86       	std	Z+15, r1	; 0x0f
    264e:	16 86       	std	Z+14, r1	; 0x0e
    2650:	08 95       	ret

00002652 <voWriteMagicKey>:
    2652:	ef 92       	push	r14
    2654:	ff 92       	push	r15
    2656:	0f 93       	push	r16
    2658:	1f 93       	push	r17
    265a:	cf 93       	push	r28
    265c:	df 93       	push	r29
    265e:	cd b7       	in	r28, 0x3d	; 61
    2660:	de b7       	in	r29, 0x3e	; 62
    2662:	2a 97       	sbiw	r28, 0x0a	; 10
    2664:	0f b6       	in	r0, 0x3f	; 63
    2666:	f8 94       	cli
    2668:	de bf       	out	0x3e, r29	; 62
    266a:	0f be       	out	0x3f, r0	; 63
    266c:	cd bf       	out	0x3d, r28	; 61
    266e:	85 e6       	ldi	r24, 0x65	; 101
    2670:	89 83       	std	Y+1, r24	; 0x01
    2672:	88 e4       	ldi	r24, 0x48	; 72
    2674:	8a 83       	std	Y+2, r24	; 0x02
    2676:	81 e6       	ldi	r24, 0x61	; 97
    2678:	8b 83       	std	Y+3, r24	; 0x03
    267a:	8a e4       	ldi	r24, 0x4A	; 74
    267c:	8c 83       	std	Y+4, r24	; 0x04
    267e:	8f e6       	ldi	r24, 0x6F	; 111
    2680:	8d 83       	std	Y+5, r24	; 0x05
    2682:	8a e9       	ldi	r24, 0x9A	; 154
    2684:	8e 83       	std	Y+6, r24	; 0x06
    2686:	87 eb       	ldi	r24, 0xB7	; 183
    2688:	8f 83       	std	Y+7, r24	; 0x07
    268a:	8e e9       	ldi	r24, 0x9E	; 158
    268c:	88 87       	std	Y+8, r24	; 0x08
    268e:	85 eb       	ldi	r24, 0xB5	; 181
    2690:	89 87       	std	Y+9, r24	; 0x09
    2692:	80 e9       	ldi	r24, 0x90	; 144
    2694:	8a 87       	std	Y+10, r24	; 0x0a
    2696:	ce 01       	movw	r24, r28
    2698:	01 96       	adiw	r24, 0x01	; 1
    269a:	7c 01       	movw	r14, r24
    269c:	06 ef       	ldi	r16, 0xF6	; 246
    269e:	13 e0       	ldi	r17, 0x03	; 3
    26a0:	f7 01       	movw	r30, r14
    26a2:	61 91       	ld	r22, Z+
    26a4:	7f 01       	movw	r14, r30
    26a6:	c8 01       	movw	r24, r16
    26a8:	0e 94 f9 21 	call	0x43f2	; 0x43f2 <eeprom_update_byte>
    26ac:	0f 5f       	subi	r16, 0xFF	; 255
    26ae:	1f 4f       	sbci	r17, 0xFF	; 255
    26b0:	01 15       	cp	r16, r1
    26b2:	f4 e0       	ldi	r31, 0x04	; 4
    26b4:	1f 07       	cpc	r17, r31
    26b6:	a1 f7       	brne	.-24     	; 0x26a0 <voWriteMagicKey+0x4e>
    26b8:	2a 96       	adiw	r28, 0x0a	; 10
    26ba:	0f b6       	in	r0, 0x3f	; 63
    26bc:	f8 94       	cli
    26be:	de bf       	out	0x3e, r29	; 62
    26c0:	0f be       	out	0x3f, r0	; 63
    26c2:	cd bf       	out	0x3d, r28	; 61
    26c4:	df 91       	pop	r29
    26c6:	cf 91       	pop	r28
    26c8:	1f 91       	pop	r17
    26ca:	0f 91       	pop	r16
    26cc:	ff 90       	pop	r15
    26ce:	ef 90       	pop	r14
    26d0:	08 95       	ret

000026d2 <voEEFS_WriteSystemSettings>:
    26d2:	ef 92       	push	r14
    26d4:	ff 92       	push	r15
    26d6:	0f 93       	push	r16
    26d8:	1f 93       	push	r17
    26da:	cf 93       	push	r28
    26dc:	df 93       	push	r29
    26de:	ec 01       	movw	r28, r24
    26e0:	7c 01       	movw	r14, r24
    26e2:	88 e0       	ldi	r24, 0x08	; 8
    26e4:	e8 0e       	add	r14, r24
    26e6:	f1 1c       	adc	r15, r1
    26e8:	8e 01       	movw	r16, r28
    26ea:	8f ef       	ldi	r24, 0xFF	; 255
    26ec:	9f ef       	ldi	r25, 0xFF	; 255
    26ee:	f8 01       	movw	r30, r16
    26f0:	61 91       	ld	r22, Z+
    26f2:	8f 01       	movw	r16, r30
    26f4:	6c df       	rcall	.-296    	; 0x25ce <_crc_ccitt_update>
    26f6:	0e 15       	cp	r16, r14
    26f8:	1f 05       	cpc	r17, r15
    26fa:	c9 f7       	brne	.-14     	; 0x26ee <voEEFS_WriteSystemSettings+0x1c>
    26fc:	99 87       	std	Y+9, r25	; 0x09
    26fe:	88 87       	std	Y+8, r24	; 0x08
    2700:	02 e8       	ldi	r16, 0x82	; 130
    2702:	13 e0       	ldi	r17, 0x03	; 3
    2704:	69 91       	ld	r22, Y+
    2706:	c8 01       	movw	r24, r16
    2708:	0e 94 f9 21 	call	0x43f2	; 0x43f2 <eeprom_update_byte>
    270c:	0f 5f       	subi	r16, 0xFF	; 255
    270e:	1f 4f       	sbci	r17, 0xFF	; 255
    2710:	0c 38       	cpi	r16, 0x8C	; 140
    2712:	f3 e0       	ldi	r31, 0x03	; 3
    2714:	1f 07       	cpc	r17, r31
    2716:	b1 f7       	brne	.-20     	; 0x2704 <voEEFS_WriteSystemSettings+0x32>
    2718:	df 91       	pop	r29
    271a:	cf 91       	pop	r28
    271c:	1f 91       	pop	r17
    271e:	0f 91       	pop	r16
    2720:	ff 90       	pop	r15
    2722:	ef 90       	pop	r14
    2724:	08 95       	ret

00002726 <voEEFS_ReadSystemSettings>:
    2726:	cf 92       	push	r12
    2728:	df 92       	push	r13
    272a:	ef 92       	push	r14
    272c:	ff 92       	push	r15
    272e:	0f 93       	push	r16
    2730:	1f 93       	push	r17
    2732:	cf 93       	push	r28
    2734:	df 93       	push	r29
    2736:	ec 01       	movw	r28, r24
    2738:	6c 01       	movw	r12, r24
    273a:	02 e8       	ldi	r16, 0x82	; 130
    273c:	13 e0       	ldi	r17, 0x03	; 3
    273e:	ee 24       	eor	r14, r14
    2740:	ea 94       	dec	r14
    2742:	fe 2c       	mov	r15, r14
    2744:	c8 01       	movw	r24, r16
    2746:	0e 94 f1 21 	call	0x43e2	; 0x43e2 <eeprom_read_byte>
    274a:	f6 01       	movw	r30, r12
    274c:	81 93       	st	Z+, r24
    274e:	6f 01       	movw	r12, r30
    2750:	68 2f       	mov	r22, r24
    2752:	c7 01       	movw	r24, r14
    2754:	3c df       	rcall	.-392    	; 0x25ce <_crc_ccitt_update>
    2756:	7c 01       	movw	r14, r24
    2758:	0f 5f       	subi	r16, 0xFF	; 255
    275a:	1f 4f       	sbci	r17, 0xFF	; 255
    275c:	0a 38       	cpi	r16, 0x8A	; 138
    275e:	f3 e0       	ldi	r31, 0x03	; 3
    2760:	1f 07       	cpc	r17, r31
    2762:	81 f7       	brne	.-32     	; 0x2744 <voEEFS_ReadSystemSettings+0x1e>
    2764:	8a e8       	ldi	r24, 0x8A	; 138
    2766:	93 e0       	ldi	r25, 0x03	; 3
    2768:	0e 94 f1 21 	call	0x43e2	; 0x43e2 <eeprom_read_byte>
    276c:	88 87       	std	Y+8, r24	; 0x08
    276e:	8b e8       	ldi	r24, 0x8B	; 139
    2770:	93 e0       	ldi	r25, 0x03	; 3
    2772:	0e 94 f1 21 	call	0x43e2	; 0x43e2 <eeprom_read_byte>
    2776:	89 87       	std	Y+9, r24	; 0x09
    2778:	81 e0       	ldi	r24, 0x01	; 1
    277a:	28 85       	ldd	r18, Y+8	; 0x08
    277c:	39 85       	ldd	r19, Y+9	; 0x09
    277e:	2e 15       	cp	r18, r14
    2780:	3f 05       	cpc	r19, r15
    2782:	09 f0       	breq	.+2      	; 0x2786 <voEEFS_ReadSystemSettings+0x60>
    2784:	80 e0       	ldi	r24, 0x00	; 0
    2786:	df 91       	pop	r29
    2788:	cf 91       	pop	r28
    278a:	1f 91       	pop	r17
    278c:	0f 91       	pop	r16
    278e:	ff 90       	pop	r15
    2790:	ef 90       	pop	r14
    2792:	df 90       	pop	r13
    2794:	cf 90       	pop	r12
    2796:	08 95       	ret

00002798 <voEEFS_WriteUserProgramm>:
    2798:	cf 92       	push	r12
    279a:	df 92       	push	r13
    279c:	ef 92       	push	r14
    279e:	ff 92       	push	r15
    27a0:	0f 93       	push	r16
    27a2:	1f 93       	push	r17
    27a4:	cf 93       	push	r28
    27a6:	df 93       	push	r29
    27a8:	88 30       	cpi	r24, 0x08	; 8
    27aa:	38 f5       	brcc	.+78     	; 0x27fa <voEEFS_WriteUserProgramm+0x62>
    27ac:	eb 01       	movw	r28, r22
    27ae:	08 2f       	mov	r16, r24
    27b0:	6b 01       	movw	r12, r22
    27b2:	8e e0       	ldi	r24, 0x0E	; 14
    27b4:	c8 0e       	add	r12, r24
    27b6:	d1 1c       	adc	r13, r1
    27b8:	7b 01       	movw	r14, r22
    27ba:	8f ef       	ldi	r24, 0xFF	; 255
    27bc:	9f ef       	ldi	r25, 0xFF	; 255
    27be:	f7 01       	movw	r30, r14
    27c0:	61 91       	ld	r22, Z+
    27c2:	7f 01       	movw	r14, r30
    27c4:	04 df       	rcall	.-504    	; 0x25ce <_crc_ccitt_update>
    27c6:	ec 14       	cp	r14, r12
    27c8:	fd 04       	cpc	r15, r13
    27ca:	c9 f7       	brne	.-14     	; 0x27be <voEEFS_WriteUserProgramm+0x26>
    27cc:	9f 87       	std	Y+15, r25	; 0x0f
    27ce:	8e 87       	std	Y+14, r24	; 0x0e
    27d0:	10 e0       	ldi	r17, 0x00	; 0
    27d2:	84 e0       	ldi	r24, 0x04	; 4
    27d4:	00 0f       	add	r16, r16
    27d6:	11 1f       	adc	r17, r17
    27d8:	8a 95       	dec	r24
    27da:	e1 f7       	brne	.-8      	; 0x27d4 <voEEFS_WriteUserProgramm+0x3c>
    27dc:	e1 2c       	mov	r14, r1
    27de:	f1 2c       	mov	r15, r1
    27e0:	69 91       	ld	r22, Y+
    27e2:	c8 01       	movw	r24, r16
    27e4:	8e 0d       	add	r24, r14
    27e6:	9f 1d       	adc	r25, r15
    27e8:	0e 94 f9 21 	call	0x43f2	; 0x43f2 <eeprom_update_byte>
    27ec:	ff ef       	ldi	r31, 0xFF	; 255
    27ee:	ef 1a       	sub	r14, r31
    27f0:	ff 0a       	sbc	r15, r31
    27f2:	80 e1       	ldi	r24, 0x10	; 16
    27f4:	e8 16       	cp	r14, r24
    27f6:	f1 04       	cpc	r15, r1
    27f8:	99 f7       	brne	.-26     	; 0x27e0 <voEEFS_WriteUserProgramm+0x48>
    27fa:	df 91       	pop	r29
    27fc:	cf 91       	pop	r28
    27fe:	1f 91       	pop	r17
    2800:	0f 91       	pop	r16
    2802:	ff 90       	pop	r15
    2804:	ef 90       	pop	r14
    2806:	df 90       	pop	r13
    2808:	cf 90       	pop	r12
    280a:	08 95       	ret

0000280c <boEEFS_ReadUserProgramm>:
    280c:	cf 92       	push	r12
    280e:	df 92       	push	r13
    2810:	ef 92       	push	r14
    2812:	ff 92       	push	r15
    2814:	0f 93       	push	r16
    2816:	1f 93       	push	r17
    2818:	cf 93       	push	r28
    281a:	df 93       	push	r29
    281c:	cd b7       	in	r28, 0x3d	; 61
    281e:	de b7       	in	r29, 0x3e	; 62
    2820:	28 97       	sbiw	r28, 0x08	; 8
    2822:	0f b6       	in	r0, 0x3f	; 63
    2824:	f8 94       	cli
    2826:	de bf       	out	0x3e, r29	; 62
    2828:	0f be       	out	0x3f, r0	; 63
    282a:	cd bf       	out	0x3d, r28	; 61
    282c:	28 2f       	mov	r18, r24
    282e:	30 e0       	ldi	r19, 0x00	; 0
    2830:	94 e0       	ldi	r25, 0x04	; 4
    2832:	22 0f       	add	r18, r18
    2834:	33 1f       	adc	r19, r19
    2836:	9a 95       	dec	r25
    2838:	e1 f7       	brne	.-8      	; 0x2832 <boEEFS_ReadUserProgramm+0x26>
    283a:	38 87       	std	Y+8, r19	; 0x08
    283c:	2f 83       	std	Y+7, r18	; 0x07
    283e:	2f ef       	ldi	r18, 0xFF	; 255
    2840:	3f ef       	ldi	r19, 0xFF	; 255
    2842:	3e 83       	std	Y+6, r19	; 0x06
    2844:	2d 83       	std	Y+5, r18	; 0x05
    2846:	1c 82       	std	Y+4, r1	; 0x04
    2848:	1b 82       	std	Y+3, r1	; 0x03
    284a:	20 e1       	ldi	r18, 0x10	; 16
    284c:	30 e0       	ldi	r19, 0x00	; 0
    284e:	3a 83       	std	Y+2, r19	; 0x02
    2850:	29 83       	std	Y+1, r18	; 0x01
    2852:	88 30       	cpi	r24, 0x08	; 8
    2854:	08 f0       	brcs	.+2      	; 0x2858 <boEEFS_ReadUserProgramm+0x4c>
    2856:	58 c0       	rjmp	.+176    	; 0x2908 <boEEFS_ReadUserProgramm+0xfc>
    2858:	89 81       	ldd	r24, Y+1	; 0x01
    285a:	9a 81       	ldd	r25, Y+2	; 0x02
    285c:	03 97       	sbiw	r24, 0x03	; 3
    285e:	28 f0       	brcs	.+10     	; 0x286a <boEEFS_ReadUserProgramm+0x5e>
    2860:	89 81       	ldd	r24, Y+1	; 0x01
    2862:	9a 81       	ldd	r25, Y+2	; 0x02
    2864:	02 97       	sbiw	r24, 0x02	; 2
    2866:	9a 83       	std	Y+2, r25	; 0x02
    2868:	89 83       	std	Y+1, r24	; 0x01
    286a:	8b 01       	movw	r16, r22
    286c:	e1 2c       	mov	r14, r1
    286e:	f1 2c       	mov	r15, r1
    2870:	68 01       	movw	r12, r16
    2872:	ce 0c       	add	r12, r14
    2874:	df 1c       	adc	r13, r15
    2876:	89 81       	ldd	r24, Y+1	; 0x01
    2878:	9a 81       	ldd	r25, Y+2	; 0x02
    287a:	e8 16       	cp	r14, r24
    287c:	f9 06       	cpc	r15, r25
    287e:	80 f4       	brcc	.+32     	; 0x28a0 <boEEFS_ReadUserProgramm+0x94>
    2880:	8f 81       	ldd	r24, Y+7	; 0x07
    2882:	98 85       	ldd	r25, Y+8	; 0x08
    2884:	8e 0d       	add	r24, r14
    2886:	9f 1d       	adc	r25, r15
    2888:	9c 83       	std	Y+4, r25	; 0x04
    288a:	8b 83       	std	Y+3, r24	; 0x03
    288c:	8b 81       	ldd	r24, Y+3	; 0x03
    288e:	9c 81       	ldd	r25, Y+4	; 0x04
    2890:	0e 94 f1 21 	call	0x43e2	; 0x43e2 <eeprom_read_byte>
    2894:	f6 01       	movw	r30, r12
    2896:	80 83       	st	Z, r24
    2898:	ff ef       	ldi	r31, 0xFF	; 255
    289a:	ef 1a       	sub	r14, r31
    289c:	ff 0a       	sbc	r15, r31
    289e:	e8 cf       	rjmp	.-48     	; 0x2870 <boEEFS_ReadUserProgramm+0x64>
    28a0:	e1 2c       	mov	r14, r1
    28a2:	f1 2c       	mov	r15, r1
    28a4:	68 01       	movw	r12, r16
    28a6:	ce 0c       	add	r12, r14
    28a8:	df 1c       	adc	r13, r15
    28aa:	89 81       	ldd	r24, Y+1	; 0x01
    28ac:	9a 81       	ldd	r25, Y+2	; 0x02
    28ae:	e8 16       	cp	r14, r24
    28b0:	f9 06       	cpc	r15, r25
    28b2:	58 f4       	brcc	.+22     	; 0x28ca <boEEFS_ReadUserProgramm+0xbe>
    28b4:	f6 01       	movw	r30, r12
    28b6:	60 81       	ld	r22, Z
    28b8:	8d 81       	ldd	r24, Y+5	; 0x05
    28ba:	9e 81       	ldd	r25, Y+6	; 0x06
    28bc:	88 de       	rcall	.-752    	; 0x25ce <_crc_ccitt_update>
    28be:	9e 83       	std	Y+6, r25	; 0x06
    28c0:	8d 83       	std	Y+5, r24	; 0x05
    28c2:	ff ef       	ldi	r31, 0xFF	; 255
    28c4:	ef 1a       	sub	r14, r31
    28c6:	ff 0a       	sbc	r15, r31
    28c8:	ed cf       	rjmp	.-38     	; 0x28a4 <boEEFS_ReadUserProgramm+0x98>
    28ca:	8f 81       	ldd	r24, Y+7	; 0x07
    28cc:	98 85       	ldd	r25, Y+8	; 0x08
    28ce:	0e 96       	adiw	r24, 0x0e	; 14
    28d0:	9c 83       	std	Y+4, r25	; 0x04
    28d2:	8b 83       	std	Y+3, r24	; 0x03
    28d4:	8b 81       	ldd	r24, Y+3	; 0x03
    28d6:	9c 81       	ldd	r25, Y+4	; 0x04
    28d8:	0e 94 f1 21 	call	0x43e2	; 0x43e2 <eeprom_read_byte>
    28dc:	f6 01       	movw	r30, r12
    28de:	80 83       	st	Z, r24
    28e0:	8f 81       	ldd	r24, Y+7	; 0x07
    28e2:	98 85       	ldd	r25, Y+8	; 0x08
    28e4:	0f 96       	adiw	r24, 0x0f	; 15
    28e6:	9c 83       	std	Y+4, r25	; 0x04
    28e8:	8b 83       	std	Y+3, r24	; 0x03
    28ea:	8b 81       	ldd	r24, Y+3	; 0x03
    28ec:	9c 81       	ldd	r25, Y+4	; 0x04
    28ee:	0e 94 f1 21 	call	0x43e2	; 0x43e2 <eeprom_read_byte>
    28f2:	f6 01       	movw	r30, r12
    28f4:	81 83       	std	Z+1, r24	; 0x01
    28f6:	2d 81       	ldd	r18, Y+5	; 0x05
    28f8:	3e 81       	ldd	r19, Y+6	; 0x06
    28fa:	81 e0       	ldi	r24, 0x01	; 1
    28fc:	f8 01       	movw	r30, r16
    28fe:	46 85       	ldd	r20, Z+14	; 0x0e
    2900:	57 85       	ldd	r21, Z+15	; 0x0f
    2902:	42 17       	cp	r20, r18
    2904:	53 07       	cpc	r21, r19
    2906:	09 f0       	breq	.+2      	; 0x290a <boEEFS_ReadUserProgramm+0xfe>
    2908:	80 e0       	ldi	r24, 0x00	; 0
    290a:	28 96       	adiw	r28, 0x08	; 8
    290c:	0f b6       	in	r0, 0x3f	; 63
    290e:	f8 94       	cli
    2910:	de bf       	out	0x3e, r29	; 62
    2912:	0f be       	out	0x3f, r0	; 63
    2914:	cd bf       	out	0x3d, r28	; 61
    2916:	df 91       	pop	r29
    2918:	cf 91       	pop	r28
    291a:	1f 91       	pop	r17
    291c:	0f 91       	pop	r16
    291e:	ff 90       	pop	r15
    2920:	ef 90       	pop	r14
    2922:	df 90       	pop	r13
    2924:	cf 90       	pop	r12
    2926:	08 95       	ret

00002928 <boEEFS_UpdateUserProgramm>:
    2928:	cf 92       	push	r12
    292a:	df 92       	push	r13
    292c:	ef 92       	push	r14
    292e:	ff 92       	push	r15
    2930:	0f 93       	push	r16
    2932:	1f 93       	push	r17
    2934:	cf 93       	push	r28
    2936:	df 93       	push	r29
    2938:	cd b7       	in	r28, 0x3d	; 61
    293a:	de b7       	in	r29, 0x3e	; 62
    293c:	60 97       	sbiw	r28, 0x10	; 16
    293e:	0f b6       	in	r0, 0x3f	; 63
    2940:	f8 94       	cli
    2942:	de bf       	out	0x3e, r29	; 62
    2944:	0f be       	out	0x3f, r0	; 63
    2946:	cd bf       	out	0x3d, r28	; 61
    2948:	18 2f       	mov	r17, r24
    294a:	06 2f       	mov	r16, r22
    294c:	69 01       	movw	r12, r18
    294e:	7a 01       	movw	r14, r20
    2950:	be 01       	movw	r22, r28
    2952:	6f 5f       	subi	r22, 0xFF	; 255
    2954:	7f 4f       	sbci	r23, 0xFF	; 255
    2956:	5a df       	rcall	.-332    	; 0x280c <boEEFS_ReadUserProgramm>
    2958:	01 30       	cpi	r16, 0x01	; 1
    295a:	09 f1       	breq	.+66     	; 0x299e <boEEFS_UpdateUserProgramm+0x76>
    295c:	28 f0       	brcs	.+10     	; 0x2968 <boEEFS_UpdateUserProgramm+0x40>
    295e:	02 30       	cpi	r16, 0x02	; 2
    2960:	61 f0       	breq	.+24     	; 0x297a <boEEFS_UpdateUserProgramm+0x52>
    2962:	03 30       	cpi	r16, 0x03	; 3
    2964:	99 f0       	breq	.+38     	; 0x298c <boEEFS_UpdateUserProgramm+0x64>
    2966:	28 c0       	rjmp	.+80     	; 0x29b8 <boEEFS_UpdateUserProgramm+0x90>
    2968:	8f ef       	ldi	r24, 0xFF	; 255
    296a:	c8 16       	cp	r12, r24
    296c:	d8 06       	cpc	r13, r24
    296e:	e1 04       	cpc	r14, r1
    2970:	f1 04       	cpc	r15, r1
    2972:	10 f5       	brcc	.+68     	; 0x29b8 <boEEFS_UpdateUserProgramm+0x90>
    2974:	da 82       	std	Y+2, r13	; 0x02
    2976:	c9 82       	std	Y+1, r12	; 0x01
    2978:	1a c0       	rjmp	.+52     	; 0x29ae <boEEFS_UpdateUserProgramm+0x86>
    297a:	8f ef       	ldi	r24, 0xFF	; 255
    297c:	c8 16       	cp	r12, r24
    297e:	d8 06       	cpc	r13, r24
    2980:	e1 04       	cpc	r14, r1
    2982:	f1 04       	cpc	r15, r1
    2984:	c8 f4       	brcc	.+50     	; 0x29b8 <boEEFS_UpdateUserProgramm+0x90>
    2986:	de 82       	std	Y+6, r13	; 0x06
    2988:	cd 82       	std	Y+5, r12	; 0x05
    298a:	11 c0       	rjmp	.+34     	; 0x29ae <boEEFS_UpdateUserProgramm+0x86>
    298c:	8f ef       	ldi	r24, 0xFF	; 255
    298e:	c8 16       	cp	r12, r24
    2990:	d8 06       	cpc	r13, r24
    2992:	e1 04       	cpc	r14, r1
    2994:	f1 04       	cpc	r15, r1
    2996:	80 f4       	brcc	.+32     	; 0x29b8 <boEEFS_UpdateUserProgramm+0x90>
    2998:	d8 86       	std	Y+8, r13	; 0x08
    299a:	cf 82       	std	Y+7, r12	; 0x07
    299c:	08 c0       	rjmp	.+16     	; 0x29ae <boEEFS_UpdateUserProgramm+0x86>
    299e:	8f ef       	ldi	r24, 0xFF	; 255
    29a0:	c8 16       	cp	r12, r24
    29a2:	d8 06       	cpc	r13, r24
    29a4:	e1 04       	cpc	r14, r1
    29a6:	f1 04       	cpc	r15, r1
    29a8:	38 f4       	brcc	.+14     	; 0x29b8 <boEEFS_UpdateUserProgramm+0x90>
    29aa:	dc 82       	std	Y+4, r13	; 0x04
    29ac:	cb 82       	std	Y+3, r12	; 0x03
    29ae:	be 01       	movw	r22, r28
    29b0:	6f 5f       	subi	r22, 0xFF	; 255
    29b2:	7f 4f       	sbci	r23, 0xFF	; 255
    29b4:	81 2f       	mov	r24, r17
    29b6:	f0 de       	rcall	.-544    	; 0x2798 <voEEFS_WriteUserProgramm>
    29b8:	60 96       	adiw	r28, 0x10	; 16
    29ba:	0f b6       	in	r0, 0x3f	; 63
    29bc:	f8 94       	cli
    29be:	de bf       	out	0x3e, r29	; 62
    29c0:	0f be       	out	0x3f, r0	; 63
    29c2:	cd bf       	out	0x3d, r28	; 61
    29c4:	df 91       	pop	r29
    29c6:	cf 91       	pop	r28
    29c8:	1f 91       	pop	r17
    29ca:	0f 91       	pop	r16
    29cc:	ff 90       	pop	r15
    29ce:	ef 90       	pop	r14
    29d0:	df 90       	pop	r13
    29d2:	cf 90       	pop	r12
    29d4:	08 95       	ret

000029d6 <boEEFS_ReadUserProgrammParam>:
    29d6:	1f 93       	push	r17
    29d8:	cf 93       	push	r28
    29da:	df 93       	push	r29
    29dc:	cd b7       	in	r28, 0x3d	; 61
    29de:	de b7       	in	r29, 0x3e	; 62
    29e0:	60 97       	sbiw	r28, 0x10	; 16
    29e2:	0f b6       	in	r0, 0x3f	; 63
    29e4:	f8 94       	cli
    29e6:	de bf       	out	0x3e, r29	; 62
    29e8:	0f be       	out	0x3f, r0	; 63
    29ea:	cd bf       	out	0x3d, r28	; 61
    29ec:	16 2f       	mov	r17, r22
    29ee:	be 01       	movw	r22, r28
    29f0:	6f 5f       	subi	r22, 0xFF	; 255
    29f2:	7f 4f       	sbci	r23, 0xFF	; 255
    29f4:	0b df       	rcall	.-490    	; 0x280c <boEEFS_ReadUserProgramm>
    29f6:	11 30       	cpi	r17, 0x01	; 1
    29f8:	71 f0       	breq	.+28     	; 0x2a16 <boEEFS_ReadUserProgrammParam+0x40>
    29fa:	38 f0       	brcs	.+14     	; 0x2a0a <boEEFS_ReadUserProgrammParam+0x34>
    29fc:	12 30       	cpi	r17, 0x02	; 2
    29fe:	41 f0       	breq	.+16     	; 0x2a10 <boEEFS_ReadUserProgrammParam+0x3a>
    2a00:	13 30       	cpi	r17, 0x03	; 3
    2a02:	71 f4       	brne	.+28     	; 0x2a20 <boEEFS_ReadUserProgrammParam+0x4a>
    2a04:	6f 81       	ldd	r22, Y+7	; 0x07
    2a06:	78 85       	ldd	r23, Y+8	; 0x08
    2a08:	08 c0       	rjmp	.+16     	; 0x2a1a <boEEFS_ReadUserProgrammParam+0x44>
    2a0a:	69 81       	ldd	r22, Y+1	; 0x01
    2a0c:	7a 81       	ldd	r23, Y+2	; 0x02
    2a0e:	05 c0       	rjmp	.+10     	; 0x2a1a <boEEFS_ReadUserProgrammParam+0x44>
    2a10:	6d 81       	ldd	r22, Y+5	; 0x05
    2a12:	7e 81       	ldd	r23, Y+6	; 0x06
    2a14:	02 c0       	rjmp	.+4      	; 0x2a1a <boEEFS_ReadUserProgrammParam+0x44>
    2a16:	6b 81       	ldd	r22, Y+3	; 0x03
    2a18:	7c 81       	ldd	r23, Y+4	; 0x04
    2a1a:	80 e0       	ldi	r24, 0x00	; 0
    2a1c:	90 e0       	ldi	r25, 0x00	; 0
    2a1e:	03 c0       	rjmp	.+6      	; 0x2a26 <boEEFS_ReadUserProgrammParam+0x50>
    2a20:	60 e0       	ldi	r22, 0x00	; 0
    2a22:	70 e0       	ldi	r23, 0x00	; 0
    2a24:	cb 01       	movw	r24, r22
    2a26:	60 96       	adiw	r28, 0x10	; 16
    2a28:	0f b6       	in	r0, 0x3f	; 63
    2a2a:	f8 94       	cli
    2a2c:	de bf       	out	0x3e, r29	; 62
    2a2e:	0f be       	out	0x3f, r0	; 63
    2a30:	cd bf       	out	0x3d, r28	; 61
    2a32:	df 91       	pop	r29
    2a34:	cf 91       	pop	r28
    2a36:	1f 91       	pop	r17
    2a38:	08 95       	ret

00002a3a <voInitCoffeeCounter>:
    2a3a:	60 e0       	ldi	r22, 0x00	; 0
    2a3c:	70 e0       	ldi	r23, 0x00	; 0
    2a3e:	80 e0       	ldi	r24, 0x00	; 0
    2a40:	92 e0       	ldi	r25, 0x02	; 2
    2a42:	0c 94 0b 22 	jmp	0x4416	; 0x4416 <eeprom_update_word>

00002a46 <voEEFS_Init>:
    2a46:	cf 92       	push	r12
    2a48:	df 92       	push	r13
    2a4a:	ef 92       	push	r14
    2a4c:	ff 92       	push	r15
    2a4e:	0f 93       	push	r16
    2a50:	1f 93       	push	r17
    2a52:	cf 93       	push	r28
    2a54:	df 93       	push	r29
    2a56:	cd b7       	in	r28, 0x3d	; 61
    2a58:	de b7       	in	r29, 0x3e	; 62
    2a5a:	a7 97       	sbiw	r28, 0x27	; 39
    2a5c:	0f b6       	in	r0, 0x3f	; 63
    2a5e:	f8 94       	cli
    2a60:	de bf       	out	0x3e, r29	; 62
    2a62:	0f be       	out	0x3f, r0	; 63
    2a64:	cd bf       	out	0x3d, r28	; 61
    2a66:	06 ef       	ldi	r16, 0xF6	; 246
    2a68:	13 e0       	ldi	r17, 0x03	; 3
    2a6a:	7e 01       	movw	r14, r28
    2a6c:	8b e1       	ldi	r24, 0x1B	; 27
    2a6e:	e8 0e       	add	r14, r24
    2a70:	f1 1c       	adc	r15, r1
    2a72:	67 01       	movw	r12, r14
    2a74:	c8 01       	movw	r24, r16
    2a76:	0e 94 f1 21 	call	0x43e2	; 0x43e2 <eeprom_read_byte>
    2a7a:	f7 01       	movw	r30, r14
    2a7c:	81 93       	st	Z+, r24
    2a7e:	7f 01       	movw	r14, r30
    2a80:	0f 5f       	subi	r16, 0xFF	; 255
    2a82:	1f 4f       	sbci	r17, 0xFF	; 255
    2a84:	01 15       	cp	r16, r1
    2a86:	f4 e0       	ldi	r31, 0x04	; 4
    2a88:	1f 07       	cpc	r17, r31
    2a8a:	a1 f7       	brne	.-24     	; 0x2a74 <voEEFS_Init+0x2e>
    2a8c:	d6 01       	movw	r26, r12
    2a8e:	e8 e6       	ldi	r30, 0x68	; 104
    2a90:	f9 e0       	ldi	r31, 0x09	; 9
    2a92:	9e 01       	movw	r18, r28
    2a94:	20 5e       	subi	r18, 0xE0	; 224
    2a96:	3f 4f       	sbci	r19, 0xFF	; 255
    2a98:	80 e0       	ldi	r24, 0x00	; 0
    2a9a:	9d 91       	ld	r25, X+
    2a9c:	9f a3       	std	Y+39, r25	; 0x27
    2a9e:	14 96       	adiw	r26, 0x04	; 4
    2aa0:	9c 91       	ld	r25, X
    2aa2:	14 97       	sbiw	r26, 0x04	; 4
    2aa4:	90 95       	com	r25
    2aa6:	9e a3       	std	Y+38, r25	; 0x26
    2aa8:	94 91       	lpm	r25, Z
    2aaa:	9d a3       	std	Y+37, r25	; 0x25
    2aac:	4f a1       	ldd	r20, Y+39	; 0x27
    2aae:	9e a1       	ldd	r25, Y+38	; 0x26
    2ab0:	49 13       	cpse	r20, r25
    2ab2:	03 c0       	rjmp	.+6      	; 0x2aba <voEEFS_Init+0x74>
    2ab4:	4d a1       	ldd	r20, Y+37	; 0x25
    2ab6:	9f a1       	ldd	r25, Y+39	; 0x27
    2ab8:	49 13       	cpse	r20, r25
    2aba:	8f 5f       	subi	r24, 0xFF	; 255
    2abc:	31 96       	adiw	r30, 0x01	; 1
    2abe:	2a 17       	cp	r18, r26
    2ac0:	3b 07       	cpc	r19, r27
    2ac2:	59 f7       	brne	.-42     	; 0x2a9a <voEEFS_Init+0x54>
    2ac4:	88 23       	and	r24, r24
    2ac6:	a1 f0       	breq	.+40     	; 0x2af0 <voEEFS_Init+0xaa>
    2ac8:	ce 01       	movw	r24, r28
    2aca:	41 96       	adiw	r24, 0x11	; 17
    2acc:	92 dd       	rcall	.-1244   	; 0x25f2 <voSetDefaultSystemSettingsValues>
    2ace:	ce 01       	movw	r24, r28
    2ad0:	41 96       	adiw	r24, 0x11	; 17
    2ad2:	ff dd       	rcall	.-1026   	; 0x26d2 <voEEFS_WriteSystemSettings>
    2ad4:	ce 01       	movw	r24, r28
    2ad6:	01 96       	adiw	r24, 0x01	; 1
    2ad8:	9e dd       	rcall	.-1220   	; 0x2616 <voSetDefaultUserSettingsValues>
    2ada:	10 e0       	ldi	r17, 0x00	; 0
    2adc:	be 01       	movw	r22, r28
    2ade:	6f 5f       	subi	r22, 0xFF	; 255
    2ae0:	7f 4f       	sbci	r23, 0xFF	; 255
    2ae2:	81 2f       	mov	r24, r17
    2ae4:	59 de       	rcall	.-846    	; 0x2798 <voEEFS_WriteUserProgramm>
    2ae6:	1f 5f       	subi	r17, 0xFF	; 255
    2ae8:	18 30       	cpi	r17, 0x08	; 8
    2aea:	c1 f7       	brne	.-16     	; 0x2adc <voEEFS_Init+0x96>
    2aec:	a6 df       	rcall	.-180    	; 0x2a3a <voInitCoffeeCounter>
    2aee:	b1 dd       	rcall	.-1182   	; 0x2652 <voWriteMagicKey>
    2af0:	a7 96       	adiw	r28, 0x27	; 39
    2af2:	0f b6       	in	r0, 0x3f	; 63
    2af4:	f8 94       	cli
    2af6:	de bf       	out	0x3e, r29	; 62
    2af8:	0f be       	out	0x3f, r0	; 63
    2afa:	cd bf       	out	0x3d, r28	; 61
    2afc:	df 91       	pop	r29
    2afe:	cf 91       	pop	r28
    2b00:	1f 91       	pop	r17
    2b02:	0f 91       	pop	r16
    2b04:	ff 90       	pop	r15
    2b06:	ef 90       	pop	r14
    2b08:	df 90       	pop	r13
    2b0a:	cf 90       	pop	r12
    2b0c:	08 95       	ret

00002b0e <voHMon_Init>:
    2b0e:	e4 e9       	ldi	r30, 0x94	; 148
    2b10:	f2 e0       	ldi	r31, 0x02	; 2
    2b12:	13 82       	std	Z+3, r1	; 0x03
    2b14:	12 82       	std	Z+2, r1	; 0x02
    2b16:	14 82       	std	Z+4, r1	; 0x04
    2b18:	10 82       	st	Z, r1
    2b1a:	11 82       	std	Z+1, r1	; 0x01
    2b1c:	08 95       	ret

00002b1e <voHMon_Task>:
    2b1e:	10 92 97 02 	sts	0x0297, r1	; 0x800297 <tCollectedFaults+0x3>
    2b22:	10 92 96 02 	sts	0x0296, r1	; 0x800296 <tCollectedFaults+0x2>
    2b26:	10 92 98 02 	sts	0x0298, r1	; 0x800298 <tCollectedFaults+0x4>
    2b2a:	10 92 94 02 	sts	0x0294, r1	; 0x800294 <tCollectedFaults>
    2b2e:	10 92 95 02 	sts	0x0295, r1	; 0x800295 <tCollectedFaults+0x1>
    2b32:	54 d2       	rcall	.+1192   	; 0x2fdc <WLM_emGetLevel>
    2b34:	81 30       	cpi	r24, 0x01	; 1
    2b36:	59 f0       	breq	.+22     	; 0x2b4e <voHMon_Task+0x30>
    2b38:	28 f0       	brcs	.+10     	; 0x2b44 <voHMon_Task+0x26>
    2b3a:	82 30       	cpi	r24, 0x02	; 2
    2b3c:	69 f0       	breq	.+26     	; 0x2b58 <voHMon_Task+0x3a>
    2b3e:	83 30       	cpi	r24, 0x03	; 3
    2b40:	59 f0       	breq	.+22     	; 0x2b58 <voHMon_Task+0x3a>
    2b42:	0f c0       	rjmp	.+30     	; 0x2b62 <voHMon_Task+0x44>
    2b44:	10 92 94 02 	sts	0x0294, r1	; 0x800294 <tCollectedFaults>
    2b48:	10 92 95 02 	sts	0x0295, r1	; 0x800295 <tCollectedFaults+0x1>
    2b4c:	0a c0       	rjmp	.+20     	; 0x2b62 <voHMon_Task+0x44>
    2b4e:	80 93 95 02 	sts	0x0295, r24	; 0x800295 <tCollectedFaults+0x1>
    2b52:	10 92 94 02 	sts	0x0294, r1	; 0x800294 <tCollectedFaults>
    2b56:	05 c0       	rjmp	.+10     	; 0x2b62 <voHMon_Task+0x44>
    2b58:	81 e0       	ldi	r24, 0x01	; 1
    2b5a:	80 93 94 02 	sts	0x0294, r24	; 0x800294 <tCollectedFaults>
    2b5e:	80 93 95 02 	sts	0x0295, r24	; 0x800295 <tCollectedFaults+0x1>
    2b62:	0e 94 41 08 	call	0x1082	; 0x1082 <s16BLTMP_GetBoilerTemp>
    2b66:	81 31       	cpi	r24, 0x11	; 17
    2b68:	97 42       	sbci	r25, 0x27	; 39
    2b6a:	24 f0       	brlt	.+8      	; 0x2b74 <voHMon_Task+0x56>
    2b6c:	81 e0       	ldi	r24, 0x01	; 1
    2b6e:	80 93 96 02 	sts	0x0296, r24	; 0x800296 <tCollectedFaults+0x2>
    2b72:	02 c0       	rjmp	.+4      	; 0x2b78 <voHMon_Task+0x5a>
    2b74:	10 92 96 02 	sts	0x0296, r1	; 0x800296 <tCollectedFaults+0x2>
    2b78:	10 92 97 02 	sts	0x0297, r1	; 0x800297 <tCollectedFaults+0x3>
    2b7c:	08 95       	ret

00002b7e <HMon_tGetFaultAndWarning>:
    2b7e:	cf 93       	push	r28
    2b80:	df 93       	push	r29
    2b82:	00 d0       	rcall	.+0      	; 0x2b84 <HMon_tGetFaultAndWarning+0x6>
    2b84:	00 d0       	rcall	.+0      	; 0x2b86 <HMon_tGetFaultAndWarning+0x8>
    2b86:	1f 92       	push	r1
    2b88:	cd b7       	in	r28, 0x3d	; 61
    2b8a:	de b7       	in	r29, 0x3e	; 62
    2b8c:	85 e0       	ldi	r24, 0x05	; 5
    2b8e:	e4 e9       	ldi	r30, 0x94	; 148
    2b90:	f2 e0       	ldi	r31, 0x02	; 2
    2b92:	de 01       	movw	r26, r28
    2b94:	11 96       	adiw	r26, 0x01	; 1
    2b96:	01 90       	ld	r0, Z+
    2b98:	0d 92       	st	X+, r0
    2b9a:	8a 95       	dec	r24
    2b9c:	e1 f7       	brne	.-8      	; 0x2b96 <HMon_tGetFaultAndWarning+0x18>
    2b9e:	29 81       	ldd	r18, Y+1	; 0x01
    2ba0:	3a 81       	ldd	r19, Y+2	; 0x02
    2ba2:	4b 81       	ldd	r20, Y+3	; 0x03
    2ba4:	5c 81       	ldd	r21, Y+4	; 0x04
    2ba6:	6d 81       	ldd	r22, Y+5	; 0x05
    2ba8:	70 e0       	ldi	r23, 0x00	; 0
    2baa:	80 e0       	ldi	r24, 0x00	; 0
    2bac:	90 e0       	ldi	r25, 0x00	; 0
    2bae:	0f 90       	pop	r0
    2bb0:	0f 90       	pop	r0
    2bb2:	0f 90       	pop	r0
    2bb4:	0f 90       	pop	r0
    2bb6:	0f 90       	pop	r0
    2bb8:	df 91       	pop	r29
    2bba:	cf 91       	pop	r28
    2bbc:	08 95       	ret

00002bbe <voHPC_TaskInit>:
    2bbe:	10 92 3d 02 	sts	0x023D, r1	; 0x80023d <u8PowerSourced>
    2bc2:	10 92 3c 02 	sts	0x023C, r1	; 0x80023c <u8PowerLimit>
    2bc6:	10 92 3b 02 	sts	0x023B, r1	; 0x80023b <u8CycleCounter>
    2bca:	81 e0       	ldi	r24, 0x01	; 1
    2bcc:	0c 94 df 05 	jmp	0xbbe	; 0xbbe <voSetHeaterPowerState>

00002bd0 <voHPC_SetPowerOutput>:
    2bd0:	85 36       	cpi	r24, 0x65	; 101
    2bd2:	08 f0       	brcs	.+2      	; 0x2bd6 <voHPC_SetPowerOutput+0x6>
    2bd4:	84 e6       	ldi	r24, 0x64	; 100
    2bd6:	80 93 3c 02 	sts	0x023C, r24	; 0x80023c <u8PowerLimit>
    2bda:	08 95       	ret

00002bdc <LLS_voInitTask>:
    2bdc:	ec e9       	ldi	r30, 0x9C	; 156
    2bde:	f2 e0       	ldi	r31, 0x02	; 2
    2be0:	87 e0       	ldi	r24, 0x07	; 7
    2be2:	80 83       	st	Z, r24
    2be4:	81 83       	std	Z+1, r24	; 0x01
    2be6:	91 e0       	ldi	r25, 0x01	; 1
    2be8:	92 83       	std	Z+2, r25	; 0x02
    2bea:	83 83       	std	Z+3, r24	; 0x03
    2bec:	84 83       	std	Z+4, r24	; 0x04
    2bee:	95 83       	std	Z+5, r25	; 0x05
    2bf0:	86 83       	std	Z+6, r24	; 0x06
    2bf2:	87 83       	std	Z+7, r24	; 0x07
    2bf4:	90 87       	std	Z+8, r25	; 0x08
    2bf6:	10 92 9a 02 	sts	0x029A, r1	; 0x80029a <u8_10Hz_Counter>
    2bfa:	10 92 99 02 	sts	0x0299, r1	; 0x800299 <u8_1Hz_Counter>
    2bfe:	10 92 a5 02 	sts	0x02A5, r1	; 0x8002a5 <u8_2Hz_Counter>
    2c02:	10 92 9b 02 	sts	0x029B, r1	; 0x80029b <u8_5Hz_Counter>
    2c06:	08 95       	ret

00002c08 <LLS_voTask>:
    2c08:	0f 93       	push	r16
    2c0a:	1f 93       	push	r17
    2c0c:	cf 93       	push	r28
    2c0e:	80 91 9a 02 	lds	r24, 0x029A	; 0x80029a <u8_10Hz_Counter>
    2c12:	8f 5f       	subi	r24, 0xFF	; 255
    2c14:	80 93 9a 02 	sts	0x029A, r24	; 0x80029a <u8_10Hz_Counter>
    2c18:	80 91 9b 02 	lds	r24, 0x029B	; 0x80029b <u8_5Hz_Counter>
    2c1c:	8f 5f       	subi	r24, 0xFF	; 255
    2c1e:	80 93 9b 02 	sts	0x029B, r24	; 0x80029b <u8_5Hz_Counter>
    2c22:	80 91 a5 02 	lds	r24, 0x02A5	; 0x8002a5 <u8_2Hz_Counter>
    2c26:	8f 5f       	subi	r24, 0xFF	; 255
    2c28:	80 93 a5 02 	sts	0x02A5, r24	; 0x8002a5 <u8_2Hz_Counter>
    2c2c:	80 91 99 02 	lds	r24, 0x0299	; 0x800299 <u8_1Hz_Counter>
    2c30:	8f 5f       	subi	r24, 0xFF	; 255
    2c32:	80 93 99 02 	sts	0x0299, r24	; 0x800299 <u8_1Hz_Counter>
    2c36:	80 91 9a 02 	lds	r24, 0x029A	; 0x80029a <u8_10Hz_Counter>
    2c3a:	81 11       	cpse	r24, r1
    2c3c:	10 92 9a 02 	sts	0x029A, r1	; 0x80029a <u8_10Hz_Counter>
    2c40:	80 91 9b 02 	lds	r24, 0x029B	; 0x80029b <u8_5Hz_Counter>
    2c44:	82 30       	cpi	r24, 0x02	; 2
    2c46:	10 f0       	brcs	.+4      	; 0x2c4c <LLS_voTask+0x44>
    2c48:	10 92 9b 02 	sts	0x029B, r1	; 0x80029b <u8_5Hz_Counter>
    2c4c:	80 91 a5 02 	lds	r24, 0x02A5	; 0x8002a5 <u8_2Hz_Counter>
    2c50:	85 30       	cpi	r24, 0x05	; 5
    2c52:	10 f0       	brcs	.+4      	; 0x2c58 <LLS_voTask+0x50>
    2c54:	10 92 a5 02 	sts	0x02A5, r1	; 0x8002a5 <u8_2Hz_Counter>
    2c58:	80 91 99 02 	lds	r24, 0x0299	; 0x800299 <u8_1Hz_Counter>
    2c5c:	8a 30       	cpi	r24, 0x0A	; 10
    2c5e:	10 f0       	brcs	.+4      	; 0x2c64 <LLS_voTask+0x5c>
    2c60:	10 92 99 02 	sts	0x0299, r1	; 0x800299 <u8_1Hz_Counter>
    2c64:	0c e9       	ldi	r16, 0x9C	; 156
    2c66:	12 e0       	ldi	r17, 0x02	; 2
    2c68:	c0 e0       	ldi	r28, 0x00	; 0
    2c6a:	f8 01       	movw	r30, r16
    2c6c:	80 81       	ld	r24, Z
    2c6e:	91 81       	ldd	r25, Z+1	; 0x01
    2c70:	89 17       	cp	r24, r25
    2c72:	71 f0       	breq	.+28     	; 0x2c90 <LLS_voTask+0x88>
    2c74:	81 83       	std	Z+1, r24	; 0x01
    2c76:	87 30       	cpi	r24, 0x07	; 7
    2c78:	31 f0       	breq	.+12     	; 0x2c86 <LLS_voTask+0x7e>
    2c7a:	8c 2f       	mov	r24, r28
    2c7c:	0e 94 a6 05 	call	0xb4c	; 0xb4c <emGetLedState>
    2c80:	f8 01       	movw	r30, r16
    2c82:	82 83       	std	Z+2, r24	; 0x02
    2c84:	05 c0       	rjmp	.+10     	; 0x2c90 <LLS_voTask+0x88>
    2c86:	f8 01       	movw	r30, r16
    2c88:	62 81       	ldd	r22, Z+2	; 0x02
    2c8a:	8c 2f       	mov	r24, r28
    2c8c:	0e 94 7c 05 	call	0xaf8	; 0xaf8 <voSetLedState>
    2c90:	f8 01       	movw	r30, r16
    2c92:	80 81       	ld	r24, Z
    2c94:	82 30       	cpi	r24, 0x02	; 2
    2c96:	d1 f0       	breq	.+52     	; 0x2ccc <LLS_voTask+0xc4>
    2c98:	28 f4       	brcc	.+10     	; 0x2ca4 <LLS_voTask+0x9c>
    2c9a:	88 23       	and	r24, r24
    2c9c:	61 f0       	breq	.+24     	; 0x2cb6 <LLS_voTask+0xae>
    2c9e:	81 30       	cpi	r24, 0x01	; 1
    2ca0:	91 f0       	breq	.+36     	; 0x2cc6 <LLS_voTask+0xbe>
    2ca2:	20 c0       	rjmp	.+64     	; 0x2ce4 <LLS_voTask+0xdc>
    2ca4:	88 30       	cpi	r24, 0x08	; 8
    2ca6:	c1 f0       	breq	.+48     	; 0x2cd8 <LLS_voTask+0xd0>
    2ca8:	89 30       	cpi	r24, 0x09	; 9
    2caa:	c1 f0       	breq	.+48     	; 0x2cdc <LLS_voTask+0xd4>
    2cac:	83 30       	cpi	r24, 0x03	; 3
    2cae:	d1 f4       	brne	.+52     	; 0x2ce4 <LLS_voTask+0xdc>
    2cb0:	80 91 99 02 	lds	r24, 0x0299	; 0x800299 <u8_1Hz_Counter>
    2cb4:	0d c0       	rjmp	.+26     	; 0x2cd0 <LLS_voTask+0xc8>
    2cb6:	80 91 9a 02 	lds	r24, 0x029A	; 0x80029a <u8_10Hz_Counter>
    2cba:	81 11       	cpse	r24, r1
    2cbc:	04 c0       	rjmp	.+8      	; 0x2cc6 <LLS_voTask+0xbe>
    2cbe:	62 e0       	ldi	r22, 0x02	; 2
    2cc0:	8c 2f       	mov	r24, r28
    2cc2:	0e 94 7c 05 	call	0xaf8	; 0xaf8 <voSetLedState>
    2cc6:	80 91 9b 02 	lds	r24, 0x029B	; 0x80029b <u8_5Hz_Counter>
    2cca:	02 c0       	rjmp	.+4      	; 0x2cd0 <LLS_voTask+0xc8>
    2ccc:	80 91 a5 02 	lds	r24, 0x02A5	; 0x8002a5 <u8_2Hz_Counter>
    2cd0:	81 11       	cpse	r24, r1
    2cd2:	08 c0       	rjmp	.+16     	; 0x2ce4 <LLS_voTask+0xdc>
    2cd4:	62 e0       	ldi	r22, 0x02	; 2
    2cd6:	03 c0       	rjmp	.+6      	; 0x2cde <LLS_voTask+0xd6>
    2cd8:	61 e0       	ldi	r22, 0x01	; 1
    2cda:	01 c0       	rjmp	.+2      	; 0x2cde <LLS_voTask+0xd6>
    2cdc:	60 e0       	ldi	r22, 0x00	; 0
    2cde:	8c 2f       	mov	r24, r28
    2ce0:	0e 94 7c 05 	call	0xaf8	; 0xaf8 <voSetLedState>
    2ce4:	cf 5f       	subi	r28, 0xFF	; 255
    2ce6:	0d 5f       	subi	r16, 0xFD	; 253
    2ce8:	1f 4f       	sbci	r17, 0xFF	; 255
    2cea:	c3 30       	cpi	r28, 0x03	; 3
    2cec:	09 f0       	breq	.+2      	; 0x2cf0 <LLS_voTask+0xe8>
    2cee:	bd cf       	rjmp	.-134    	; 0x2c6a <LLS_voTask+0x62>
    2cf0:	cf 91       	pop	r28
    2cf2:	1f 91       	pop	r17
    2cf4:	0f 91       	pop	r16
    2cf6:	08 95       	ret

00002cf8 <LLS_voSetLedLightning>:
    2cf8:	81 30       	cpi	r24, 0x01	; 1
    2cfa:	59 f0       	breq	.+22     	; 0x2d12 <LLS_voSetLedLightning+0x1a>
    2cfc:	18 f0       	brcs	.+6      	; 0x2d04 <LLS_voSetLedLightning+0xc>
    2cfe:	82 30       	cpi	r24, 0x02	; 2
    2d00:	79 f0       	breq	.+30     	; 0x2d20 <LLS_voSetLedLightning+0x28>
    2d02:	08 95       	ret
    2d04:	80 91 9c 02 	lds	r24, 0x029C	; 0x80029c <Led_State>
    2d08:	86 17       	cp	r24, r22
    2d0a:	79 f0       	breq	.+30     	; 0x2d2a <LLS_voSetLedLightning+0x32>
    2d0c:	60 93 9c 02 	sts	0x029C, r22	; 0x80029c <Led_State>
    2d10:	08 95       	ret
    2d12:	80 91 9f 02 	lds	r24, 0x029F	; 0x80029f <Led_State+0x3>
    2d16:	68 17       	cp	r22, r24
    2d18:	41 f0       	breq	.+16     	; 0x2d2a <LLS_voSetLedLightning+0x32>
    2d1a:	60 93 9f 02 	sts	0x029F, r22	; 0x80029f <Led_State+0x3>
    2d1e:	08 95       	ret
    2d20:	80 91 a2 02 	lds	r24, 0x02A2	; 0x8002a2 <Led_State+0x6>
    2d24:	68 13       	cpse	r22, r24
    2d26:	60 93 a2 02 	sts	0x02A2, r22	; 0x8002a2 <Led_State+0x6>
    2d2a:	08 95       	ret

00002d2c <voPWRMTR_InitPowermeter>:
    2d2c:	10 92 45 02 	sts	0x0245, r1	; 0x800245 <u16AvgPower+0x1>
    2d30:	10 92 44 02 	sts	0x0244, r1	; 0x800244 <u16AvgPower>
    2d34:	08 95       	ret

00002d36 <voPWRMTR_AddNewMessurment>:
    2d36:	0f 93       	push	r16
    2d38:	1f 93       	push	r17
    2d3a:	20 91 3e 02 	lds	r18, 0x023E	; 0x80023e <u8MessurmentCounter>
    2d3e:	30 91 3f 02 	lds	r19, 0x023F	; 0x80023f <u8MessurmentCounter+0x1>
    2d42:	2f 5f       	subi	r18, 0xFF	; 255
    2d44:	3f 4f       	sbci	r19, 0xFF	; 255
    2d46:	30 93 3f 02 	sts	0x023F, r19	; 0x80023f <u8MessurmentCounter+0x1>
    2d4a:	20 93 3e 02 	sts	0x023E, r18	; 0x80023e <u8MessurmentCounter>
    2d4e:	20 91 3e 02 	lds	r18, 0x023E	; 0x80023e <u8MessurmentCounter>
    2d52:	30 91 3f 02 	lds	r19, 0x023F	; 0x80023f <u8MessurmentCounter+0x1>
    2d56:	21 15       	cp	r18, r1
    2d58:	30 41       	sbci	r19, 0x10	; 16
    2d5a:	f8 f0       	brcs	.+62     	; 0x2d9a <voPWRMTR_AddNewMessurment+0x64>
    2d5c:	40 91 40 02 	lds	r20, 0x0240	; 0x800240 <u32RawValue>
    2d60:	50 91 41 02 	lds	r21, 0x0241	; 0x800241 <u32RawValue+0x1>
    2d64:	60 91 42 02 	lds	r22, 0x0242	; 0x800242 <u32RawValue+0x2>
    2d68:	70 91 43 02 	lds	r23, 0x0243	; 0x800243 <u32RawValue+0x3>
    2d6c:	2c e0       	ldi	r18, 0x0C	; 12
    2d6e:	76 95       	lsr	r23
    2d70:	67 95       	ror	r22
    2d72:	57 95       	ror	r21
    2d74:	47 95       	ror	r20
    2d76:	2a 95       	dec	r18
    2d78:	d1 f7       	brne	.-12     	; 0x2d6e <voPWRMTR_AddNewMessurment+0x38>
    2d7a:	50 93 45 02 	sts	0x0245, r21	; 0x800245 <u16AvgPower+0x1>
    2d7e:	40 93 44 02 	sts	0x0244, r20	; 0x800244 <u16AvgPower>
    2d82:	10 92 3f 02 	sts	0x023F, r1	; 0x80023f <u8MessurmentCounter+0x1>
    2d86:	10 92 3e 02 	sts	0x023E, r1	; 0x80023e <u8MessurmentCounter>
    2d8a:	10 92 40 02 	sts	0x0240, r1	; 0x800240 <u32RawValue>
    2d8e:	10 92 41 02 	sts	0x0241, r1	; 0x800241 <u32RawValue+0x1>
    2d92:	10 92 42 02 	sts	0x0242, r1	; 0x800242 <u32RawValue+0x2>
    2d96:	10 92 43 02 	sts	0x0243, r1	; 0x800243 <u32RawValue+0x3>
    2d9a:	40 91 40 02 	lds	r20, 0x0240	; 0x800240 <u32RawValue>
    2d9e:	50 91 41 02 	lds	r21, 0x0241	; 0x800241 <u32RawValue+0x1>
    2da2:	60 91 42 02 	lds	r22, 0x0242	; 0x800242 <u32RawValue+0x2>
    2da6:	70 91 43 02 	lds	r23, 0x0243	; 0x800243 <u32RawValue+0x3>
    2daa:	97 ff       	sbrs	r25, 7
    2dac:	02 c0       	rjmp	.+4      	; 0x2db2 <voPWRMTR_AddNewMessurment+0x7c>
    2dae:	9f 77       	andi	r25, 0x7F	; 127
    2db0:	06 c0       	rjmp	.+12     	; 0x2dbe <voPWRMTR_AddNewMessurment+0x88>
    2db2:	20 e0       	ldi	r18, 0x00	; 0
    2db4:	30 e8       	ldi	r19, 0x80	; 128
    2db6:	f9 01       	movw	r30, r18
    2db8:	e8 1b       	sub	r30, r24
    2dba:	f9 0b       	sbc	r31, r25
    2dbc:	cf 01       	movw	r24, r30
    2dbe:	8a 01       	movw	r16, r20
    2dc0:	9b 01       	movw	r18, r22
    2dc2:	08 0f       	add	r16, r24
    2dc4:	19 1f       	adc	r17, r25
    2dc6:	21 1d       	adc	r18, r1
    2dc8:	31 1d       	adc	r19, r1
    2dca:	00 93 40 02 	sts	0x0240, r16	; 0x800240 <u32RawValue>
    2dce:	10 93 41 02 	sts	0x0241, r17	; 0x800241 <u32RawValue+0x1>
    2dd2:	20 93 42 02 	sts	0x0242, r18	; 0x800242 <u32RawValue+0x2>
    2dd6:	30 93 43 02 	sts	0x0243, r19	; 0x800243 <u32RawValue+0x3>
    2dda:	1f 91       	pop	r17
    2ddc:	0f 91       	pop	r16
    2dde:	08 95       	ret

00002de0 <u32PWRMTR_GetmAmp>:
    2de0:	80 91 44 02 	lds	r24, 0x0244	; 0x800244 <u16AvgPower>
    2de4:	90 91 45 02 	lds	r25, 0x0245	; 0x800245 <u16AvgPower+0x1>
    2de8:	62 e6       	ldi	r22, 0x62	; 98
    2dea:	72 e0       	ldi	r23, 0x02	; 2
    2dec:	a0 d7       	rcall	.+3904   	; 0x3d2e <__mulhi3>
    2dee:	68 ee       	ldi	r22, 0xE8	; 232
    2df0:	73 e0       	ldi	r23, 0x03	; 3
    2df2:	c7 d7       	rcall	.+3982   	; 0x3d82 <__udivmodhi4>
    2df4:	80 e0       	ldi	r24, 0x00	; 0
    2df6:	90 e0       	ldi	r25, 0x00	; 0
    2df8:	08 95       	ret

00002dfa <voPSE_TaskInit>:
    2dfa:	10 92 48 02 	sts	0x0248, r1	; 0x800248 <u16PumpRuntime+0x1>
    2dfe:	10 92 47 02 	sts	0x0247, r1	; 0x800247 <u16PumpRuntime>
    2e02:	83 e0       	ldi	r24, 0x03	; 3
    2e04:	80 93 46 02 	sts	0x0246, r24	; 0x800246 <emPumpState>
    2e08:	08 95       	ret

00002e0a <voPSE_Task>:
    2e0a:	0e 94 f4 05 	call	0xbe8	; 0xbe8 <emGetPumpPowerState>
    2e0e:	81 30       	cpi	r24, 0x01	; 1
    2e10:	39 f4       	brne	.+14     	; 0x2e20 <voPSE_Task+0x16>
    2e12:	10 92 48 02 	sts	0x0248, r1	; 0x800248 <u16PumpRuntime+0x1>
    2e16:	10 92 47 02 	sts	0x0247, r1	; 0x800247 <u16PumpRuntime>
    2e1a:	80 93 46 02 	sts	0x0246, r24	; 0x800246 <emPumpState>
    2e1e:	08 95       	ret
    2e20:	80 91 47 02 	lds	r24, 0x0247	; 0x800247 <u16PumpRuntime>
    2e24:	90 91 48 02 	lds	r25, 0x0248	; 0x800248 <u16PumpRuntime+0x1>
    2e28:	8f 3f       	cpi	r24, 0xFF	; 255
    2e2a:	2f ef       	ldi	r18, 0xFF	; 255
    2e2c:	92 07       	cpc	r25, r18
    2e2e:	29 f0       	breq	.+10     	; 0x2e3a <voPSE_Task+0x30>
    2e30:	01 96       	adiw	r24, 0x01	; 1
    2e32:	90 93 48 02 	sts	0x0248, r25	; 0x800248 <u16PumpRuntime+0x1>
    2e36:	80 93 47 02 	sts	0x0247, r24	; 0x800247 <u16PumpRuntime>
    2e3a:	08 95       	ret

00002e3c <voSetPumpState>:
    2e3c:	88 23       	and	r24, r24
    2e3e:	31 f0       	breq	.+12     	; 0x2e4c <voSetPumpState+0x10>
    2e40:	81 30       	cpi	r24, 0x01	; 1
    2e42:	31 f4       	brne	.+12     	; 0x2e50 <voSetPumpState+0x14>
    2e44:	10 92 48 02 	sts	0x0248, r1	; 0x800248 <u16PumpRuntime+0x1>
    2e48:	10 92 47 02 	sts	0x0247, r1	; 0x800247 <u16PumpRuntime>
    2e4c:	0c 94 ee 05 	jmp	0xbdc	; 0xbdc <voSetPumpPowerState>
    2e50:	08 95       	ret

00002e52 <u32PSE_GetCurrentRuntimeMS>:
    2e52:	80 91 47 02 	lds	r24, 0x0247	; 0x800247 <u16PumpRuntime>
    2e56:	90 91 48 02 	lds	r25, 0x0248	; 0x800248 <u16PumpRuntime+0x1>
    2e5a:	64 e6       	ldi	r22, 0x64	; 100
    2e5c:	70 e0       	ldi	r23, 0x00	; 0
    2e5e:	67 d7       	rcall	.+3790   	; 0x3d2e <__mulhi3>
    2e60:	bc 01       	movw	r22, r24
    2e62:	80 e0       	ldi	r24, 0x00	; 0
    2e64:	90 e0       	ldi	r25, 0x00	; 0
    2e66:	08 95       	ret

00002e68 <voTMS_InitTask>:
    2e68:	e6 ea       	ldi	r30, 0xA6	; 166
    2e6a:	f2 e0       	ldi	r31, 0x02	; 2
    2e6c:	10 82       	st	Z, r1
    2e6e:	11 82       	std	Z+1, r1	; 0x01
    2e70:	12 82       	std	Z+2, r1	; 0x02
    2e72:	13 82       	std	Z+3, r1	; 0x03
    2e74:	14 82       	std	Z+4, r1	; 0x04
    2e76:	15 82       	std	Z+5, r1	; 0x05
    2e78:	16 82       	std	Z+6, r1	; 0x06
    2e7a:	17 82       	std	Z+7, r1	; 0x07
    2e7c:	10 86       	std	Z+8, r1	; 0x08
    2e7e:	11 86       	std	Z+9, r1	; 0x09
    2e80:	12 86       	std	Z+10, r1	; 0x0a
    2e82:	13 86       	std	Z+11, r1	; 0x0b
    2e84:	08 95       	ret

00002e86 <voTMS_Task>:
    2e86:	80 e0       	ldi	r24, 0x00	; 0
    2e88:	90 e0       	ldi	r25, 0x00	; 0
    2e8a:	fc 01       	movw	r30, r24
    2e8c:	ee 0f       	add	r30, r30
    2e8e:	ff 1f       	adc	r31, r31
    2e90:	ee 0f       	add	r30, r30
    2e92:	ff 1f       	adc	r31, r31
    2e94:	ea 55       	subi	r30, 0x5A	; 90
    2e96:	fd 4f       	sbci	r31, 0xFD	; 253
    2e98:	40 81       	ld	r20, Z
    2e9a:	51 81       	ldd	r21, Z+1	; 0x01
    2e9c:	62 81       	ldd	r22, Z+2	; 0x02
    2e9e:	73 81       	ldd	r23, Z+3	; 0x03
    2ea0:	45 36       	cpi	r20, 0x65	; 101
    2ea2:	51 05       	cpc	r21, r1
    2ea4:	61 05       	cpc	r22, r1
    2ea6:	71 05       	cpc	r23, r1
    2ea8:	68 f0       	brcs	.+26     	; 0x2ec4 <voTMS_Task+0x3e>
    2eaa:	40 81       	ld	r20, Z
    2eac:	51 81       	ldd	r21, Z+1	; 0x01
    2eae:	62 81       	ldd	r22, Z+2	; 0x02
    2eb0:	73 81       	ldd	r23, Z+3	; 0x03
    2eb2:	44 56       	subi	r20, 0x64	; 100
    2eb4:	51 09       	sbc	r21, r1
    2eb6:	61 09       	sbc	r22, r1
    2eb8:	71 09       	sbc	r23, r1
    2eba:	40 83       	st	Z, r20
    2ebc:	51 83       	std	Z+1, r21	; 0x01
    2ebe:	62 83       	std	Z+2, r22	; 0x02
    2ec0:	73 83       	std	Z+3, r23	; 0x03
    2ec2:	04 c0       	rjmp	.+8      	; 0x2ecc <voTMS_Task+0x46>
    2ec4:	10 82       	st	Z, r1
    2ec6:	11 82       	std	Z+1, r1	; 0x01
    2ec8:	12 82       	std	Z+2, r1	; 0x02
    2eca:	13 82       	std	Z+3, r1	; 0x03
    2ecc:	01 96       	adiw	r24, 0x01	; 1
    2ece:	83 30       	cpi	r24, 0x03	; 3
    2ed0:	91 05       	cpc	r25, r1
    2ed2:	d9 f6       	brne	.-74     	; 0x2e8a <voTMS_Task+0x4>
    2ed4:	08 95       	ret

00002ed6 <voSetTimeOut>:
    2ed6:	83 30       	cpi	r24, 0x03	; 3
    2ed8:	60 f4       	brcc	.+24     	; 0x2ef2 <voSetTimeOut+0x1c>
    2eda:	e8 2f       	mov	r30, r24
    2edc:	f0 e0       	ldi	r31, 0x00	; 0
    2ede:	ee 0f       	add	r30, r30
    2ee0:	ff 1f       	adc	r31, r31
    2ee2:	ee 0f       	add	r30, r30
    2ee4:	ff 1f       	adc	r31, r31
    2ee6:	ea 55       	subi	r30, 0x5A	; 90
    2ee8:	fd 4f       	sbci	r31, 0xFD	; 253
    2eea:	40 83       	st	Z, r20
    2eec:	51 83       	std	Z+1, r21	; 0x01
    2eee:	62 83       	std	Z+2, r22	; 0x02
    2ef0:	73 83       	std	Z+3, r23	; 0x03
    2ef2:	08 95       	ret

00002ef4 <u8GetTimeElapsed>:
    2ef4:	83 30       	cpi	r24, 0x03	; 3
    2ef6:	98 f4       	brcc	.+38     	; 0x2f1e <u8GetTimeElapsed+0x2a>
    2ef8:	e8 2f       	mov	r30, r24
    2efa:	f0 e0       	ldi	r31, 0x00	; 0
    2efc:	ee 0f       	add	r30, r30
    2efe:	ff 1f       	adc	r31, r31
    2f00:	ee 0f       	add	r30, r30
    2f02:	ff 1f       	adc	r31, r31
    2f04:	ea 55       	subi	r30, 0x5A	; 90
    2f06:	fd 4f       	sbci	r31, 0xFD	; 253
    2f08:	40 81       	ld	r20, Z
    2f0a:	51 81       	ldd	r21, Z+1	; 0x01
    2f0c:	62 81       	ldd	r22, Z+2	; 0x02
    2f0e:	73 81       	ldd	r23, Z+3	; 0x03
    2f10:	81 e0       	ldi	r24, 0x01	; 1
    2f12:	45 2b       	or	r20, r21
    2f14:	46 2b       	or	r20, r22
    2f16:	47 2b       	or	r20, r23
    2f18:	19 f0       	breq	.+6      	; 0x2f20 <u8GetTimeElapsed+0x2c>
    2f1a:	80 e0       	ldi	r24, 0x00	; 0
    2f1c:	08 95       	ret
    2f1e:	81 e0       	ldi	r24, 0x01	; 1
    2f20:	08 95       	ret

00002f22 <WLM_voTask>:
    2f22:	cf 93       	push	r28
    2f24:	80 e0       	ldi	r24, 0x00	; 0
    2f26:	0e 94 cf 05 	call	0xb9e	; 0xb9e <emGetHallSwitchState>
    2f2a:	c8 2f       	mov	r28, r24
    2f2c:	81 e0       	ldi	r24, 0x01	; 1
    2f2e:	0e 94 cf 05 	call	0xb9e	; 0xb9e <emGetHallSwitchState>
    2f32:	90 91 02 01 	lds	r25, 0x0102	; 0x800102 <emSwitchDebouncedLow>
    2f36:	c9 17       	cp	r28, r25
    2f38:	91 f0       	breq	.+36     	; 0x2f5e <WLM_voTask+0x3c>
    2f3a:	90 91 49 02 	lds	r25, 0x0249	; 0x800249 <u8switch_low_debounce>
    2f3e:	c1 11       	cpse	r28, r1
    2f40:	03 c0       	rjmp	.+6      	; 0x2f48 <WLM_voTask+0x26>
    2f42:	9a 30       	cpi	r25, 0x0A	; 10
    2f44:	48 f4       	brcc	.+18     	; 0x2f58 <WLM_voTask+0x36>
    2f46:	02 c0       	rjmp	.+4      	; 0x2f4c <WLM_voTask+0x2a>
    2f48:	93 30       	cpi	r25, 0x03	; 3
    2f4a:	30 f4       	brcc	.+12     	; 0x2f58 <WLM_voTask+0x36>
    2f4c:	90 91 49 02 	lds	r25, 0x0249	; 0x800249 <u8switch_low_debounce>
    2f50:	9f 5f       	subi	r25, 0xFF	; 255
    2f52:	90 93 49 02 	sts	0x0249, r25	; 0x800249 <u8switch_low_debounce>
    2f56:	05 c0       	rjmp	.+10     	; 0x2f62 <WLM_voTask+0x40>
    2f58:	90 91 02 01 	lds	r25, 0x0102	; 0x800102 <emSwitchDebouncedLow>
    2f5c:	02 c0       	rjmp	.+4      	; 0x2f62 <WLM_voTask+0x40>
    2f5e:	10 92 49 02 	sts	0x0249, r1	; 0x800249 <u8switch_low_debounce>
    2f62:	90 91 01 01 	lds	r25, 0x0101	; 0x800101 <emSwitchDebouncedHigh>
    2f66:	89 17       	cp	r24, r25
    2f68:	89 f0       	breq	.+34     	; 0x2f8c <WLM_voTask+0x6a>
    2f6a:	81 11       	cpse	r24, r1
    2f6c:	05 c0       	rjmp	.+10     	; 0x2f78 <WLM_voTask+0x56>
    2f6e:	80 91 4a 02 	lds	r24, 0x024A	; 0x80024a <u8switch_high_debounce>
    2f72:	8a 30       	cpi	r24, 0x0A	; 10
    2f74:	68 f4       	brcc	.+26     	; 0x2f90 <WLM_voTask+0x6e>
    2f76:	04 c0       	rjmp	.+8      	; 0x2f80 <WLM_voTask+0x5e>
    2f78:	80 91 49 02 	lds	r24, 0x0249	; 0x800249 <u8switch_low_debounce>
    2f7c:	83 30       	cpi	r24, 0x03	; 3
    2f7e:	40 f4       	brcc	.+16     	; 0x2f90 <WLM_voTask+0x6e>
    2f80:	80 91 4a 02 	lds	r24, 0x024A	; 0x80024a <u8switch_high_debounce>
    2f84:	8f 5f       	subi	r24, 0xFF	; 255
    2f86:	80 93 4a 02 	sts	0x024A, r24	; 0x80024a <u8switch_high_debounce>
    2f8a:	02 c0       	rjmp	.+4      	; 0x2f90 <WLM_voTask+0x6e>
    2f8c:	10 92 4a 02 	sts	0x024A, r1	; 0x80024a <u8switch_high_debounce>
    2f90:	80 91 02 01 	lds	r24, 0x0102	; 0x800102 <emSwitchDebouncedLow>
    2f94:	80 93 01 01 	sts	0x0101, r24	; 0x800101 <emSwitchDebouncedHigh>
    2f98:	80 91 01 01 	lds	r24, 0x0101	; 0x800101 <emSwitchDebouncedHigh>
    2f9c:	81 11       	cpse	r24, r1
    2f9e:	07 c0       	rjmp	.+14     	; 0x2fae <WLM_voTask+0x8c>
    2fa0:	80 91 02 01 	lds	r24, 0x0102	; 0x800102 <emSwitchDebouncedLow>
    2fa4:	81 11       	cpse	r24, r1
    2fa6:	03 c0       	rjmp	.+6      	; 0x2fae <WLM_voTask+0x8c>
    2fa8:	10 92 03 01 	sts	0x0103, r1	; 0x800103 <emDetectedWarterLevel>
    2fac:	15 c0       	rjmp	.+42     	; 0x2fd8 <WLM_voTask+0xb6>
    2fae:	80 91 01 01 	lds	r24, 0x0101	; 0x800101 <emSwitchDebouncedHigh>
    2fb2:	81 30       	cpi	r24, 0x01	; 1
    2fb4:	21 f4       	brne	.+8      	; 0x2fbe <WLM_voTask+0x9c>
    2fb6:	90 91 02 01 	lds	r25, 0x0102	; 0x800102 <emSwitchDebouncedLow>
    2fba:	99 23       	and	r25, r25
    2fbc:	59 f0       	breq	.+22     	; 0x2fd4 <WLM_voTask+0xb2>
    2fbe:	80 91 01 01 	lds	r24, 0x0101	; 0x800101 <emSwitchDebouncedHigh>
    2fc2:	81 30       	cpi	r24, 0x01	; 1
    2fc4:	31 f4       	brne	.+12     	; 0x2fd2 <WLM_voTask+0xb0>
    2fc6:	80 91 02 01 	lds	r24, 0x0102	; 0x800102 <emSwitchDebouncedLow>
    2fca:	81 30       	cpi	r24, 0x01	; 1
    2fcc:	11 f4       	brne	.+4      	; 0x2fd2 <WLM_voTask+0xb0>
    2fce:	82 e0       	ldi	r24, 0x02	; 2
    2fd0:	01 c0       	rjmp	.+2      	; 0x2fd4 <WLM_voTask+0xb2>
    2fd2:	83 e0       	ldi	r24, 0x03	; 3
    2fd4:	80 93 03 01 	sts	0x0103, r24	; 0x800103 <emDetectedWarterLevel>
    2fd8:	cf 91       	pop	r28
    2fda:	08 95       	ret

00002fdc <WLM_emGetLevel>:
    2fdc:	80 91 03 01 	lds	r24, 0x0103	; 0x800103 <emDetectedWarterLevel>
    2fe0:	08 95       	ret

00002fe2 <CDC_Device_ConfigureEndpoints>:

void CDC_Device_CreateBlockingStream(USB_ClassInfo_CDC_Device_t* const CDCInterfaceInfo,
                                     FILE* const Stream)
{
	*Stream = (FILE)FDEV_SETUP_STREAM(CDC_Device_putchar, CDC_Device_getchar_Blocking, _FDEV_SETUP_RW);
	fdev_set_udata(Stream, CDCInterfaceInfo);
    2fe2:	cf 93       	push	r28
    2fe4:	df 93       	push	r29
    2fe6:	ec 01       	movw	r28, r24
    2fe8:	fc 01       	movw	r30, r24
    2fea:	70 96       	adiw	r30, 0x10	; 16
    2fec:	8b e0       	ldi	r24, 0x0B	; 11
    2fee:	df 01       	movw	r26, r30
    2ff0:	1d 92       	st	X+, r1
    2ff2:	8a 95       	dec	r24
    2ff4:	e9 f7       	brne	.-6      	; 0x2ff0 <CDC_Device_ConfigureEndpoints+0xe>
    2ff6:	82 e0       	ldi	r24, 0x02	; 2
    2ff8:	8c 83       	std	Y+4, r24	; 0x04
    2ffa:	89 87       	std	Y+9, r24	; 0x09
    2ffc:	83 e0       	ldi	r24, 0x03	; 3
    2ffe:	8e 87       	std	Y+14, r24	; 0x0e
    3000:	61 e0       	ldi	r22, 0x01	; 1
    3002:	ce 01       	movw	r24, r28
    3004:	01 96       	adiw	r24, 0x01	; 1
    3006:	75 d2       	rcall	.+1258   	; 0x34f2 <Endpoint_ConfigureEndpointTable>
    3008:	88 23       	and	r24, r24
    300a:	61 f0       	breq	.+24     	; 0x3024 <CDC_Device_ConfigureEndpoints+0x42>
    300c:	61 e0       	ldi	r22, 0x01	; 1
    300e:	ce 01       	movw	r24, r28
    3010:	06 96       	adiw	r24, 0x06	; 6
    3012:	6f d2       	rcall	.+1246   	; 0x34f2 <Endpoint_ConfigureEndpointTable>
    3014:	88 23       	and	r24, r24
    3016:	31 f0       	breq	.+12     	; 0x3024 <CDC_Device_ConfigureEndpoints+0x42>
    3018:	61 e0       	ldi	r22, 0x01	; 1
    301a:	ce 01       	movw	r24, r28
    301c:	0b 96       	adiw	r24, 0x0b	; 11
    301e:	df 91       	pop	r29
    3020:	cf 91       	pop	r28
    3022:	67 c2       	rjmp	.+1230   	; 0x34f2 <Endpoint_ConfigureEndpointTable>
    3024:	80 e0       	ldi	r24, 0x00	; 0
    3026:	df 91       	pop	r29
    3028:	cf 91       	pop	r28
    302a:	08 95       	ret

0000302c <CDC_Device_SendByte>:
    302c:	0f 93       	push	r16
    302e:	1f 93       	push	r17
    3030:	cf 93       	push	r28
    3032:	20 91 b6 02 	lds	r18, 0x02B6	; 0x8002b6 <USB_DeviceState>
    3036:	24 30       	cpi	r18, 0x04	; 4
    3038:	f9 f4       	brne	.+62     	; 0x3078 <CDC_Device_SendByte+0x4c>
    303a:	fc 01       	movw	r30, r24
    303c:	04 89       	ldd	r16, Z+20	; 0x14
    303e:	15 89       	ldd	r17, Z+21	; 0x15
    3040:	26 89       	ldd	r18, Z+22	; 0x16
    3042:	37 89       	ldd	r19, Z+23	; 0x17
    3044:	01 2b       	or	r16, r17
    3046:	02 2b       	or	r16, r18
    3048:	03 2b       	or	r16, r19
    304a:	b1 f0       	breq	.+44     	; 0x3078 <CDC_Device_SendByte+0x4c>
    304c:	c6 2f       	mov	r28, r22
    304e:	81 81       	ldd	r24, Z+1	; 0x01
    3050:	8f 70       	andi	r24, 0x0F	; 15
    3052:	80 93 e9 00 	sts	0x00E9, r24	; 0x8000e9 <__DATA_REGION_ORIGIN__+0x89>
    3056:	80 91 e8 00 	lds	r24, 0x00E8	; 0x8000e8 <__DATA_REGION_ORIGIN__+0x88>
    305a:	85 ff       	sbrs	r24, 5
    305c:	04 c0       	rjmp	.+8      	; 0x3066 <CDC_Device_SendByte+0x3a>
    305e:	c0 93 f1 00 	sts	0x00F1, r28	; 0x8000f1 <__DATA_REGION_ORIGIN__+0x91>
    3062:	80 e0       	ldi	r24, 0x00	; 0
    3064:	0a c0       	rjmp	.+20     	; 0x307a <CDC_Device_SendByte+0x4e>
    3066:	80 91 e8 00 	lds	r24, 0x00E8	; 0x8000e8 <__DATA_REGION_ORIGIN__+0x88>
    306a:	8e 77       	andi	r24, 0x7E	; 126
    306c:	80 93 e8 00 	sts	0x00E8, r24	; 0x8000e8 <__DATA_REGION_ORIGIN__+0x88>
    3070:	9c d2       	rcall	.+1336   	; 0x35aa <Endpoint_WaitUntilReady>
    3072:	88 23       	and	r24, r24
    3074:	a1 f3       	breq	.-24     	; 0x305e <CDC_Device_SendByte+0x32>
    3076:	01 c0       	rjmp	.+2      	; 0x307a <CDC_Device_SendByte+0x4e>
    3078:	82 e0       	ldi	r24, 0x02	; 2
    307a:	cf 91       	pop	r28
    307c:	1f 91       	pop	r17
    307e:	0f 91       	pop	r16
    3080:	08 95       	ret

00003082 <CDC_Device_putchar>:
    3082:	fb 01       	movw	r30, r22
    3084:	68 2f       	mov	r22, r24
    3086:	84 85       	ldd	r24, Z+12	; 0x0c
    3088:	95 85       	ldd	r25, Z+13	; 0x0d
    308a:	d0 df       	rcall	.-96     	; 0x302c <CDC_Device_SendByte>
    308c:	21 e0       	ldi	r18, 0x01	; 1
    308e:	30 e0       	ldi	r19, 0x00	; 0
    3090:	81 11       	cpse	r24, r1
    3092:	02 c0       	rjmp	.+4      	; 0x3098 <CDC_Device_putchar+0x16>
    3094:	20 e0       	ldi	r18, 0x00	; 0
    3096:	30 e0       	ldi	r19, 0x00	; 0
    3098:	88 27       	eor	r24, r24
    309a:	99 27       	eor	r25, r25
    309c:	82 1b       	sub	r24, r18
    309e:	93 0b       	sbc	r25, r19
    30a0:	08 95       	ret

000030a2 <CDC_Device_Flush>:
    30a2:	20 91 b6 02 	lds	r18, 0x02B6	; 0x8002b6 <USB_DeviceState>
    30a6:	24 30       	cpi	r18, 0x04	; 4
    30a8:	21 f5       	brne	.+72     	; 0x30f2 <CDC_Device_Flush+0x50>
    30aa:	fc 01       	movw	r30, r24
    30ac:	44 89       	ldd	r20, Z+20	; 0x14
    30ae:	55 89       	ldd	r21, Z+21	; 0x15
    30b0:	66 89       	ldd	r22, Z+22	; 0x16
    30b2:	77 89       	ldd	r23, Z+23	; 0x17
    30b4:	45 2b       	or	r20, r21
    30b6:	46 2b       	or	r20, r22
    30b8:	47 2b       	or	r20, r23
    30ba:	d9 f0       	breq	.+54     	; 0x30f2 <CDC_Device_Flush+0x50>
    30bc:	81 81       	ldd	r24, Z+1	; 0x01
    30be:	8f 70       	andi	r24, 0x0F	; 15
    30c0:	80 93 e9 00 	sts	0x00E9, r24	; 0x8000e9 <__DATA_REGION_ORIGIN__+0x89>
    30c4:	80 91 f2 00 	lds	r24, 0x00F2	; 0x8000f2 <__DATA_REGION_ORIGIN__+0x92>
    30c8:	88 23       	and	r24, r24
    30ca:	89 f0       	breq	.+34     	; 0x30ee <CDC_Device_Flush+0x4c>
    30cc:	90 91 e8 00 	lds	r25, 0x00E8	; 0x8000e8 <__DATA_REGION_ORIGIN__+0x88>
    30d0:	80 91 e8 00 	lds	r24, 0x00E8	; 0x8000e8 <__DATA_REGION_ORIGIN__+0x88>
    30d4:	8e 77       	andi	r24, 0x7E	; 126
    30d6:	80 93 e8 00 	sts	0x00E8, r24	; 0x8000e8 <__DATA_REGION_ORIGIN__+0x88>
    30da:	95 fd       	sbrc	r25, 5
    30dc:	08 c0       	rjmp	.+16     	; 0x30ee <CDC_Device_Flush+0x4c>
    30de:	65 d2       	rcall	.+1226   	; 0x35aa <Endpoint_WaitUntilReady>
    30e0:	81 11       	cpse	r24, r1
    30e2:	08 c0       	rjmp	.+16     	; 0x30f4 <CDC_Device_Flush+0x52>
    30e4:	80 91 e8 00 	lds	r24, 0x00E8	; 0x8000e8 <__DATA_REGION_ORIGIN__+0x88>
    30e8:	8e 77       	andi	r24, 0x7E	; 126
    30ea:	80 93 e8 00 	sts	0x00E8, r24	; 0x8000e8 <__DATA_REGION_ORIGIN__+0x88>
    30ee:	80 e0       	ldi	r24, 0x00	; 0
    30f0:	08 95       	ret
    30f2:	82 e0       	ldi	r24, 0x02	; 2
    30f4:	08 95       	ret

000030f6 <CDC_Device_USBTask>:
    30f6:	20 91 b6 02 	lds	r18, 0x02B6	; 0x8002b6 <USB_DeviceState>
    30fa:	24 30       	cpi	r18, 0x04	; 4
    30fc:	89 f4       	brne	.+34     	; 0x3120 <CDC_Device_USBTask+0x2a>
    30fe:	fc 01       	movw	r30, r24
    3100:	44 89       	ldd	r20, Z+20	; 0x14
    3102:	55 89       	ldd	r21, Z+21	; 0x15
    3104:	66 89       	ldd	r22, Z+22	; 0x16
    3106:	77 89       	ldd	r23, Z+23	; 0x17
    3108:	45 2b       	or	r20, r21
    310a:	46 2b       	or	r20, r22
    310c:	47 2b       	or	r20, r23
    310e:	41 f0       	breq	.+16     	; 0x3120 <CDC_Device_USBTask+0x2a>
    3110:	21 81       	ldd	r18, Z+1	; 0x01
    3112:	2f 70       	andi	r18, 0x0F	; 15
    3114:	20 93 e9 00 	sts	0x00E9, r18	; 0x8000e9 <__DATA_REGION_ORIGIN__+0x89>
    3118:	20 91 e8 00 	lds	r18, 0x00E8	; 0x8000e8 <__DATA_REGION_ORIGIN__+0x88>
    311c:	20 fd       	sbrc	r18, 0
    311e:	c1 cf       	rjmp	.-126    	; 0x30a2 <CDC_Device_Flush>
    3120:	08 95       	ret

00003122 <CDC_Device_ReceiveByte>:
    3122:	20 91 b6 02 	lds	r18, 0x02B6	; 0x8002b6 <USB_DeviceState>
    3126:	24 30       	cpi	r18, 0x04	; 4
    3128:	19 f0       	breq	.+6      	; 0x3130 <CDC_Device_ReceiveByte+0xe>
    312a:	8f ef       	ldi	r24, 0xFF	; 255
    312c:	9f ef       	ldi	r25, 0xFF	; 255
    312e:	08 95       	ret
    3130:	fc 01       	movw	r30, r24
    3132:	44 89       	ldd	r20, Z+20	; 0x14
    3134:	55 89       	ldd	r21, Z+21	; 0x15
    3136:	66 89       	ldd	r22, Z+22	; 0x16
    3138:	77 89       	ldd	r23, Z+23	; 0x17
    313a:	45 2b       	or	r20, r21
    313c:	46 2b       	or	r20, r22
    313e:	47 2b       	or	r20, r23
    3140:	a1 f3       	breq	.-24     	; 0x312a <CDC_Device_ReceiveByte+0x8>
    3142:	86 81       	ldd	r24, Z+6	; 0x06
    3144:	8f 70       	andi	r24, 0x0F	; 15
    3146:	80 93 e9 00 	sts	0x00E9, r24	; 0x8000e9 <__DATA_REGION_ORIGIN__+0x89>
    314a:	80 91 e8 00 	lds	r24, 0x00E8	; 0x8000e8 <__DATA_REGION_ORIGIN__+0x88>
    314e:	82 ff       	sbrs	r24, 2
    3150:	ec cf       	rjmp	.-40     	; 0x312a <CDC_Device_ReceiveByte+0x8>
    3152:	80 91 f2 00 	lds	r24, 0x00F2	; 0x8000f2 <__DATA_REGION_ORIGIN__+0x92>
    3156:	88 23       	and	r24, r24
    3158:	21 f0       	breq	.+8      	; 0x3162 <CDC_Device_ReceiveByte+0x40>
    315a:	20 91 f1 00 	lds	r18, 0x00F1	; 0x8000f1 <__DATA_REGION_ORIGIN__+0x91>
    315e:	30 e0       	ldi	r19, 0x00	; 0
    3160:	02 c0       	rjmp	.+4      	; 0x3166 <CDC_Device_ReceiveByte+0x44>
    3162:	2f ef       	ldi	r18, 0xFF	; 255
    3164:	3f ef       	ldi	r19, 0xFF	; 255
    3166:	80 91 f2 00 	lds	r24, 0x00F2	; 0x8000f2 <__DATA_REGION_ORIGIN__+0x92>
    316a:	81 11       	cpse	r24, r1
    316c:	05 c0       	rjmp	.+10     	; 0x3178 <CDC_Device_ReceiveByte+0x56>
    316e:	80 91 e8 00 	lds	r24, 0x00E8	; 0x8000e8 <__DATA_REGION_ORIGIN__+0x88>
    3172:	8b 77       	andi	r24, 0x7B	; 123
    3174:	80 93 e8 00 	sts	0x00E8, r24	; 0x8000e8 <__DATA_REGION_ORIGIN__+0x88>
    3178:	c9 01       	movw	r24, r18
    317a:	08 95       	ret

0000317c <CDC_Device_getchar>:
    317c:	fc 01       	movw	r30, r24
    317e:	84 85       	ldd	r24, Z+12	; 0x0c
    3180:	95 85       	ldd	r25, Z+13	; 0x0d
    3182:	cf df       	rcall	.-98     	; 0x3122 <CDC_Device_ReceiveByte>
    3184:	97 ff       	sbrs	r25, 7
    3186:	02 c0       	rjmp	.+4      	; 0x318c <CDC_Device_getchar+0x10>
    3188:	8e ef       	ldi	r24, 0xFE	; 254
    318a:	9f ef       	ldi	r25, 0xFF	; 255
    318c:	08 95       	ret

0000318e <CDC_Device_CreateStream>:
    318e:	fb 01       	movw	r30, r22
    3190:	2e e0       	ldi	r18, 0x0E	; 14
    3192:	db 01       	movw	r26, r22
    3194:	1d 92       	st	X+, r1
    3196:	2a 95       	dec	r18
    3198:	e9 f7       	brne	.-6      	; 0x3194 <CDC_Device_CreateStream+0x6>
    319a:	23 e0       	ldi	r18, 0x03	; 3
    319c:	23 83       	std	Z+3, r18	; 0x03
    319e:	21 e4       	ldi	r18, 0x41	; 65
    31a0:	38 e1       	ldi	r19, 0x18	; 24
    31a2:	31 87       	std	Z+9, r19	; 0x09
    31a4:	20 87       	std	Z+8, r18	; 0x08
    31a6:	2e eb       	ldi	r18, 0xBE	; 190
    31a8:	38 e1       	ldi	r19, 0x18	; 24
    31aa:	33 87       	std	Z+11, r19	; 0x0b
    31ac:	22 87       	std	Z+10, r18	; 0x0a
    31ae:	95 87       	std	Z+13, r25	; 0x0d
    31b0:	84 87       	std	Z+12, r24	; 0x0c
    31b2:	08 95       	ret

000031b4 <CDC_Device_Event_Stub>:
	return ReceivedByte;
}
#endif

void CDC_Device_Event_Stub(void)
{
    31b4:	08 95       	ret

000031b6 <CDC_Device_ProcessControlRequest>:
#define  __INCLUDE_FROM_CDC_DRIVER
#define  __INCLUDE_FROM_CDC_DEVICE_C
#include "CDCClassDevice.h"

void CDC_Device_ProcessControlRequest(USB_ClassInfo_CDC_Device_t* const CDCInterfaceInfo)
{
    31b6:	cf 93       	push	r28
    31b8:	df 93       	push	r29
    31ba:	ec 01       	movw	r28, r24
			 *  \return Boolean \c true if the selected endpoint has received a SETUP packet, \c false otherwise.
			 */
			static inline bool Endpoint_IsSETUPReceived(void) ATTR_WARN_UNUSED_RESULT ATTR_ALWAYS_INLINE;
			static inline bool Endpoint_IsSETUPReceived(void)
			{
				return ((UEINTX & (1 << RXSTPI)) ? true : false);
    31bc:	80 91 e8 00 	lds	r24, 0x00E8	; 0x8000e8 <__DATA_REGION_ORIGIN__+0x88>
	if (!(Endpoint_IsSETUPReceived()))
    31c0:	83 ff       	sbrs	r24, 3
    31c2:	a6 c0       	rjmp	.+332    	; 0x3310 <CDC_Device_ProcessControlRequest+0x15a>
	  return;

	if (USB_ControlRequest.wIndex != CDCInterfaceInfo->Config.ControlInterfaceNumber)
    31c4:	88 81       	ld	r24, Y
    31c6:	90 e0       	ldi	r25, 0x00	; 0
    31c8:	20 91 bb 02 	lds	r18, 0x02BB	; 0x8002bb <USB_ControlRequest+0x4>
    31cc:	30 91 bc 02 	lds	r19, 0x02BC	; 0x8002bc <USB_ControlRequest+0x5>
    31d0:	28 17       	cp	r18, r24
    31d2:	39 07       	cpc	r19, r25
    31d4:	09 f0       	breq	.+2      	; 0x31d8 <CDC_Device_ProcessControlRequest+0x22>
    31d6:	9c c0       	rjmp	.+312    	; 0x3310 <CDC_Device_ProcessControlRequest+0x15a>
	  return;

	switch (USB_ControlRequest.bRequest)
    31d8:	80 91 b8 02 	lds	r24, 0x02B8	; 0x8002b8 <USB_ControlRequest+0x1>
    31dc:	81 32       	cpi	r24, 0x21	; 33
    31de:	61 f0       	breq	.+24     	; 0x31f8 <CDC_Device_ProcessControlRequest+0x42>
    31e0:	20 f4       	brcc	.+8      	; 0x31ea <CDC_Device_ProcessControlRequest+0x34>
    31e2:	80 32       	cpi	r24, 0x20	; 32
    31e4:	09 f4       	brne	.+2      	; 0x31e8 <CDC_Device_ProcessControlRequest+0x32>
    31e6:	3e c0       	rjmp	.+124    	; 0x3264 <CDC_Device_ProcessControlRequest+0xae>
    31e8:	93 c0       	rjmp	.+294    	; 0x3310 <CDC_Device_ProcessControlRequest+0x15a>
    31ea:	82 32       	cpi	r24, 0x22	; 34
    31ec:	09 f4       	brne	.+2      	; 0x31f0 <CDC_Device_ProcessControlRequest+0x3a>
    31ee:	6c c0       	rjmp	.+216    	; 0x32c8 <CDC_Device_ProcessControlRequest+0x112>
    31f0:	83 32       	cpi	r24, 0x23	; 35
    31f2:	09 f4       	brne	.+2      	; 0x31f6 <CDC_Device_ProcessControlRequest+0x40>
    31f4:	7d c0       	rjmp	.+250    	; 0x32f0 <CDC_Device_ProcessControlRequest+0x13a>
    31f6:	8c c0       	rjmp	.+280    	; 0x3310 <CDC_Device_ProcessControlRequest+0x15a>
	{
		case CDC_REQ_GetLineEncoding:
			if (USB_ControlRequest.bmRequestType == (REQDIR_DEVICETOHOST | REQTYPE_CLASS | REQREC_INTERFACE))
    31f8:	80 91 b7 02 	lds	r24, 0x02B7	; 0x8002b7 <USB_ControlRequest>
    31fc:	81 3a       	cpi	r24, 0xA1	; 161
    31fe:	09 f0       	breq	.+2      	; 0x3202 <CDC_Device_ProcessControlRequest+0x4c>
    3200:	87 c0       	rjmp	.+270    	; 0x3310 <CDC_Device_ProcessControlRequest+0x15a>
			 *  \note This is not applicable for non CONTROL type endpoints.
			 */
			static inline void Endpoint_ClearSETUP(void) ATTR_ALWAYS_INLINE;
			static inline void Endpoint_ClearSETUP(void)
			{
				UEINTX &= ~(1 << RXSTPI);
    3202:	80 91 e8 00 	lds	r24, 0x00E8	; 0x8000e8 <__DATA_REGION_ORIGIN__+0x88>
    3206:	87 7f       	andi	r24, 0xF7	; 247
    3208:	80 93 e8 00 	sts	0x00E8, r24	; 0x8000e8 <__DATA_REGION_ORIGIN__+0x88>
			 *  \return Boolean \c true if the current endpoint is ready for an IN packet, \c false otherwise.
			 */
			static inline bool Endpoint_IsINReady(void) ATTR_WARN_UNUSED_RESULT ATTR_ALWAYS_INLINE;
			static inline bool Endpoint_IsINReady(void)
			{
				return ((UEINTX & (1 << TXINI)) ? true : false);
    320c:	80 91 e8 00 	lds	r24, 0x00E8	; 0x8000e8 <__DATA_REGION_ORIGIN__+0x88>
			{
				Endpoint_ClearSETUP();

				while (!(Endpoint_IsINReady()));
    3210:	80 ff       	sbrs	r24, 0
    3212:	fc cf       	rjmp	.-8      	; 0x320c <CDC_Device_ProcessControlRequest+0x56>

				Endpoint_Write_32_LE(CDCInterfaceInfo->State.LineEncoding.BaudRateBPS);
    3214:	8c 89       	ldd	r24, Y+20	; 0x14
    3216:	9d 89       	ldd	r25, Y+21	; 0x15
    3218:	ae 89       	ldd	r26, Y+22	; 0x16
    321a:	bf 89       	ldd	r27, Y+23	; 0x17
			 *  \param[in] Data  Data to write to the currently selected endpoint's FIFO buffer.
			 */
			static inline void Endpoint_Write_32_LE(const uint32_t Data) ATTR_ALWAYS_INLINE;
			static inline void Endpoint_Write_32_LE(const uint32_t Data)
			{
				UEDATX = (Data &  0xFF);
    321c:	80 93 f1 00 	sts	0x00F1, r24	; 0x8000f1 <__DATA_REGION_ORIGIN__+0x91>
				UEDATX = (Data >> 8);
    3220:	49 2f       	mov	r20, r25
    3222:	5a 2f       	mov	r21, r26
    3224:	6b 2f       	mov	r22, r27
    3226:	77 27       	eor	r23, r23
    3228:	40 93 f1 00 	sts	0x00F1, r20	; 0x8000f1 <__DATA_REGION_ORIGIN__+0x91>
				UEDATX = (Data >> 16);
    322c:	ad 01       	movw	r20, r26
    322e:	66 27       	eor	r22, r22
    3230:	77 27       	eor	r23, r23
    3232:	40 93 f1 00 	sts	0x00F1, r20	; 0x8000f1 <__DATA_REGION_ORIGIN__+0x91>
				UEDATX = (Data >> 24);
    3236:	8b 2f       	mov	r24, r27
    3238:	99 27       	eor	r25, r25
    323a:	aa 27       	eor	r26, r26
    323c:	bb 27       	eor	r27, r27
    323e:	80 93 f1 00 	sts	0x00F1, r24	; 0x8000f1 <__DATA_REGION_ORIGIN__+0x91>
				Endpoint_Write_8(CDCInterfaceInfo->State.LineEncoding.CharFormat);
    3242:	88 8d       	ldd	r24, Y+24	; 0x18
			 *  \param[in] Data  Data to write into the the currently selected endpoint's FIFO buffer.
			 */
			static inline void Endpoint_Write_8(const uint8_t Data) ATTR_ALWAYS_INLINE;
			static inline void Endpoint_Write_8(const uint8_t Data)
			{
				UEDATX = Data;
    3244:	80 93 f1 00 	sts	0x00F1, r24	; 0x8000f1 <__DATA_REGION_ORIGIN__+0x91>
				Endpoint_Write_8(CDCInterfaceInfo->State.LineEncoding.ParityType);
    3248:	89 8d       	ldd	r24, Y+25	; 0x19
    324a:	80 93 f1 00 	sts	0x00F1, r24	; 0x8000f1 <__DATA_REGION_ORIGIN__+0x91>
				Endpoint_Write_8(CDCInterfaceInfo->State.LineEncoding.DataBits);
    324e:	8a 8d       	ldd	r24, Y+26	; 0x1a
    3250:	80 93 f1 00 	sts	0x00F1, r24	; 0x8000f1 <__DATA_REGION_ORIGIN__+0x91>
			 */
			static inline void Endpoint_ClearIN(void) ATTR_ALWAYS_INLINE;
			static inline void Endpoint_ClearIN(void)
			{
				#if !defined(CONTROL_ONLY_DEVICE)
					UEINTX &= ~((1 << TXINI) | (1 << FIFOCON));
    3254:	80 91 e8 00 	lds	r24, 0x00E8	; 0x8000e8 <__DATA_REGION_ORIGIN__+0x88>
    3258:	8e 77       	andi	r24, 0x7E	; 126
    325a:	80 93 e8 00 	sts	0x00E8, r24	; 0x8000e8 <__DATA_REGION_ORIGIN__+0x88>
				EVENT_CDC_Device_BreakSent(CDCInterfaceInfo, (uint8_t)USB_ControlRequest.wValue);
			}

			break;
	}
}
    325e:	df 91       	pop	r29
    3260:	cf 91       	pop	r28
				Endpoint_Write_8(CDCInterfaceInfo->State.LineEncoding.CharFormat);
				Endpoint_Write_8(CDCInterfaceInfo->State.LineEncoding.ParityType);
				Endpoint_Write_8(CDCInterfaceInfo->State.LineEncoding.DataBits);

				Endpoint_ClearIN();
				Endpoint_ClearStatusStage();
    3262:	84 c1       	rjmp	.+776    	; 0x356c <Endpoint_ClearStatusStage>
			}

			break;
		case CDC_REQ_SetLineEncoding:
			if (USB_ControlRequest.bmRequestType == (REQDIR_HOSTTODEVICE | REQTYPE_CLASS | REQREC_INTERFACE))
    3264:	80 91 b7 02 	lds	r24, 0x02B7	; 0x8002b7 <USB_ControlRequest>
    3268:	81 32       	cpi	r24, 0x21	; 33
    326a:	09 f0       	breq	.+2      	; 0x326e <CDC_Device_ProcessControlRequest+0xb8>
    326c:	51 c0       	rjmp	.+162    	; 0x3310 <CDC_Device_ProcessControlRequest+0x15a>
			 *  \note This is not applicable for non CONTROL type endpoints.
			 */
			static inline void Endpoint_ClearSETUP(void) ATTR_ALWAYS_INLINE;
			static inline void Endpoint_ClearSETUP(void)
			{
				UEINTX &= ~(1 << RXSTPI);
    326e:	80 91 e8 00 	lds	r24, 0x00E8	; 0x8000e8 <__DATA_REGION_ORIGIN__+0x88>
    3272:	87 7f       	andi	r24, 0xF7	; 247
    3274:	80 93 e8 00 	sts	0x00E8, r24	; 0x8000e8 <__DATA_REGION_ORIGIN__+0x88>
			 *  \return Boolean \c true if current endpoint is has received an OUT packet, \c false otherwise.
			 */
			static inline bool Endpoint_IsOUTReceived(void) ATTR_WARN_UNUSED_RESULT ATTR_ALWAYS_INLINE;
			static inline bool Endpoint_IsOUTReceived(void)
			{
				return ((UEINTX & (1 << RXOUTI)) ? true : false);
    3278:	80 91 e8 00 	lds	r24, 0x00E8	; 0x8000e8 <__DATA_REGION_ORIGIN__+0x88>
			{
				Endpoint_ClearSETUP();

				while (!(Endpoint_IsOUTReceived()))
    327c:	82 fd       	sbrc	r24, 2
    327e:	05 c0       	rjmp	.+10     	; 0x328a <CDC_Device_ProcessControlRequest+0xd4>
				{
					if (USB_DeviceState == DEVICE_STATE_Unattached)
    3280:	80 91 b6 02 	lds	r24, 0x02B6	; 0x8002b6 <USB_DeviceState>
    3284:	81 11       	cpse	r24, r1
    3286:	f8 cf       	rjmp	.-16     	; 0x3278 <CDC_Device_ProcessControlRequest+0xc2>
    3288:	43 c0       	rjmp	.+134    	; 0x3310 <CDC_Device_ProcessControlRequest+0x15a>
				{
					uint32_t Value;
					uint8_t  Bytes[4];
				} Data;

				Data.Bytes[0] = UEDATX;
    328a:	30 91 f1 00 	lds	r19, 0x00F1	; 0x8000f1 <__DATA_REGION_ORIGIN__+0x91>
				Data.Bytes[1] = UEDATX;
    328e:	20 91 f1 00 	lds	r18, 0x00F1	; 0x8000f1 <__DATA_REGION_ORIGIN__+0x91>
				Data.Bytes[2] = UEDATX;
    3292:	90 91 f1 00 	lds	r25, 0x00F1	; 0x8000f1 <__DATA_REGION_ORIGIN__+0x91>
				Data.Bytes[3] = UEDATX;
    3296:	80 91 f1 00 	lds	r24, 0x00F1	; 0x8000f1 <__DATA_REGION_ORIGIN__+0x91>
					  return;
				}

				CDCInterfaceInfo->State.LineEncoding.BaudRateBPS = Endpoint_Read_32_LE();
    329a:	3c 8b       	std	Y+20, r19	; 0x14
    329c:	2d 8b       	std	Y+21, r18	; 0x15
    329e:	9e 8b       	std	Y+22, r25	; 0x16
    32a0:	8f 8b       	std	Y+23, r24	; 0x17
			 *  \return Next byte in the currently selected endpoint's FIFO buffer.
			 */
			static inline uint8_t Endpoint_Read_8(void) ATTR_WARN_UNUSED_RESULT ATTR_ALWAYS_INLINE;
			static inline uint8_t Endpoint_Read_8(void)
			{
				return UEDATX;
    32a2:	80 91 f1 00 	lds	r24, 0x00F1	; 0x8000f1 <__DATA_REGION_ORIGIN__+0x91>
				CDCInterfaceInfo->State.LineEncoding.CharFormat  = Endpoint_Read_8();
    32a6:	88 8f       	std	Y+24, r24	; 0x18
    32a8:	80 91 f1 00 	lds	r24, 0x00F1	; 0x8000f1 <__DATA_REGION_ORIGIN__+0x91>
				CDCInterfaceInfo->State.LineEncoding.ParityType  = Endpoint_Read_8();
    32ac:	89 8f       	std	Y+25, r24	; 0x19
    32ae:	80 91 f1 00 	lds	r24, 0x00F1	; 0x8000f1 <__DATA_REGION_ORIGIN__+0x91>
				CDCInterfaceInfo->State.LineEncoding.DataBits    = Endpoint_Read_8();
    32b2:	8a 8f       	std	Y+26, r24	; 0x1a
			 */
			static inline void Endpoint_ClearOUT(void) ATTR_ALWAYS_INLINE;
			static inline void Endpoint_ClearOUT(void)
			{
				#if !defined(CONTROL_ONLY_DEVICE)
					UEINTX &= ~((1 << RXOUTI) | (1 << FIFOCON));
    32b4:	80 91 e8 00 	lds	r24, 0x00E8	; 0x8000e8 <__DATA_REGION_ORIGIN__+0x88>
    32b8:	8b 77       	andi	r24, 0x7B	; 123
    32ba:	80 93 e8 00 	sts	0x00E8, r24	; 0x8000e8 <__DATA_REGION_ORIGIN__+0x88>

				Endpoint_ClearOUT();
				Endpoint_ClearStatusStage();
    32be:	56 d1       	rcall	.+684    	; 0x356c <Endpoint_ClearStatusStage>

				EVENT_CDC_Device_LineEncodingChanged(CDCInterfaceInfo);
    32c0:	ce 01       	movw	r24, r28
				EVENT_CDC_Device_BreakSent(CDCInterfaceInfo, (uint8_t)USB_ControlRequest.wValue);
			}

			break;
	}
}
    32c2:	df 91       	pop	r29
				CDCInterfaceInfo->State.LineEncoding.DataBits    = Endpoint_Read_8();

				Endpoint_ClearOUT();
				Endpoint_ClearStatusStage();

				EVENT_CDC_Device_LineEncodingChanged(CDCInterfaceInfo);
    32c4:	cf 91       	pop	r28
    32c6:	76 cf       	rjmp	.-276    	; 0x31b4 <CDC_Device_Event_Stub>
			}

			break;
		case CDC_REQ_SetControlLineState:
			if (USB_ControlRequest.bmRequestType == (REQDIR_HOSTTODEVICE | REQTYPE_CLASS | REQREC_INTERFACE))
    32c8:	80 91 b7 02 	lds	r24, 0x02B7	; 0x8002b7 <USB_ControlRequest>
    32cc:	81 32       	cpi	r24, 0x21	; 33
    32ce:	01 f5       	brne	.+64     	; 0x3310 <CDC_Device_ProcessControlRequest+0x15a>
			 *  \note This is not applicable for non CONTROL type endpoints.
			 */
			static inline void Endpoint_ClearSETUP(void) ATTR_ALWAYS_INLINE;
			static inline void Endpoint_ClearSETUP(void)
			{
				UEINTX &= ~(1 << RXSTPI);
    32d0:	80 91 e8 00 	lds	r24, 0x00E8	; 0x8000e8 <__DATA_REGION_ORIGIN__+0x88>
    32d4:	87 7f       	andi	r24, 0xF7	; 247
    32d6:	80 93 e8 00 	sts	0x00E8, r24	; 0x8000e8 <__DATA_REGION_ORIGIN__+0x88>
			{
				Endpoint_ClearSETUP();
				Endpoint_ClearStatusStage();
    32da:	48 d1       	rcall	.+656    	; 0x356c <Endpoint_ClearStatusStage>

				CDCInterfaceInfo->State.ControlLineStates.HostToDevice = USB_ControlRequest.wValue;
    32dc:	80 91 b9 02 	lds	r24, 0x02B9	; 0x8002b9 <USB_ControlRequest+0x2>
    32e0:	90 91 ba 02 	lds	r25, 0x02BA	; 0x8002ba <USB_ControlRequest+0x3>
    32e4:	99 8b       	std	Y+17, r25	; 0x11

				EVENT_CDC_Device_ControLineStateChanged(CDCInterfaceInfo);
    32e6:	88 8b       	std	Y+16, r24	; 0x10
				EVENT_CDC_Device_BreakSent(CDCInterfaceInfo, (uint8_t)USB_ControlRequest.wValue);
			}

			break;
	}
}
    32e8:	ce 01       	movw	r24, r28
    32ea:	df 91       	pop	r29
				Endpoint_ClearSETUP();
				Endpoint_ClearStatusStage();

				CDCInterfaceInfo->State.ControlLineStates.HostToDevice = USB_ControlRequest.wValue;

				EVENT_CDC_Device_ControLineStateChanged(CDCInterfaceInfo);
    32ec:	cf 91       	pop	r28
    32ee:	1e c5       	rjmp	.+2620   	; 0x3d2c <EVENT_CDC_Device_ControLineStateChanged>
			}

			break;
		case CDC_REQ_SendBreak:
			if (USB_ControlRequest.bmRequestType == (REQDIR_HOSTTODEVICE | REQTYPE_CLASS | REQREC_INTERFACE))
    32f0:	80 91 b7 02 	lds	r24, 0x02B7	; 0x8002b7 <USB_ControlRequest>
    32f4:	81 32       	cpi	r24, 0x21	; 33
    32f6:	61 f4       	brne	.+24     	; 0x3310 <CDC_Device_ProcessControlRequest+0x15a>
    32f8:	80 91 e8 00 	lds	r24, 0x00E8	; 0x8000e8 <__DATA_REGION_ORIGIN__+0x88>
    32fc:	87 7f       	andi	r24, 0xF7	; 247
    32fe:	80 93 e8 00 	sts	0x00E8, r24	; 0x8000e8 <__DATA_REGION_ORIGIN__+0x88>
			{
				Endpoint_ClearSETUP();
				Endpoint_ClearStatusStage();

				EVENT_CDC_Device_BreakSent(CDCInterfaceInfo, (uint8_t)USB_ControlRequest.wValue);
    3302:	34 d1       	rcall	.+616    	; 0x356c <Endpoint_ClearStatusStage>
    3304:	60 91 b9 02 	lds	r22, 0x02B9	; 0x8002b9 <USB_ControlRequest+0x2>
			}

			break;
	}
}
    3308:	ce 01       	movw	r24, r28
    330a:	df 91       	pop	r29
			if (USB_ControlRequest.bmRequestType == (REQDIR_HOSTTODEVICE | REQTYPE_CLASS | REQREC_INTERFACE))
			{
				Endpoint_ClearSETUP();
				Endpoint_ClearStatusStage();

				EVENT_CDC_Device_BreakSent(CDCInterfaceInfo, (uint8_t)USB_ControlRequest.wValue);
    330c:	cf 91       	pop	r28
    330e:	52 cf       	rjmp	.-348    	; 0x31b4 <CDC_Device_Event_Stub>
			}

			break;
	}
}
    3310:	df 91       	pop	r29
    3312:	cf 91       	pop	r28
    3314:	08 95       	ret

00003316 <Endpoint_Write_Control_Stream_LE>:
		else if (USB_DeviceState_LCL == DEVICE_STATE_Suspended)
		  return ENDPOINT_RWCSTREAM_BusSuspended;
	}

	return ENDPOINT_RWCSTREAM_NoError;
}
    3316:	20 91 bd 02 	lds	r18, 0x02BD	; 0x8002bd <USB_ControlRequest+0x6>
    331a:	30 91 be 02 	lds	r19, 0x02BE	; 0x8002be <USB_ControlRequest+0x7>
    331e:	26 17       	cp	r18, r22
    3320:	37 07       	cpc	r19, r23
    3322:	48 f0       	brcs	.+18     	; 0x3336 <Endpoint_Write_Control_Stream_LE+0x20>
    3324:	61 15       	cp	r22, r1
    3326:	71 05       	cpc	r23, r1
    3328:	39 f4       	brne	.+14     	; 0x3338 <Endpoint_Write_Control_Stream_LE+0x22>
    332a:	20 91 e8 00 	lds	r18, 0x00E8	; 0x8000e8 <__DATA_REGION_ORIGIN__+0x88>
    332e:	2e 77       	andi	r18, 0x7E	; 126
    3330:	20 93 e8 00 	sts	0x00E8, r18	; 0x8000e8 <__DATA_REGION_ORIGIN__+0x88>
    3334:	01 c0       	rjmp	.+2      	; 0x3338 <Endpoint_Write_Control_Stream_LE+0x22>
    3336:	b9 01       	movw	r22, r18
    3338:	fc 01       	movw	r30, r24
    333a:	20 e0       	ldi	r18, 0x00	; 0
    333c:	61 15       	cp	r22, r1
    333e:	71 05       	cpc	r23, r1
    3340:	61 f1       	breq	.+88     	; 0x339a <Endpoint_Write_Control_Stream_LE+0x84>
    3342:	80 91 b6 02 	lds	r24, 0x02B6	; 0x8002b6 <USB_DeviceState>
    3346:	88 23       	and	r24, r24
    3348:	d9 f1       	breq	.+118    	; 0x33c0 <Endpoint_Write_Control_Stream_LE+0xaa>
    334a:	85 30       	cpi	r24, 0x05	; 5
    334c:	d9 f1       	breq	.+118    	; 0x33c4 <Endpoint_Write_Control_Stream_LE+0xae>
    334e:	80 91 e8 00 	lds	r24, 0x00E8	; 0x8000e8 <__DATA_REGION_ORIGIN__+0x88>
    3352:	83 fd       	sbrc	r24, 3
    3354:	39 c0       	rjmp	.+114    	; 0x33c8 <Endpoint_Write_Control_Stream_LE+0xb2>
    3356:	80 91 e8 00 	lds	r24, 0x00E8	; 0x8000e8 <__DATA_REGION_ORIGIN__+0x88>
    335a:	82 fd       	sbrc	r24, 2
    335c:	2b c0       	rjmp	.+86     	; 0x33b4 <Endpoint_Write_Control_Stream_LE+0x9e>
    335e:	80 91 e8 00 	lds	r24, 0x00E8	; 0x8000e8 <__DATA_REGION_ORIGIN__+0x88>
    3362:	80 ff       	sbrs	r24, 0
    3364:	eb cf       	rjmp	.-42     	; 0x333c <Endpoint_Write_Control_Stream_LE+0x26>
    3366:	80 91 f2 00 	lds	r24, 0x00F2	; 0x8000f2 <__DATA_REGION_ORIGIN__+0x92>
    336a:	90 e0       	ldi	r25, 0x00	; 0
    336c:	61 15       	cp	r22, r1
    336e:	71 05       	cpc	r23, r1
    3370:	51 f0       	breq	.+20     	; 0x3386 <Endpoint_Write_Control_Stream_LE+0x70>
    3372:	88 30       	cpi	r24, 0x08	; 8
    3374:	91 05       	cpc	r25, r1
    3376:	38 f4       	brcc	.+14     	; 0x3386 <Endpoint_Write_Control_Stream_LE+0x70>
    3378:	21 91       	ld	r18, Z+
    337a:	20 93 f1 00 	sts	0x00F1, r18	; 0x8000f1 <__DATA_REGION_ORIGIN__+0x91>
    337e:	61 50       	subi	r22, 0x01	; 1
    3380:	71 09       	sbc	r23, r1
    3382:	01 96       	adiw	r24, 0x01	; 1
    3384:	f3 cf       	rjmp	.-26     	; 0x336c <Endpoint_Write_Control_Stream_LE+0x56>
    3386:	21 e0       	ldi	r18, 0x01	; 1
    3388:	08 97       	sbiw	r24, 0x08	; 8
    338a:	09 f0       	breq	.+2      	; 0x338e <Endpoint_Write_Control_Stream_LE+0x78>
    338c:	20 e0       	ldi	r18, 0x00	; 0
    338e:	80 91 e8 00 	lds	r24, 0x00E8	; 0x8000e8 <__DATA_REGION_ORIGIN__+0x88>
    3392:	8e 77       	andi	r24, 0x7E	; 126
    3394:	80 93 e8 00 	sts	0x00E8, r24	; 0x8000e8 <__DATA_REGION_ORIGIN__+0x88>
    3398:	d1 cf       	rjmp	.-94     	; 0x333c <Endpoint_Write_Control_Stream_LE+0x26>
    339a:	21 11       	cpse	r18, r1
    339c:	d2 cf       	rjmp	.-92     	; 0x3342 <Endpoint_Write_Control_Stream_LE+0x2c>
    339e:	0a c0       	rjmp	.+20     	; 0x33b4 <Endpoint_Write_Control_Stream_LE+0x9e>
    33a0:	80 91 b6 02 	lds	r24, 0x02B6	; 0x8002b6 <USB_DeviceState>
    33a4:	88 23       	and	r24, r24
    33a6:	61 f0       	breq	.+24     	; 0x33c0 <Endpoint_Write_Control_Stream_LE+0xaa>
    33a8:	85 30       	cpi	r24, 0x05	; 5
    33aa:	61 f0       	breq	.+24     	; 0x33c4 <Endpoint_Write_Control_Stream_LE+0xae>
    33ac:	80 91 e8 00 	lds	r24, 0x00E8	; 0x8000e8 <__DATA_REGION_ORIGIN__+0x88>
    33b0:	83 fd       	sbrc	r24, 3
    33b2:	0a c0       	rjmp	.+20     	; 0x33c8 <Endpoint_Write_Control_Stream_LE+0xb2>
    33b4:	80 91 e8 00 	lds	r24, 0x00E8	; 0x8000e8 <__DATA_REGION_ORIGIN__+0x88>
    33b8:	82 ff       	sbrs	r24, 2
    33ba:	f2 cf       	rjmp	.-28     	; 0x33a0 <Endpoint_Write_Control_Stream_LE+0x8a>
    33bc:	80 e0       	ldi	r24, 0x00	; 0
    33be:	08 95       	ret
    33c0:	82 e0       	ldi	r24, 0x02	; 2
    33c2:	08 95       	ret
    33c4:	83 e0       	ldi	r24, 0x03	; 3
    33c6:	08 95       	ret
    33c8:	81 e0       	ldi	r24, 0x01	; 1
    33ca:	08 95       	ret

000033cc <Endpoint_Write_Control_PStream_LE>:
                            uint16_t Length)
{
	uint8_t* DataStream     = ((uint8_t*)Buffer + TEMPLATE_BUFFER_OFFSET(Length));
	bool     LastPacketFull = false;

	if (Length > USB_ControlRequest.wLength)
    33cc:	20 91 bd 02 	lds	r18, 0x02BD	; 0x8002bd <USB_ControlRequest+0x6>
    33d0:	30 91 be 02 	lds	r19, 0x02BE	; 0x8002be <USB_ControlRequest+0x7>
    33d4:	26 17       	cp	r18, r22
    33d6:	37 07       	cpc	r19, r23
    33d8:	48 f0       	brcs	.+18     	; 0x33ec <Endpoint_Write_Control_PStream_LE+0x20>
	  Length = USB_ControlRequest.wLength;
	else if (!(Length))
    33da:	61 15       	cp	r22, r1
    33dc:	71 05       	cpc	r23, r1
    33de:	39 f4       	brne	.+14     	; 0x33ee <Endpoint_Write_Control_PStream_LE+0x22>
			 */
			static inline void Endpoint_ClearIN(void) ATTR_ALWAYS_INLINE;
			static inline void Endpoint_ClearIN(void)
			{
				#if !defined(CONTROL_ONLY_DEVICE)
					UEINTX &= ~((1 << TXINI) | (1 << FIFOCON));
    33e0:	20 91 e8 00 	lds	r18, 0x00E8	; 0x8000e8 <__DATA_REGION_ORIGIN__+0x88>
    33e4:	2e 77       	andi	r18, 0x7E	; 126
    33e6:	20 93 e8 00 	sts	0x00E8, r18	; 0x8000e8 <__DATA_REGION_ORIGIN__+0x88>
    33ea:	01 c0       	rjmp	.+2      	; 0x33ee <Endpoint_Write_Control_PStream_LE+0x22>
    33ec:	b9 01       	movw	r22, r18
    33ee:	fc 01       	movw	r30, r24
    33f0:	20 e0       	ldi	r18, 0x00	; 0
	  Endpoint_ClearIN();

	while (Length || LastPacketFull)
    33f2:	61 15       	cp	r22, r1
    33f4:	71 05       	cpc	r23, r1
    33f6:	79 f1       	breq	.+94     	; 0x3456 <Endpoint_Write_Control_PStream_LE+0x8a>
	{
		uint8_t USB_DeviceState_LCL = USB_DeviceState;
    33f8:	80 91 b6 02 	lds	r24, 0x02B6	; 0x8002b6 <USB_DeviceState>

		if (USB_DeviceState_LCL == DEVICE_STATE_Unattached)
    33fc:	88 23       	and	r24, r24
    33fe:	09 f4       	brne	.+2      	; 0x3402 <Endpoint_Write_Control_PStream_LE+0x36>
    3400:	3d c0       	rjmp	.+122    	; 0x347c <Endpoint_Write_Control_PStream_LE+0xb0>
		  return ENDPOINT_RWCSTREAM_DeviceDisconnected;
		else if (USB_DeviceState_LCL == DEVICE_STATE_Suspended)
    3402:	85 30       	cpi	r24, 0x05	; 5
    3404:	09 f4       	brne	.+2      	; 0x3408 <Endpoint_Write_Control_PStream_LE+0x3c>
    3406:	3c c0       	rjmp	.+120    	; 0x3480 <Endpoint_Write_Control_PStream_LE+0xb4>
			 *  \return Boolean \c true if the selected endpoint has received a SETUP packet, \c false otherwise.
			 */
			static inline bool Endpoint_IsSETUPReceived(void) ATTR_WARN_UNUSED_RESULT ATTR_ALWAYS_INLINE;
			static inline bool Endpoint_IsSETUPReceived(void)
			{
				return ((UEINTX & (1 << RXSTPI)) ? true : false);
    3408:	80 91 e8 00 	lds	r24, 0x00E8	; 0x8000e8 <__DATA_REGION_ORIGIN__+0x88>
		  return ENDPOINT_RWCSTREAM_BusSuspended;
		else if (Endpoint_IsSETUPReceived())
    340c:	83 fd       	sbrc	r24, 3
    340e:	3a c0       	rjmp	.+116    	; 0x3484 <Endpoint_Write_Control_PStream_LE+0xb8>
			 *  \return Boolean \c true if current endpoint is has received an OUT packet, \c false otherwise.
			 */
			static inline bool Endpoint_IsOUTReceived(void) ATTR_WARN_UNUSED_RESULT ATTR_ALWAYS_INLINE;
			static inline bool Endpoint_IsOUTReceived(void)
			{
				return ((UEINTX & (1 << RXOUTI)) ? true : false);
    3410:	80 91 e8 00 	lds	r24, 0x00E8	; 0x8000e8 <__DATA_REGION_ORIGIN__+0x88>
		  return ENDPOINT_RWCSTREAM_HostAborted;
		else if (Endpoint_IsOUTReceived())
    3414:	82 fd       	sbrc	r24, 2
    3416:	2c c0       	rjmp	.+88     	; 0x3470 <Endpoint_Write_Control_PStream_LE+0xa4>
			 *  \return Boolean \c true if the current endpoint is ready for an IN packet, \c false otherwise.
			 */
			static inline bool Endpoint_IsINReady(void) ATTR_WARN_UNUSED_RESULT ATTR_ALWAYS_INLINE;
			static inline bool Endpoint_IsINReady(void)
			{
				return ((UEINTX & (1 << TXINI)) ? true : false);
    3418:	80 91 e8 00 	lds	r24, 0x00E8	; 0x8000e8 <__DATA_REGION_ORIGIN__+0x88>
		  break;

		if (Endpoint_IsINReady())
    341c:	80 ff       	sbrs	r24, 0
    341e:	e9 cf       	rjmp	.-46     	; 0x33f2 <Endpoint_Write_Control_PStream_LE+0x26>
				#if (defined(USB_SERIES_6_AVR) || defined(USB_SERIES_7_AVR))
					return UEBCX;
				#elif defined(USB_SERIES_4_AVR)
					return (((uint16_t)UEBCHX << 8) | UEBCLX);
				#elif defined(USB_SERIES_2_AVR)
					return UEBCLX;
    3420:	80 91 f2 00 	lds	r24, 0x00F2	; 0x8000f2 <__DATA_REGION_ORIGIN__+0x92>
    3424:	90 e0       	ldi	r25, 0x00	; 0
		{
			uint16_t BytesInEndpoint = Endpoint_BytesInEndpoint();

			while (Length && (BytesInEndpoint < USB_Device_ControlEndpointSize))
    3426:	61 15       	cp	r22, r1
    3428:	71 05       	cpc	r23, r1
    342a:	59 f0       	breq	.+22     	; 0x3442 <Endpoint_Write_Control_PStream_LE+0x76>
    342c:	88 30       	cpi	r24, 0x08	; 8
    342e:	91 05       	cpc	r25, r1
    3430:	40 f4       	brcc	.+16     	; 0x3442 <Endpoint_Write_Control_PStream_LE+0x76>
			{
				TEMPLATE_TRANSFER_BYTE(DataStream);
    3432:	24 91       	lpm	r18, Z
			 *  \param[in] Data  Data to write into the the currently selected endpoint's FIFO buffer.
			 */
			static inline void Endpoint_Write_8(const uint8_t Data) ATTR_ALWAYS_INLINE;
			static inline void Endpoint_Write_8(const uint8_t Data)
			{
				UEDATX = Data;
    3434:	20 93 f1 00 	sts	0x00F1, r18	; 0x8000f1 <__DATA_REGION_ORIGIN__+0x91>
				TEMPLATE_BUFFER_MOVE(DataStream, 1);
    3438:	31 96       	adiw	r30, 0x01	; 1
				Length--;
    343a:	61 50       	subi	r22, 0x01	; 1
    343c:	71 09       	sbc	r23, r1
				BytesInEndpoint++;
    343e:	01 96       	adiw	r24, 0x01	; 1
    3440:	f2 cf       	rjmp	.-28     	; 0x3426 <Endpoint_Write_Control_PStream_LE+0x5a>
			}

			LastPacketFull = (BytesInEndpoint == USB_Device_ControlEndpointSize);
    3442:	21 e0       	ldi	r18, 0x01	; 1
    3444:	08 97       	sbiw	r24, 0x08	; 8
    3446:	09 f0       	breq	.+2      	; 0x344a <Endpoint_Write_Control_PStream_LE+0x7e>
    3448:	20 e0       	ldi	r18, 0x00	; 0
			 */
			static inline void Endpoint_ClearIN(void) ATTR_ALWAYS_INLINE;
			static inline void Endpoint_ClearIN(void)
			{
				#if !defined(CONTROL_ONLY_DEVICE)
					UEINTX &= ~((1 << TXINI) | (1 << FIFOCON));
    344a:	80 91 e8 00 	lds	r24, 0x00E8	; 0x8000e8 <__DATA_REGION_ORIGIN__+0x88>
    344e:	8e 77       	andi	r24, 0x7E	; 126
    3450:	80 93 e8 00 	sts	0x00E8, r24	; 0x8000e8 <__DATA_REGION_ORIGIN__+0x88>
    3454:	ce cf       	rjmp	.-100    	; 0x33f2 <Endpoint_Write_Control_PStream_LE+0x26>
	if (Length > USB_ControlRequest.wLength)
	  Length = USB_ControlRequest.wLength;
	else if (!(Length))
	  Endpoint_ClearIN();

	while (Length || LastPacketFull)
    3456:	21 11       	cpse	r18, r1
    3458:	cf cf       	rjmp	.-98     	; 0x33f8 <Endpoint_Write_Control_PStream_LE+0x2c>
    345a:	0a c0       	rjmp	.+20     	; 0x3470 <Endpoint_Write_Control_PStream_LE+0xa4>
		}
	}

	while (!(Endpoint_IsOUTReceived()))
	{
		uint8_t USB_DeviceState_LCL = USB_DeviceState;
    345c:	80 91 b6 02 	lds	r24, 0x02B6	; 0x8002b6 <USB_DeviceState>

		if (USB_DeviceState_LCL == DEVICE_STATE_Unattached)
    3460:	88 23       	and	r24, r24
    3462:	61 f0       	breq	.+24     	; 0x347c <Endpoint_Write_Control_PStream_LE+0xb0>
		  return ENDPOINT_RWCSTREAM_DeviceDisconnected;
		else if (USB_DeviceState_LCL == DEVICE_STATE_Suspended)
    3464:	85 30       	cpi	r24, 0x05	; 5
    3466:	61 f0       	breq	.+24     	; 0x3480 <Endpoint_Write_Control_PStream_LE+0xb4>
			 *  \return Boolean \c true if the selected endpoint has received a SETUP packet, \c false otherwise.
			 */
			static inline bool Endpoint_IsSETUPReceived(void) ATTR_WARN_UNUSED_RESULT ATTR_ALWAYS_INLINE;
			static inline bool Endpoint_IsSETUPReceived(void)
			{
				return ((UEINTX & (1 << RXSTPI)) ? true : false);
    3468:	80 91 e8 00 	lds	r24, 0x00E8	; 0x8000e8 <__DATA_REGION_ORIGIN__+0x88>
		  return ENDPOINT_RWCSTREAM_BusSuspended;
		else if (Endpoint_IsSETUPReceived())
    346c:	83 fd       	sbrc	r24, 3
    346e:	0a c0       	rjmp	.+20     	; 0x3484 <Endpoint_Write_Control_PStream_LE+0xb8>
			 *  \return Boolean \c true if current endpoint is has received an OUT packet, \c false otherwise.
			 */
			static inline bool Endpoint_IsOUTReceived(void) ATTR_WARN_UNUSED_RESULT ATTR_ALWAYS_INLINE;
			static inline bool Endpoint_IsOUTReceived(void)
			{
				return ((UEINTX & (1 << RXOUTI)) ? true : false);
    3470:	80 91 e8 00 	lds	r24, 0x00E8	; 0x8000e8 <__DATA_REGION_ORIGIN__+0x88>
			LastPacketFull = (BytesInEndpoint == USB_Device_ControlEndpointSize);
			Endpoint_ClearIN();
		}
	}

	while (!(Endpoint_IsOUTReceived()))
    3474:	82 ff       	sbrs	r24, 2
    3476:	f2 cf       	rjmp	.-28     	; 0x345c <Endpoint_Write_Control_PStream_LE+0x90>
		  return ENDPOINT_RWCSTREAM_BusSuspended;
		else if (Endpoint_IsSETUPReceived())
		  return ENDPOINT_RWCSTREAM_HostAborted;
	}

	return ENDPOINT_RWCSTREAM_NoError;
    3478:	80 e0       	ldi	r24, 0x00	; 0
    347a:	08 95       	ret
	while (Length || LastPacketFull)
	{
		uint8_t USB_DeviceState_LCL = USB_DeviceState;

		if (USB_DeviceState_LCL == DEVICE_STATE_Unattached)
		  return ENDPOINT_RWCSTREAM_DeviceDisconnected;
    347c:	82 e0       	ldi	r24, 0x02	; 2
    347e:	08 95       	ret
		else if (USB_DeviceState_LCL == DEVICE_STATE_Suspended)
		  return ENDPOINT_RWCSTREAM_BusSuspended;
    3480:	83 e0       	ldi	r24, 0x03	; 3
    3482:	08 95       	ret
		else if (Endpoint_IsSETUPReceived())
		  return ENDPOINT_RWCSTREAM_HostAborted;
    3484:	81 e0       	ldi	r24, 0x01	; 1
		else if (Endpoint_IsSETUPReceived())
		  return ENDPOINT_RWCSTREAM_HostAborted;
	}

	return ENDPOINT_RWCSTREAM_NoError;
}
    3486:	08 95       	ret

00003488 <Endpoint_ConfigureEndpoint_Prv>:
		UEIENX  = 0;
		UEINTX  = 0;
		UECFG1X = 0;
		Endpoint_DisableEndpoint();
	}
}
    3488:	98 2f       	mov	r25, r24
    348a:	95 30       	cpi	r25, 0x05	; 5
    348c:	68 f5       	brcc	.+90     	; 0x34e8 <Endpoint_ConfigureEndpoint_Prv+0x60>
    348e:	90 93 e9 00 	sts	0x00E9, r25	; 0x8000e9 <__DATA_REGION_ORIGIN__+0x89>
    3492:	98 17       	cp	r25, r24
    3494:	39 f0       	breq	.+14     	; 0x34a4 <Endpoint_ConfigureEndpoint_Prv+0x1c>
    3496:	70 91 ec 00 	lds	r23, 0x00EC	; 0x8000ec <__DATA_REGION_ORIGIN__+0x8c>
    349a:	20 91 ed 00 	lds	r18, 0x00ED	; 0x8000ed <__DATA_REGION_ORIGIN__+0x8d>
    349e:	50 91 f0 00 	lds	r21, 0x00F0	; 0x8000f0 <__DATA_REGION_ORIGIN__+0x90>
    34a2:	03 c0       	rjmp	.+6      	; 0x34aa <Endpoint_ConfigureEndpoint_Prv+0x22>
    34a4:	24 2f       	mov	r18, r20
    34a6:	76 2f       	mov	r23, r22
    34a8:	50 e0       	ldi	r21, 0x00	; 0
    34aa:	21 fd       	sbrc	r18, 1
    34ac:	02 c0       	rjmp	.+4      	; 0x34b2 <Endpoint_ConfigureEndpoint_Prv+0x2a>
    34ae:	9f 5f       	subi	r25, 0xFF	; 255
    34b0:	ec cf       	rjmp	.-40     	; 0x348a <Endpoint_ConfigureEndpoint_Prv+0x2>
    34b2:	30 91 eb 00 	lds	r19, 0x00EB	; 0x8000eb <__DATA_REGION_ORIGIN__+0x8b>
    34b6:	3e 7f       	andi	r19, 0xFE	; 254
    34b8:	30 93 eb 00 	sts	0x00EB, r19	; 0x8000eb <__DATA_REGION_ORIGIN__+0x8b>
    34bc:	30 91 ed 00 	lds	r19, 0x00ED	; 0x8000ed <__DATA_REGION_ORIGIN__+0x8d>
    34c0:	3d 7f       	andi	r19, 0xFD	; 253
    34c2:	30 93 ed 00 	sts	0x00ED, r19	; 0x8000ed <__DATA_REGION_ORIGIN__+0x8d>
    34c6:	30 91 eb 00 	lds	r19, 0x00EB	; 0x8000eb <__DATA_REGION_ORIGIN__+0x8b>
    34ca:	31 60       	ori	r19, 0x01	; 1
    34cc:	30 93 eb 00 	sts	0x00EB, r19	; 0x8000eb <__DATA_REGION_ORIGIN__+0x8b>
    34d0:	70 93 ec 00 	sts	0x00EC, r23	; 0x8000ec <__DATA_REGION_ORIGIN__+0x8c>
    34d4:	20 93 ed 00 	sts	0x00ED, r18	; 0x8000ed <__DATA_REGION_ORIGIN__+0x8d>
    34d8:	50 93 f0 00 	sts	0x00F0, r21	; 0x8000f0 <__DATA_REGION_ORIGIN__+0x90>
    34dc:	20 91 ee 00 	lds	r18, 0x00EE	; 0x8000ee <__DATA_REGION_ORIGIN__+0x8e>
    34e0:	27 fd       	sbrc	r18, 7
    34e2:	e5 cf       	rjmp	.-54     	; 0x34ae <Endpoint_ConfigureEndpoint_Prv+0x26>
    34e4:	80 e0       	ldi	r24, 0x00	; 0
    34e6:	08 95       	ret
    34e8:	8f 70       	andi	r24, 0x0F	; 15
    34ea:	80 93 e9 00 	sts	0x00E9, r24	; 0x8000e9 <__DATA_REGION_ORIGIN__+0x89>
    34ee:	81 e0       	ldi	r24, 0x01	; 1
    34f0:	08 95       	ret

000034f2 <Endpoint_ConfigureEndpointTable>:
    34f2:	0f 93       	push	r16
    34f4:	1f 93       	push	r17
    34f6:	cf 93       	push	r28
    34f8:	df 93       	push	r29
    34fa:	06 2f       	mov	r16, r22
    34fc:	ec 01       	movw	r28, r24
    34fe:	10 e0       	ldi	r17, 0x00	; 0
    3500:	10 17       	cp	r17, r16
    3502:	71 f1       	breq	.+92     	; 0x3560 <Endpoint_ConfigureEndpointTable+0x6e>
    3504:	98 81       	ld	r25, Y
    3506:	91 11       	cpse	r25, r1
    3508:	03 c0       	rjmp	.+6      	; 0x3510 <Endpoint_ConfigureEndpointTable+0x1e>
    350a:	1f 5f       	subi	r17, 0xFF	; 255
    350c:	25 96       	adiw	r28, 0x05	; 5
    350e:	f8 cf       	rjmp	.-16     	; 0x3500 <Endpoint_ConfigureEndpointTable+0xe>
    3510:	2c 81       	ldd	r18, Y+4	; 0x04
    3512:	a9 81       	ldd	r26, Y+1	; 0x01
    3514:	ba 81       	ldd	r27, Y+2	; 0x02
    3516:	6b 81       	ldd	r22, Y+3	; 0x03
    3518:	89 2f       	mov	r24, r25
    351a:	8f 70       	andi	r24, 0x0F	; 15
    351c:	85 30       	cpi	r24, 0x05	; 5
    351e:	10 f0       	brcs	.+4      	; 0x3524 <Endpoint_ConfigureEndpointTable+0x32>
    3520:	80 e0       	ldi	r24, 0x00	; 0
    3522:	1f c0       	rjmp	.+62     	; 0x3562 <Endpoint_ConfigureEndpointTable+0x70>
    3524:	22 30       	cpi	r18, 0x02	; 2
    3526:	10 f4       	brcc	.+4      	; 0x352c <Endpoint_ConfigureEndpointTable+0x3a>
    3528:	42 e0       	ldi	r20, 0x02	; 2
    352a:	01 c0       	rjmp	.+2      	; 0x352e <Endpoint_ConfigureEndpointTable+0x3c>
    352c:	46 e0       	ldi	r20, 0x06	; 6
    352e:	e8 e0       	ldi	r30, 0x08	; 8
    3530:	f0 e0       	ldi	r31, 0x00	; 0
    3532:	20 e0       	ldi	r18, 0x00	; 0
    3534:	ea 17       	cp	r30, r26
    3536:	fb 07       	cpc	r31, r27
    3538:	20 f4       	brcc	.+8      	; 0x3542 <Endpoint_ConfigureEndpointTable+0x50>
    353a:	2f 5f       	subi	r18, 0xFF	; 255
    353c:	ee 0f       	add	r30, r30
    353e:	ff 1f       	adc	r31, r31
    3540:	f9 cf       	rjmp	.-14     	; 0x3534 <Endpoint_ConfigureEndpointTable+0x42>
    3542:	22 95       	swap	r18
    3544:	20 7f       	andi	r18, 0xF0	; 240
    3546:	42 2b       	or	r20, r18
    3548:	62 95       	swap	r22
    354a:	66 0f       	add	r22, r22
    354c:	66 0f       	add	r22, r22
    354e:	60 7c       	andi	r22, 0xC0	; 192
    3550:	99 1f       	adc	r25, r25
    3552:	99 27       	eor	r25, r25
    3554:	99 1f       	adc	r25, r25
    3556:	69 2b       	or	r22, r25
    3558:	97 df       	rcall	.-210    	; 0x3488 <Endpoint_ConfigureEndpoint_Prv>
    355a:	81 11       	cpse	r24, r1
    355c:	d6 cf       	rjmp	.-84     	; 0x350a <Endpoint_ConfigureEndpointTable+0x18>
    355e:	e0 cf       	rjmp	.-64     	; 0x3520 <Endpoint_ConfigureEndpointTable+0x2e>
    3560:	81 e0       	ldi	r24, 0x01	; 1
    3562:	df 91       	pop	r29
    3564:	cf 91       	pop	r28
    3566:	1f 91       	pop	r17
    3568:	0f 91       	pop	r16
    356a:	08 95       	ret

0000356c <Endpoint_ClearStatusStage>:

void Endpoint_ClearStatusStage(void)
{
	if (USB_ControlRequest.bmRequestType & REQDIR_DEVICETOHOST)
    356c:	80 91 b7 02 	lds	r24, 0x02B7	; 0x8002b7 <USB_ControlRequest>
    3570:	87 ff       	sbrs	r24, 7
    3572:	11 c0       	rjmp	.+34     	; 0x3596 <Endpoint_ClearStatusStage+0x2a>
			 *  \return Boolean \c true if current endpoint is has received an OUT packet, \c false otherwise.
			 */
			static inline bool Endpoint_IsOUTReceived(void) ATTR_WARN_UNUSED_RESULT ATTR_ALWAYS_INLINE;
			static inline bool Endpoint_IsOUTReceived(void)
			{
				return ((UEINTX & (1 << RXOUTI)) ? true : false);
    3574:	80 91 e8 00 	lds	r24, 0x00E8	; 0x8000e8 <__DATA_REGION_ORIGIN__+0x88>
	{
		while (!(Endpoint_IsOUTReceived()))
    3578:	82 fd       	sbrc	r24, 2
    357a:	05 c0       	rjmp	.+10     	; 0x3586 <Endpoint_ClearStatusStage+0x1a>
		{
			if (USB_DeviceState == DEVICE_STATE_Unattached)
    357c:	80 91 b6 02 	lds	r24, 0x02B6	; 0x8002b6 <USB_DeviceState>
    3580:	81 11       	cpse	r24, r1
    3582:	f8 cf       	rjmp	.-16     	; 0x3574 <Endpoint_ClearStatusStage+0x8>
    3584:	11 c0       	rjmp	.+34     	; 0x35a8 <Endpoint_ClearStatusStage+0x3c>
			 */
			static inline void Endpoint_ClearOUT(void) ATTR_ALWAYS_INLINE;
			static inline void Endpoint_ClearOUT(void)
			{
				#if !defined(CONTROL_ONLY_DEVICE)
					UEINTX &= ~((1 << RXOUTI) | (1 << FIFOCON));
    3586:	80 91 e8 00 	lds	r24, 0x00E8	; 0x8000e8 <__DATA_REGION_ORIGIN__+0x88>
    358a:	8b 77       	andi	r24, 0x7B	; 123
    358c:	0b c0       	rjmp	.+22     	; 0x35a4 <Endpoint_ClearStatusStage+0x38>
	}
	else
	{
		while (!(Endpoint_IsINReady()))
		{
			if (USB_DeviceState == DEVICE_STATE_Unattached)
    358e:	80 91 b6 02 	lds	r24, 0x02B6	; 0x8002b6 <USB_DeviceState>
    3592:	88 23       	and	r24, r24
    3594:	49 f0       	breq	.+18     	; 0x35a8 <Endpoint_ClearStatusStage+0x3c>
			 *  \return Boolean \c true if the current endpoint is ready for an IN packet, \c false otherwise.
			 */
			static inline bool Endpoint_IsINReady(void) ATTR_WARN_UNUSED_RESULT ATTR_ALWAYS_INLINE;
			static inline bool Endpoint_IsINReady(void)
			{
				return ((UEINTX & (1 << TXINI)) ? true : false);
    3596:	80 91 e8 00 	lds	r24, 0x00E8	; 0x8000e8 <__DATA_REGION_ORIGIN__+0x88>

		Endpoint_ClearOUT();
	}
	else
	{
		while (!(Endpoint_IsINReady()))
    359a:	80 ff       	sbrs	r24, 0
    359c:	f8 cf       	rjmp	.-16     	; 0x358e <Endpoint_ClearStatusStage+0x22>
			 */
			static inline void Endpoint_ClearIN(void) ATTR_ALWAYS_INLINE;
			static inline void Endpoint_ClearIN(void)
			{
				#if !defined(CONTROL_ONLY_DEVICE)
					UEINTX &= ~((1 << TXINI) | (1 << FIFOCON));
    359e:	80 91 e8 00 	lds	r24, 0x00E8	; 0x8000e8 <__DATA_REGION_ORIGIN__+0x88>
    35a2:	8e 77       	andi	r24, 0x7E	; 126
    35a4:	80 93 e8 00 	sts	0x00E8, r24	; 0x8000e8 <__DATA_REGION_ORIGIN__+0x88>
    35a8:	08 95       	ret

000035aa <Endpoint_WaitUntilReady>:
			 *  \return Current USB frame number from the USB controller.
			 */
			static inline uint16_t USB_Device_GetFrameNumber(void) ATTR_ALWAYS_INLINE ATTR_WARN_UNUSED_RESULT;
			static inline uint16_t USB_Device_GetFrameNumber(void)
			{
				return UDFNUM;
    35aa:	20 91 e4 00 	lds	r18, 0x00E4	; 0x8000e4 <__DATA_REGION_ORIGIN__+0x84>
    35ae:	30 91 e5 00 	lds	r19, 0x00E5	; 0x8000e5 <__DATA_REGION_ORIGIN__+0x85>
    35b2:	95 e6       	ldi	r25, 0x65	; 101
			 *  \return The currently selected endpoint's direction, as a \c ENDPOINT_DIR_* mask.
			 */
			static inline uint8_t Endpoint_GetEndpointDirection(void) ATTR_WARN_UNUSED_RESULT ATTR_ALWAYS_INLINE;
			static inline uint8_t Endpoint_GetEndpointDirection(void)
			{
				return (UECFG0X & (1 << EPDIR)) ? ENDPOINT_DIR_IN : ENDPOINT_DIR_OUT;
    35b4:	40 91 ec 00 	lds	r20, 0x00EC	; 0x8000ec <__DATA_REGION_ORIGIN__+0x8c>
    35b8:	84 2f       	mov	r24, r20
    35ba:	81 70       	andi	r24, 0x01	; 1
    35bc:	40 ff       	sbrs	r20, 0
    35be:	23 c0       	rjmp	.+70     	; 0x3606 <Endpoint_WaitUntilReady+0x5c>
			 *  \return Boolean \c true if the current endpoint is ready for an IN packet, \c false otherwise.
			 */
			static inline bool Endpoint_IsINReady(void) ATTR_WARN_UNUSED_RESULT ATTR_ALWAYS_INLINE;
			static inline bool Endpoint_IsINReady(void)
			{
				return ((UEINTX & (1 << TXINI)) ? true : false);
    35c0:	80 91 e8 00 	lds	r24, 0x00E8	; 0x8000e8 <__DATA_REGION_ORIGIN__+0x88>

	for (;;)
	{
		if (Endpoint_GetEndpointDirection() == ENDPOINT_DIR_IN)
		{
			if (Endpoint_IsINReady())
    35c4:	80 fd       	sbrc	r24, 0
    35c6:	1d c0       	rjmp	.+58     	; 0x3602 <Endpoint_WaitUntilReady+0x58>
		{
			if (Endpoint_IsOUTReceived())
			  return ENDPOINT_READYWAIT_NoError;
		}

		uint8_t USB_DeviceState_LCL = USB_DeviceState;
    35c8:	80 91 b6 02 	lds	r24, 0x02B6	; 0x8002b6 <USB_DeviceState>

		if (USB_DeviceState_LCL == DEVICE_STATE_Unattached)
    35cc:	88 23       	and	r24, r24
    35ce:	99 f0       	breq	.+38     	; 0x35f6 <Endpoint_WaitUntilReady+0x4c>
		  return ENDPOINT_READYWAIT_DeviceDisconnected;
		else if (USB_DeviceState_LCL == DEVICE_STATE_Suspended)
    35d0:	85 30       	cpi	r24, 0x05	; 5
    35d2:	99 f0       	breq	.+38     	; 0x35fa <Endpoint_WaitUntilReady+0x50>
			 *  \return Boolean \c true if the currently selected endpoint is stalled, \c false otherwise.
			 */
			static inline bool Endpoint_IsStalled(void) ATTR_WARN_UNUSED_RESULT ATTR_ALWAYS_INLINE;
			static inline bool Endpoint_IsStalled(void)
			{
				return ((UECONX & (1 << STALLRQ)) ? true : false);
    35d4:	80 91 eb 00 	lds	r24, 0x00EB	; 0x8000eb <__DATA_REGION_ORIGIN__+0x8b>
		  return ENDPOINT_READYWAIT_BusSuspended;
		else if (Endpoint_IsStalled())
    35d8:	85 fd       	sbrc	r24, 5
    35da:	11 c0       	rjmp	.+34     	; 0x35fe <Endpoint_WaitUntilReady+0x54>
    35dc:	40 91 e4 00 	lds	r20, 0x00E4	; 0x8000e4 <__DATA_REGION_ORIGIN__+0x84>
    35e0:	50 91 e5 00 	lds	r21, 0x00E5	; 0x8000e5 <__DATA_REGION_ORIGIN__+0x85>
		  return ENDPOINT_READYWAIT_EndpointStalled;

		uint16_t CurrentFrameNumber = USB_Device_GetFrameNumber();

		if (CurrentFrameNumber != PreviousFrameNumber)
    35e4:	24 17       	cp	r18, r20
    35e6:	35 07       	cpc	r19, r21
    35e8:	29 f3       	breq	.-54     	; 0x35b4 <Endpoint_WaitUntilReady+0xa>
    35ea:	91 50       	subi	r25, 0x01	; 1
		{
			PreviousFrameNumber = CurrentFrameNumber;

			if (!(TimeoutMSRem--))
    35ec:	11 f0       	breq	.+4      	; 0x35f2 <Endpoint_WaitUntilReady+0x48>
    35ee:	9a 01       	movw	r18, r20
    35f0:	e1 cf       	rjmp	.-62     	; 0x35b4 <Endpoint_WaitUntilReady+0xa>
			  return ENDPOINT_READYWAIT_Timeout;
    35f2:	84 e0       	ldi	r24, 0x04	; 4
    35f4:	08 95       	ret
		}

		uint8_t USB_DeviceState_LCL = USB_DeviceState;

		if (USB_DeviceState_LCL == DEVICE_STATE_Unattached)
		  return ENDPOINT_READYWAIT_DeviceDisconnected;
    35f6:	82 e0       	ldi	r24, 0x02	; 2
    35f8:	08 95       	ret
		else if (USB_DeviceState_LCL == DEVICE_STATE_Suspended)
		  return ENDPOINT_READYWAIT_BusSuspended;
    35fa:	83 e0       	ldi	r24, 0x03	; 3
    35fc:	08 95       	ret
		else if (Endpoint_IsStalled())
		  return ENDPOINT_READYWAIT_EndpointStalled;
    35fe:	81 e0       	ldi	r24, 0x01	; 1
    3600:	08 95       	ret
	for (;;)
	{
		if (Endpoint_GetEndpointDirection() == ENDPOINT_DIR_IN)
		{
			if (Endpoint_IsINReady())
			  return ENDPOINT_READYWAIT_NoError;
    3602:	80 e0       	ldi	r24, 0x00	; 0
    3604:	08 95       	ret
			 *  \return Boolean \c true if current endpoint is has received an OUT packet, \c false otherwise.
			 */
			static inline bool Endpoint_IsOUTReceived(void) ATTR_WARN_UNUSED_RESULT ATTR_ALWAYS_INLINE;
			static inline bool Endpoint_IsOUTReceived(void)
			{
				return ((UEINTX & (1 << RXOUTI)) ? true : false);
    3606:	40 91 e8 00 	lds	r20, 0x00E8	; 0x8000e8 <__DATA_REGION_ORIGIN__+0x88>
		}
		else
		{
			if (Endpoint_IsOUTReceived())
    360a:	42 ff       	sbrs	r20, 2
    360c:	dd cf       	rjmp	.-70     	; 0x35c8 <Endpoint_WaitUntilReady+0x1e>

			if (!(TimeoutMSRem--))
			  return ENDPOINT_READYWAIT_Timeout;
		}
	}
}
    360e:	08 95       	ret

00003610 <USB_ResetInterface>:
{
	#if defined(USB_CAN_BE_BOTH)
	bool UIDModeSelectEnabled = ((UHWCON & (1 << UIDE)) != 0);
	#endif

	USB_INT_DisableAllInterrupts();
    3610:	41 d0       	rcall	.+130    	; 0x3694 <USB_INT_DisableAllInterrupts>
	USB_INT_ClearAllInterrupts();
    3612:	43 d0       	rcall	.+134    	; 0x369a <USB_INT_ClearAllInterrupts>
    3614:	80 91 d8 00 	lds	r24, 0x00D8	; 0x8000d8 <__DATA_REGION_ORIGIN__+0x78>
			}

			static inline void USB_Controller_Reset(void) ATTR_ALWAYS_INLINE;
			static inline void USB_Controller_Reset(void)
			{
				USBCON &= ~(1 << USBE);
    3618:	8f 77       	andi	r24, 0x7F	; 127
    361a:	80 93 d8 00 	sts	0x00D8, r24	; 0x8000d8 <__DATA_REGION_ORIGIN__+0x78>
    361e:	80 91 d8 00 	lds	r24, 0x00D8	; 0x8000d8 <__DATA_REGION_ORIGIN__+0x78>
				USBCON |=  (1 << USBE);
    3622:	80 68       	ori	r24, 0x80	; 128
    3624:	80 93 d8 00 	sts	0x00D8, r24	; 0x8000d8 <__DATA_REGION_ORIGIN__+0x78>
    3628:	80 91 d8 00 	lds	r24, 0x00D8	; 0x8000d8 <__DATA_REGION_ORIGIN__+0x78>
			}

			static inline void USB_CLK_Unfreeze(void) ATTR_ALWAYS_INLINE;
			static inline void USB_CLK_Unfreeze(void)
			{
				USBCON &= ~(1 << FRZCLK);
    362c:	8f 7d       	andi	r24, 0xDF	; 223
    362e:	80 93 d8 00 	sts	0x00D8, r24	; 0x8000d8 <__DATA_REGION_ORIGIN__+0x78>
    3632:	84 e0       	ldi	r24, 0x04	; 4

		/* Inline Functions: */
			static inline void USB_PLL_On(void) ATTR_ALWAYS_INLINE;
			static inline void USB_PLL_On(void)
			{
				PLLCSR = USB_PLL_PSC;
    3634:	89 bd       	out	0x29, r24	; 41
    3636:	86 e0       	ldi	r24, 0x06	; 6
				PLLCSR = (USB_PLL_PSC | (1 << PLLE));
    3638:	89 bd       	out	0x29, r24	; 41
    363a:	09 b4       	in	r0, 0x29	; 41

		if (!(USB_Options & USB_OPT_MANUAL_PLL))
		{
			#if defined(USB_SERIES_2_AVR)
			USB_PLL_On();
			while (!(USB_PLL_IsReady()));
    363c:	00 fe       	sbrs	r0, 0
    363e:	fd cf       	rjmp	.-6      	; 0x363a <USB_ResetInterface+0x2a>
    3640:	10 92 b6 02 	sts	0x02B6, r1	; 0x8002b6 <USB_DeviceState>
}

#if defined(USB_CAN_BE_DEVICE)
static void USB_Init_Device(void)
{
	USB_DeviceState                 = DEVICE_STATE_Unattached;
    3644:	10 92 b2 02 	sts	0x02B2, r1	; 0x8002b2 <USB_Device_ConfigurationNumber>
	USB_Device_ConfigurationNumber  = 0;
    3648:	10 92 b4 02 	sts	0x02B4, r1	; 0x8002b4 <USB_Device_RemoteWakeupEnabled>

	#if !defined(NO_DEVICE_REMOTE_WAKEUP)
	USB_Device_RemoteWakeupEnabled  = false;
    364c:	10 92 b3 02 	sts	0x02B3, r1	; 0x8002b3 <USB_Device_CurrentlySelfPowered>
	#endif

	#if !defined(NO_DEVICE_SELF_POWER)
	USB_Device_CurrentlySelfPowered = false;
    3650:	42 e0       	ldi	r20, 0x02	; 2
				uint8_t Number = (Address & ENDPOINT_EPNUM_MASK);

				if (Number >= ENDPOINT_TOTAL_ENDPOINTS)
				  return false;

				return Endpoint_ConfigureEndpoint_Prv(Number,
    3652:	60 e0       	ldi	r22, 0x00	; 0
    3654:	80 e0       	ldi	r24, 0x00	; 0
    3656:	18 df       	rcall	.-464    	; 0x3488 <Endpoint_ConfigureEndpoint_Prv>
    3658:	80 91 e1 00 	lds	r24, 0x00E1	; 0x8000e1 <__DATA_REGION_ORIGIN__+0x81>
					#if defined(USB_CAN_BE_DEVICE)
					case USB_INT_WAKEUPI:
						UDINT  &= ~(1 << WAKEUPI);
						break;
					case USB_INT_SUSPI:
						UDINT  &= ~(1 << SUSPI);
    365c:	8e 7f       	andi	r24, 0xFE	; 254
    365e:	80 93 e1 00 	sts	0x00E1, r24	; 0x8000e1 <__DATA_REGION_ORIGIN__+0x81>
    3662:	80 91 e2 00 	lds	r24, 0x00E2	; 0x8000e2 <__DATA_REGION_ORIGIN__+0x82>
					#if defined(USB_CAN_BE_DEVICE)
					case USB_INT_WAKEUPI:
						UDIEN  |= (1 << WAKEUPE);
						break;
					case USB_INT_SUSPI:
						UDIEN  |= (1 << SUSPE);
    3666:	81 60       	ori	r24, 0x01	; 1
    3668:	80 93 e2 00 	sts	0x00E2, r24	; 0x8000e2 <__DATA_REGION_ORIGIN__+0x82>
    366c:	80 91 e2 00 	lds	r24, 0x00E2	; 0x8000e2 <__DATA_REGION_ORIGIN__+0x82>
						break;
					case USB_INT_EORSTI:
						UDIEN  |= (1 << EORSTE);
    3670:	88 60       	ori	r24, 0x08	; 8
    3672:	80 93 e2 00 	sts	0x00E2, r24	; 0x8000e2 <__DATA_REGION_ORIGIN__+0x82>
    3676:	80 91 e0 00 	lds	r24, 0x00E0	; 0x8000e0 <__DATA_REGION_ORIGIN__+0x80>
			 *  register and despite the datasheet making no mention of its requirement in host mode.
			 */
			static inline void USB_Attach(void) ATTR_ALWAYS_INLINE;
			static inline void USB_Attach(void)
			{
				UDCON  &= ~(1 << DETACH);
    367a:	8e 7f       	andi	r24, 0xFE	; 254
    367c:	80 93 e0 00 	sts	0x00E0, r24	; 0x8000e0 <__DATA_REGION_ORIGIN__+0x80>
    3680:	08 95       	ret

00003682 <USB_Init>:
    3682:	e3 e6       	ldi	r30, 0x63	; 99
			static inline void USB_REG_On(void)
			{
			#if defined(USB_SERIES_4_AVR) || defined(USB_SERIES_6_AVR) || defined(USB_SERIES_7_AVR)
				UHWCON |=  (1 << UVREGE);
			#else
				REGCR  &= ~(1 << REGDIS);
    3684:	f0 e0       	ldi	r31, 0x00	; 0
    3686:	80 81       	ld	r24, Z
    3688:	8e 7f       	andi	r24, 0xFE	; 254
    368a:	80 83       	st	Z, r24
		UHWCON &= ~(1 << UIDE);
		USB_CurrentMode = Mode;
	}
	#endif

	USB_IsInitialized = true;
    368c:	81 e0       	ldi	r24, 0x01	; 1
    368e:	80 93 b5 02 	sts	0x02B5, r24	; 0x8002b5 <USB_IsInitialized>

	USB_ResetInterface();
    3692:	be cf       	rjmp	.-132    	; 0x3610 <USB_ResetInterface>

00003694 <USB_INT_DisableAllInterrupts>:
	#if defined(USB_CAN_BE_HOST)
	UHIEN   = 0;
	#endif

	#if defined(USB_CAN_BE_DEVICE)
	UDIEN   = 0;
    3694:	10 92 e2 00 	sts	0x00E2, r1	; 0x8000e2 <__DATA_REGION_ORIGIN__+0x82>
    3698:	08 95       	ret

0000369a <USB_INT_ClearAllInterrupts>:
	#if defined(USB_CAN_BE_HOST)
	UHINT  = 0;
	#endif

	#if defined(USB_CAN_BE_DEVICE)
	UDINT  = 0;
    369a:	10 92 e1 00 	sts	0x00E1, r1	; 0x8000e1 <__DATA_REGION_ORIGIN__+0x81>
    369e:	08 95       	ret

000036a0 <__vector_11>:
	#endif
}

ISR(USB_GEN_vect, ISR_BLOCK)
{
    36a0:	1f 92       	push	r1
    36a2:	0f 92       	push	r0
    36a4:	0f b6       	in	r0, 0x3f	; 63
    36a6:	0f 92       	push	r0
    36a8:	11 24       	eor	r1, r1
    36aa:	2f 93       	push	r18
    36ac:	3f 93       	push	r19
    36ae:	4f 93       	push	r20
    36b0:	5f 93       	push	r21
    36b2:	6f 93       	push	r22
    36b4:	7f 93       	push	r23
    36b6:	8f 93       	push	r24
    36b8:	9f 93       	push	r25
    36ba:	af 93       	push	r26
    36bc:	bf 93       	push	r27
    36be:	ef 93       	push	r30
    36c0:	ff 93       	push	r31
					case USB_INT_SUSPI:
						return (UDINT  & (1 << SUSPI));
					case USB_INT_EORSTI:
						return (UDINT  & (1 << EORSTI));
					case USB_INT_SOFI:
						return (UDINT  & (1 << SOFI));
    36c2:	80 91 e1 00 	lds	r24, 0x00E1	; 0x8000e1 <__DATA_REGION_ORIGIN__+0x81>
	#if defined(USB_CAN_BE_DEVICE)
	#if !defined(NO_SOF_EVENTS)
	if (USB_INT_HasOccurred(USB_INT_SOFI) && USB_INT_IsEnabled(USB_INT_SOFI))
    36c6:	82 ff       	sbrs	r24, 2
    36c8:	0a c0       	rjmp	.+20     	; 0x36de <__vector_11+0x3e>
					case USB_INT_SUSPI:
						return (UDIEN  & (1 << SUSPE));
					case USB_INT_EORSTI:
						return (UDIEN  & (1 << EORSTE));
					case USB_INT_SOFI:
						return (UDIEN  & (1 << SOFE));
    36ca:	80 91 e2 00 	lds	r24, 0x00E2	; 0x8000e2 <__DATA_REGION_ORIGIN__+0x82>
    36ce:	82 ff       	sbrs	r24, 2
    36d0:	06 c0       	rjmp	.+12     	; 0x36de <__vector_11+0x3e>
						break;
					case USB_INT_EORSTI:
						UDINT  &= ~(1 << EORSTI);
						break;
					case USB_INT_SOFI:
						UDINT  &= ~(1 << SOFI);
    36d2:	80 91 e1 00 	lds	r24, 0x00E1	; 0x8000e1 <__DATA_REGION_ORIGIN__+0x81>
    36d6:	8b 7f       	andi	r24, 0xFB	; 251
    36d8:	80 93 e1 00 	sts	0x00E1, r24	; 0x8000e1 <__DATA_REGION_ORIGIN__+0x81>
	{
		USB_INT_Clear(USB_INT_SOFI);

		EVENT_USB_Device_StartOfFrame();
    36dc:	25 d2       	rcall	.+1098   	; 0x3b28 <USB_Event_Stub>
					#endif
					#if defined(USB_CAN_BE_DEVICE)
					case USB_INT_WAKEUPI:
						return (UDINT  & (1 << WAKEUPI));
					case USB_INT_SUSPI:
						return (UDINT  & (1 << SUSPI));
    36de:	80 91 e1 00 	lds	r24, 0x00E1	; 0x8000e1 <__DATA_REGION_ORIGIN__+0x81>
			EVENT_USB_Device_Disconnect();
		}
	}
	#endif

	if (USB_INT_HasOccurred(USB_INT_SUSPI) && USB_INT_IsEnabled(USB_INT_SUSPI))
    36e2:	80 ff       	sbrs	r24, 0
    36e4:	17 c0       	rjmp	.+46     	; 0x3714 <__vector_11+0x74>
					#endif
					#if defined(USB_CAN_BE_DEVICE)
					case USB_INT_WAKEUPI:
						return (UDIEN  & (1 << WAKEUPE));
					case USB_INT_SUSPI:
						return (UDIEN  & (1 << SUSPE));
    36e6:	80 91 e2 00 	lds	r24, 0x00E2	; 0x8000e2 <__DATA_REGION_ORIGIN__+0x82>
    36ea:	80 ff       	sbrs	r24, 0
    36ec:	13 c0       	rjmp	.+38     	; 0x3714 <__vector_11+0x74>
					#if defined(USB_CAN_BE_DEVICE)
					case USB_INT_WAKEUPI:
						UDIEN  &= ~(1 << WAKEUPE);
						break;
					case USB_INT_SUSPI:
						UDIEN  &= ~(1 << SUSPE);
    36ee:	80 91 e2 00 	lds	r24, 0x00E2	; 0x8000e2 <__DATA_REGION_ORIGIN__+0x82>
    36f2:	8e 7f       	andi	r24, 0xFE	; 254
    36f4:	80 93 e2 00 	sts	0x00E2, r24	; 0x8000e2 <__DATA_REGION_ORIGIN__+0x82>
						USBCON |= (1 << IDTE);
						break;
					#endif
					#if defined(USB_CAN_BE_DEVICE)
					case USB_INT_WAKEUPI:
						UDIEN  |= (1 << WAKEUPE);
    36f8:	80 91 e2 00 	lds	r24, 0x00E2	; 0x8000e2 <__DATA_REGION_ORIGIN__+0x82>
    36fc:	80 61       	ori	r24, 0x10	; 16
    36fe:	80 93 e2 00 	sts	0x00E2, r24	; 0x8000e2 <__DATA_REGION_ORIGIN__+0x82>
			#endif

			static inline void USB_CLK_Freeze(void) ATTR_ALWAYS_INLINE;
			static inline void USB_CLK_Freeze(void)
			{
				USBCON |=  (1 << FRZCLK);
    3702:	80 91 d8 00 	lds	r24, 0x00D8	; 0x8000d8 <__DATA_REGION_ORIGIN__+0x78>
    3706:	80 62       	ori	r24, 0x20	; 32
    3708:	80 93 d8 00 	sts	0x00D8, r24	; 0x8000d8 <__DATA_REGION_ORIGIN__+0x78>
			}

			static inline void USB_PLL_Off(void) ATTR_ALWAYS_INLINE;
			static inline void USB_PLL_Off(void)
			{
				PLLCSR = 0;
    370c:	19 bc       	out	0x29, r1	; 41

		if (!(USB_Options & USB_OPT_MANUAL_PLL))
		  USB_PLL_Off();

		#if defined(USB_SERIES_2_AVR) && !defined(NO_LIMITED_CONTROLLER_CONNECT)
		USB_DeviceState = DEVICE_STATE_Unattached;
    370e:	10 92 b6 02 	sts	0x02B6, r1	; 0x8002b6 <USB_DeviceState>
		EVENT_USB_Device_Disconnect();
    3712:	03 d3       	rcall	.+1542   	; 0x3d1a <EVENT_USB_Device_Disconnect>
					case USB_INT_IDTI:
						return (USBINT & (1 << IDTI));
					#endif
					#if defined(USB_CAN_BE_DEVICE)
					case USB_INT_WAKEUPI:
						return (UDINT  & (1 << WAKEUPI));
    3714:	80 91 e1 00 	lds	r24, 0x00E1	; 0x8000e1 <__DATA_REGION_ORIGIN__+0x81>
		USB_DeviceState = DEVICE_STATE_Suspended;
		EVENT_USB_Device_Suspend();
		#endif
	}

	if (USB_INT_HasOccurred(USB_INT_WAKEUPI) && USB_INT_IsEnabled(USB_INT_WAKEUPI))
    3718:	84 ff       	sbrs	r24, 4
    371a:	2f c0       	rjmp	.+94     	; 0x377a <__vector_11+0xda>
					case USB_INT_IDTI:
						return (USBCON & (1 << IDTE));
					#endif
					#if defined(USB_CAN_BE_DEVICE)
					case USB_INT_WAKEUPI:
						return (UDIEN  & (1 << WAKEUPE));
    371c:	80 91 e2 00 	lds	r24, 0x00E2	; 0x8000e2 <__DATA_REGION_ORIGIN__+0x82>
    3720:	84 ff       	sbrs	r24, 4
    3722:	2b c0       	rjmp	.+86     	; 0x377a <__vector_11+0xda>

		/* Inline Functions: */
			static inline void USB_PLL_On(void) ATTR_ALWAYS_INLINE;
			static inline void USB_PLL_On(void)
			{
				PLLCSR = USB_PLL_PSC;
    3724:	84 e0       	ldi	r24, 0x04	; 4
    3726:	89 bd       	out	0x29, r24	; 41
				PLLCSR = (USB_PLL_PSC | (1 << PLLE));
    3728:	86 e0       	ldi	r24, 0x06	; 6
    372a:	89 bd       	out	0x29, r24	; 41
	{
		if (!(USB_Options & USB_OPT_MANUAL_PLL))
		{
			USB_PLL_On();
			while (!(USB_PLL_IsReady()));
    372c:	09 b4       	in	r0, 0x29	; 41
    372e:	00 fe       	sbrs	r0, 0
    3730:	fd cf       	rjmp	.-6      	; 0x372c <__vector_11+0x8c>
			}

			static inline void USB_CLK_Unfreeze(void) ATTR_ALWAYS_INLINE;
			static inline void USB_CLK_Unfreeze(void)
			{
				USBCON &= ~(1 << FRZCLK);
    3732:	80 91 d8 00 	lds	r24, 0x00D8	; 0x8000d8 <__DATA_REGION_ORIGIN__+0x78>
    3736:	8f 7d       	andi	r24, 0xDF	; 223
    3738:	80 93 d8 00 	sts	0x00D8, r24	; 0x8000d8 <__DATA_REGION_ORIGIN__+0x78>
						USBINT &= ~(1 << IDTI);
						break;
					#endif
					#if defined(USB_CAN_BE_DEVICE)
					case USB_INT_WAKEUPI:
						UDINT  &= ~(1 << WAKEUPI);
    373c:	80 91 e1 00 	lds	r24, 0x00E1	; 0x8000e1 <__DATA_REGION_ORIGIN__+0x81>
    3740:	8f 7e       	andi	r24, 0xEF	; 239
    3742:	80 93 e1 00 	sts	0x00E1, r24	; 0x8000e1 <__DATA_REGION_ORIGIN__+0x81>
						USBCON &= ~(1 << IDTE);
						break;
					#endif
					#if defined(USB_CAN_BE_DEVICE)
					case USB_INT_WAKEUPI:
						UDIEN  &= ~(1 << WAKEUPE);
    3746:	80 91 e2 00 	lds	r24, 0x00E2	; 0x8000e2 <__DATA_REGION_ORIGIN__+0x82>
    374a:	8f 7e       	andi	r24, 0xEF	; 239
    374c:	80 93 e2 00 	sts	0x00E2, r24	; 0x8000e2 <__DATA_REGION_ORIGIN__+0x82>
					#if defined(USB_CAN_BE_DEVICE)
					case USB_INT_WAKEUPI:
						UDIEN  |= (1 << WAKEUPE);
						break;
					case USB_INT_SUSPI:
						UDIEN  |= (1 << SUSPE);
    3750:	80 91 e2 00 	lds	r24, 0x00E2	; 0x8000e2 <__DATA_REGION_ORIGIN__+0x82>
    3754:	81 60       	ori	r24, 0x01	; 1
    3756:	80 93 e2 00 	sts	0x00E2, r24	; 0x8000e2 <__DATA_REGION_ORIGIN__+0x82>
		USB_INT_Clear(USB_INT_WAKEUPI);

		USB_INT_Disable(USB_INT_WAKEUPI);
		USB_INT_Enable(USB_INT_SUSPI);

		if (USB_Device_ConfigurationNumber)
    375a:	80 91 b2 02 	lds	r24, 0x02B2	; 0x8002b2 <USB_Device_ConfigurationNumber>
    375e:	88 23       	and	r24, r24
    3760:	11 f0       	breq	.+4      	; 0x3766 <__vector_11+0xc6>
		  USB_DeviceState = DEVICE_STATE_Configured;
    3762:	84 e0       	ldi	r24, 0x04	; 4
    3764:	07 c0       	rjmp	.+14     	; 0x3774 <__vector_11+0xd4>
			}

			static inline bool USB_Device_IsAddressSet(void) ATTR_ALWAYS_INLINE ATTR_WARN_UNUSED_RESULT;
			static inline bool USB_Device_IsAddressSet(void)
			{
				return (UDADDR & (1 << ADDEN));
    3766:	80 91 e3 00 	lds	r24, 0x00E3	; 0x8000e3 <__DATA_REGION_ORIGIN__+0x83>
		else
		  USB_DeviceState = (USB_Device_IsAddressSet()) ? DEVICE_STATE_Addressed : DEVICE_STATE_Powered;
    376a:	87 fd       	sbrc	r24, 7
    376c:	02 c0       	rjmp	.+4      	; 0x3772 <__vector_11+0xd2>
    376e:	81 e0       	ldi	r24, 0x01	; 1
    3770:	01 c0       	rjmp	.+2      	; 0x3774 <__vector_11+0xd4>
    3772:	83 e0       	ldi	r24, 0x03	; 3
    3774:	80 93 b6 02 	sts	0x02B6, r24	; 0x8002b6 <USB_DeviceState>

		#if defined(USB_SERIES_2_AVR) && !defined(NO_LIMITED_CONTROLLER_CONNECT)
		EVENT_USB_Device_Connect();
    3778:	cc d2       	rcall	.+1432   	; 0x3d12 <EVENT_USB_Device_Connect>
					case USB_INT_WAKEUPI:
						return (UDINT  & (1 << WAKEUPI));
					case USB_INT_SUSPI:
						return (UDINT  & (1 << SUSPI));
					case USB_INT_EORSTI:
						return (UDINT  & (1 << EORSTI));
    377a:	80 91 e1 00 	lds	r24, 0x00E1	; 0x8000e1 <__DATA_REGION_ORIGIN__+0x81>
		#else
		EVENT_USB_Device_WakeUp();
		#endif
	}

	if (USB_INT_HasOccurred(USB_INT_EORSTI) && USB_INT_IsEnabled(USB_INT_EORSTI))
    377e:	83 ff       	sbrs	r24, 3
    3780:	27 c0       	rjmp	.+78     	; 0x37d0 <__vector_11+0x130>
					case USB_INT_WAKEUPI:
						return (UDIEN  & (1 << WAKEUPE));
					case USB_INT_SUSPI:
						return (UDIEN  & (1 << SUSPE));
					case USB_INT_EORSTI:
						return (UDIEN  & (1 << EORSTE));
    3782:	80 91 e2 00 	lds	r24, 0x00E2	; 0x8000e2 <__DATA_REGION_ORIGIN__+0x82>
    3786:	83 ff       	sbrs	r24, 3
    3788:	23 c0       	rjmp	.+70     	; 0x37d0 <__vector_11+0x130>
						break;
					case USB_INT_SUSPI:
						UDINT  &= ~(1 << SUSPI);
						break;
					case USB_INT_EORSTI:
						UDINT  &= ~(1 << EORSTI);
    378a:	80 91 e1 00 	lds	r24, 0x00E1	; 0x8000e1 <__DATA_REGION_ORIGIN__+0x81>
    378e:	87 7f       	andi	r24, 0xF7	; 247
    3790:	80 93 e1 00 	sts	0x00E1, r24	; 0x8000e1 <__DATA_REGION_ORIGIN__+0x81>
	{
		USB_INT_Clear(USB_INT_EORSTI);

		USB_DeviceState                = DEVICE_STATE_Default;
    3794:	82 e0       	ldi	r24, 0x02	; 2
    3796:	80 93 b6 02 	sts	0x02B6, r24	; 0x8002b6 <USB_DeviceState>
		USB_Device_ConfigurationNumber = 0;
    379a:	10 92 b2 02 	sts	0x02B2, r1	; 0x8002b2 <USB_Device_ConfigurationNumber>
					#if defined(USB_CAN_BE_DEVICE)
					case USB_INT_WAKEUPI:
						UDINT  &= ~(1 << WAKEUPI);
						break;
					case USB_INT_SUSPI:
						UDINT  &= ~(1 << SUSPI);
    379e:	80 91 e1 00 	lds	r24, 0x00E1	; 0x8000e1 <__DATA_REGION_ORIGIN__+0x81>
    37a2:	8e 7f       	andi	r24, 0xFE	; 254
    37a4:	80 93 e1 00 	sts	0x00E1, r24	; 0x8000e1 <__DATA_REGION_ORIGIN__+0x81>
					#if defined(USB_CAN_BE_DEVICE)
					case USB_INT_WAKEUPI:
						UDIEN  &= ~(1 << WAKEUPE);
						break;
					case USB_INT_SUSPI:
						UDIEN  &= ~(1 << SUSPE);
    37a8:	80 91 e2 00 	lds	r24, 0x00E2	; 0x8000e2 <__DATA_REGION_ORIGIN__+0x82>
    37ac:	8e 7f       	andi	r24, 0xFE	; 254
    37ae:	80 93 e2 00 	sts	0x00E2, r24	; 0x8000e2 <__DATA_REGION_ORIGIN__+0x82>
						USBCON |= (1 << IDTE);
						break;
					#endif
					#if defined(USB_CAN_BE_DEVICE)
					case USB_INT_WAKEUPI:
						UDIEN  |= (1 << WAKEUPE);
    37b2:	80 91 e2 00 	lds	r24, 0x00E2	; 0x8000e2 <__DATA_REGION_ORIGIN__+0x82>
    37b6:	80 61       	ori	r24, 0x10	; 16
    37b8:	80 93 e2 00 	sts	0x00E2, r24	; 0x8000e2 <__DATA_REGION_ORIGIN__+0x82>
				uint8_t Number = (Address & ENDPOINT_EPNUM_MASK);

				if (Number >= ENDPOINT_TOTAL_ENDPOINTS)
				  return false;

				return Endpoint_ConfigureEndpoint_Prv(Number,
    37bc:	42 e0       	ldi	r20, 0x02	; 2
    37be:	60 e0       	ldi	r22, 0x00	; 0
    37c0:	80 e0       	ldi	r24, 0x00	; 0
    37c2:	62 de       	rcall	.-828    	; 0x3488 <Endpoint_ConfigureEndpoint_Prv>
						break;
					case USB_INT_SOFI:
						UDIEN  |= (1 << SOFE);
						break;
					case USB_INT_RXSTPI:
						UEIENX |= (1 << RXSTPE);
    37c4:	80 91 f0 00 	lds	r24, 0x00F0	; 0x8000f0 <__DATA_REGION_ORIGIN__+0x90>
    37c8:	88 60       	ori	r24, 0x08	; 8
    37ca:	80 93 f0 00 	sts	0x00F0, r24	; 0x8000f0 <__DATA_REGION_ORIGIN__+0x90>

		#if defined(INTERRUPT_CONTROL_ENDPOINT)
		USB_INT_Enable(USB_INT_RXSTPI);
		#endif

		EVENT_USB_Device_Reset();
    37ce:	ac d1       	rcall	.+856    	; 0x3b28 <USB_Event_Stub>
		USB_ResetInterface();

		EVENT_USB_UIDChange();
	}
	#endif
}
    37d0:	ff 91       	pop	r31
    37d2:	ef 91       	pop	r30
    37d4:	bf 91       	pop	r27
    37d6:	af 91       	pop	r26
    37d8:	9f 91       	pop	r25
    37da:	8f 91       	pop	r24
    37dc:	7f 91       	pop	r23
    37de:	6f 91       	pop	r22
    37e0:	5f 91       	pop	r21
    37e2:	4f 91       	pop	r20
    37e4:	3f 91       	pop	r19
    37e6:	2f 91       	pop	r18
    37e8:	0f 90       	pop	r0
    37ea:	0f be       	out	0x3f, r0	; 63
    37ec:	0f 90       	pop	r0
    37ee:	1f 90       	pop	r1
    37f0:	18 95       	reti

000037f2 <__vector_12>:

#if defined(INTERRUPT_CONTROL_ENDPOINT) && defined(USB_CAN_BE_DEVICE)
ISR(USB_COM_vect, ISR_BLOCK)
{
    37f2:	1f 92       	push	r1
    37f4:	0f 92       	push	r0
    37f6:	0f b6       	in	r0, 0x3f	; 63
    37f8:	0f 92       	push	r0
    37fa:	11 24       	eor	r1, r1
    37fc:	2f 93       	push	r18
    37fe:	3f 93       	push	r19
    3800:	4f 93       	push	r20
    3802:	5f 93       	push	r21
    3804:	6f 93       	push	r22
    3806:	7f 93       	push	r23
    3808:	8f 93       	push	r24
    380a:	9f 93       	push	r25
    380c:	af 93       	push	r26
    380e:	bf 93       	push	r27
    3810:	cf 93       	push	r28
    3812:	df 93       	push	r29
    3814:	ef 93       	push	r30
    3816:	ff 93       	push	r31
			 */
			static inline uint8_t Endpoint_GetCurrentEndpoint(void) ATTR_WARN_UNUSED_RESULT ATTR_ALWAYS_INLINE;
			static inline uint8_t Endpoint_GetCurrentEndpoint(void)
			{
				#if !defined(CONTROL_ONLY_DEVICE)
					return ((UENUM & ENDPOINT_EPNUM_MASK) | Endpoint_GetEndpointDirection());
    3818:	c0 91 e9 00 	lds	r28, 0x00E9	; 0x8000e9 <__DATA_REGION_ORIGIN__+0x89>
    381c:	cf 70       	andi	r28, 0x0F	; 15
			 *  \return The currently selected endpoint's direction, as a \c ENDPOINT_DIR_* mask.
			 */
			static inline uint8_t Endpoint_GetEndpointDirection(void) ATTR_WARN_UNUSED_RESULT ATTR_ALWAYS_INLINE;
			static inline uint8_t Endpoint_GetEndpointDirection(void)
			{
				return (UECFG0X & (1 << EPDIR)) ? ENDPOINT_DIR_IN : ENDPOINT_DIR_OUT;
    381e:	80 91 ec 00 	lds	r24, 0x00EC	; 0x8000ec <__DATA_REGION_ORIGIN__+0x8c>
    3822:	d8 2f       	mov	r29, r24
    3824:	d1 70       	andi	r29, 0x01	; 1
    3826:	80 fd       	sbrc	r24, 0
    3828:	d0 e8       	ldi	r29, 0x80	; 128
			 */
			static inline void Endpoint_SelectEndpoint(const uint8_t Address) ATTR_ALWAYS_INLINE;
			static inline void Endpoint_SelectEndpoint(const uint8_t Address)
			{
				#if !defined(CONTROL_ONLY_DEVICE)
					UENUM = (Address & ENDPOINT_EPNUM_MASK);
    382a:	10 92 e9 00 	sts	0x00E9, r1	; 0x8000e9 <__DATA_REGION_ORIGIN__+0x89>
						break;
					case USB_INT_SOFI:
						UDIEN  &= ~(1 << SOFE);
						break;
					case USB_INT_RXSTPI:
						UEIENX &= ~(1 << RXSTPE);
    382e:	80 91 f0 00 	lds	r24, 0x00F0	; 0x8000f0 <__DATA_REGION_ORIGIN__+0x90>
    3832:	87 7f       	andi	r24, 0xF7	; 247
    3834:	80 93 f0 00 	sts	0x00F0, r24	; 0x8000f0 <__DATA_REGION_ORIGIN__+0x90>
			static inline void GlobalInterruptEnable(void)
			{
				GCC_MEMORY_BARRIER();

				#if (ARCH == ARCH_AVR8)
				sei();
    3838:	78 94       	sei
	Endpoint_SelectEndpoint(ENDPOINT_CONTROLEP);
	USB_INT_Disable(USB_INT_RXSTPI);

	GlobalInterruptEnable();

	USB_Device_ProcessControlRequest();
    383a:	1e d0       	rcall	.+60     	; 0x3878 <USB_Device_ProcessControlRequest>
    383c:	10 92 e9 00 	sts	0x00E9, r1	; 0x8000e9 <__DATA_REGION_ORIGIN__+0x89>
						break;
					case USB_INT_SOFI:
						UDIEN  |= (1 << SOFE);
						break;
					case USB_INT_RXSTPI:
						UEIENX |= (1 << RXSTPE);
    3840:	80 91 f0 00 	lds	r24, 0x00F0	; 0x8000f0 <__DATA_REGION_ORIGIN__+0x90>
    3844:	88 60       	ori	r24, 0x08	; 8
    3846:	80 93 f0 00 	sts	0x00F0, r24	; 0x8000f0 <__DATA_REGION_ORIGIN__+0x90>
    384a:	cd 2b       	or	r28, r29
    384c:	cf 70       	andi	r28, 0x0F	; 15
    384e:	c0 93 e9 00 	sts	0x00E9, r28	; 0x8000e9 <__DATA_REGION_ORIGIN__+0x89>

	Endpoint_SelectEndpoint(ENDPOINT_CONTROLEP);
	USB_INT_Enable(USB_INT_RXSTPI);
	Endpoint_SelectEndpoint(PrevSelectedEndpoint);
}
    3852:	ff 91       	pop	r31
    3854:	ef 91       	pop	r30
    3856:	df 91       	pop	r29
    3858:	cf 91       	pop	r28
    385a:	bf 91       	pop	r27
    385c:	af 91       	pop	r26
    385e:	9f 91       	pop	r25
    3860:	8f 91       	pop	r24
    3862:	7f 91       	pop	r23
    3864:	6f 91       	pop	r22
    3866:	5f 91       	pop	r21
    3868:	4f 91       	pop	r20
    386a:	3f 91       	pop	r19
    386c:	2f 91       	pop	r18
    386e:	0f 90       	pop	r0
    3870:	0f be       	out	0x3f, r0	; 63
    3872:	0f 90       	pop	r0
    3874:	1f 90       	pop	r1
    3876:	18 95       	reti

00003878 <USB_Device_ProcessControlRequest>:
    3878:	1f 93       	push	r17
    387a:	cf 93       	push	r28
    387c:	df 93       	push	r29
    387e:	cd b7       	in	r28, 0x3d	; 61
    3880:	de b7       	in	r29, 0x3e	; 62
    3882:	aa 97       	sbiw	r28, 0x2a	; 42
    3884:	0f b6       	in	r0, 0x3f	; 63
    3886:	f8 94       	cli
    3888:	de bf       	out	0x3e, r29	; 62
    388a:	0f be       	out	0x3f, r0	; 63
    388c:	cd bf       	out	0x3d, r28	; 61
    388e:	e7 eb       	ldi	r30, 0xB7	; 183
    3890:	f2 e0       	ldi	r31, 0x02	; 2
    3892:	80 91 f1 00 	lds	r24, 0x00F1	; 0x8000f1 <__DATA_REGION_ORIGIN__+0x91>
    3896:	81 93       	st	Z+, r24
    3898:	22 e0       	ldi	r18, 0x02	; 2
    389a:	ef 3b       	cpi	r30, 0xBF	; 191
    389c:	f2 07       	cpc	r31, r18
    389e:	c9 f7       	brne	.-14     	; 0x3892 <USB_Device_ProcessControlRequest+0x1a>
    38a0:	42 d2       	rcall	.+1156   	; 0x3d26 <EVENT_USB_Device_ControlRequest>
    38a2:	80 91 e8 00 	lds	r24, 0x00E8	; 0x8000e8 <__DATA_REGION_ORIGIN__+0x88>
    38a6:	83 ff       	sbrs	r24, 3
    38a8:	27 c1       	rjmp	.+590    	; 0x3af8 <USB_Device_ProcessControlRequest+0x280>
    38aa:	80 91 b7 02 	lds	r24, 0x02B7	; 0x8002b7 <USB_ControlRequest>
    38ae:	90 91 b8 02 	lds	r25, 0x02B8	; 0x8002b8 <USB_ControlRequest+0x1>
    38b2:	95 30       	cpi	r25, 0x05	; 5
    38b4:	09 f4       	brne	.+2      	; 0x38b8 <USB_Device_ProcessControlRequest+0x40>
    38b6:	78 c0       	rjmp	.+240    	; 0x39a8 <USB_Device_ProcessControlRequest+0x130>
    38b8:	30 f4       	brcc	.+12     	; 0x38c6 <USB_Device_ProcessControlRequest+0x4e>
    38ba:	91 30       	cpi	r25, 0x01	; 1
    38bc:	81 f1       	breq	.+96     	; 0x391e <USB_Device_ProcessControlRequest+0xa6>
    38be:	68 f0       	brcs	.+26     	; 0x38da <USB_Device_ProcessControlRequest+0x62>
    38c0:	93 30       	cpi	r25, 0x03	; 3
    38c2:	69 f1       	breq	.+90     	; 0x391e <USB_Device_ProcessControlRequest+0xa6>
    38c4:	19 c1       	rjmp	.+562    	; 0x3af8 <USB_Device_ProcessControlRequest+0x280>
    38c6:	98 30       	cpi	r25, 0x08	; 8
    38c8:	09 f4       	brne	.+2      	; 0x38cc <USB_Device_ProcessControlRequest+0x54>
    38ca:	e3 c0       	rjmp	.+454    	; 0x3a92 <USB_Device_ProcessControlRequest+0x21a>
    38cc:	99 30       	cpi	r25, 0x09	; 9
    38ce:	09 f4       	brne	.+2      	; 0x38d2 <USB_Device_ProcessControlRequest+0x5a>
    38d0:	f2 c0       	rjmp	.+484    	; 0x3ab6 <USB_Device_ProcessControlRequest+0x23e>
    38d2:	96 30       	cpi	r25, 0x06	; 6
    38d4:	09 f0       	breq	.+2      	; 0x38d8 <USB_Device_ProcessControlRequest+0x60>
    38d6:	10 c1       	rjmp	.+544    	; 0x3af8 <USB_Device_ProcessControlRequest+0x280>
    38d8:	89 c0       	rjmp	.+274    	; 0x39ec <USB_Device_ProcessControlRequest+0x174>
    38da:	80 38       	cpi	r24, 0x80	; 128
    38dc:	81 f0       	breq	.+32     	; 0x38fe <USB_Device_ProcessControlRequest+0x86>
    38de:	82 38       	cpi	r24, 0x82	; 130
    38e0:	09 f0       	breq	.+2      	; 0x38e4 <USB_Device_ProcessControlRequest+0x6c>
    38e2:	0a c1       	rjmp	.+532    	; 0x3af8 <USB_Device_ProcessControlRequest+0x280>
    38e4:	80 91 bb 02 	lds	r24, 0x02BB	; 0x8002bb <USB_ControlRequest+0x4>
    38e8:	8f 70       	andi	r24, 0x0F	; 15
    38ea:	80 93 e9 00 	sts	0x00E9, r24	; 0x8000e9 <__DATA_REGION_ORIGIN__+0x89>
    38ee:	80 91 eb 00 	lds	r24, 0x00EB	; 0x8000eb <__DATA_REGION_ORIGIN__+0x8b>
    38f2:	85 fb       	bst	r24, 5
    38f4:	88 27       	eor	r24, r24
    38f6:	80 f9       	bld	r24, 0
    38f8:	10 92 e9 00 	sts	0x00E9, r1	; 0x8000e9 <__DATA_REGION_ORIGIN__+0x89>
    38fc:	06 c0       	rjmp	.+12     	; 0x390a <USB_Device_ProcessControlRequest+0x92>
    38fe:	80 91 b3 02 	lds	r24, 0x02B3	; 0x8002b3 <USB_Device_CurrentlySelfPowered>
    3902:	90 91 b4 02 	lds	r25, 0x02B4	; 0x8002b4 <USB_Device_RemoteWakeupEnabled>
    3906:	91 11       	cpse	r25, r1
    3908:	82 60       	ori	r24, 0x02	; 2
    390a:	90 91 e8 00 	lds	r25, 0x00E8	; 0x8000e8 <__DATA_REGION_ORIGIN__+0x88>
    390e:	97 7f       	andi	r25, 0xF7	; 247
    3910:	90 93 e8 00 	sts	0x00E8, r25	; 0x8000e8 <__DATA_REGION_ORIGIN__+0x88>
    3914:	80 93 f1 00 	sts	0x00F1, r24	; 0x8000f1 <__DATA_REGION_ORIGIN__+0x91>
    3918:	10 92 f1 00 	sts	0x00F1, r1	; 0x8000f1 <__DATA_REGION_ORIGIN__+0x91>
    391c:	c5 c0       	rjmp	.+394    	; 0x3aa8 <USB_Device_ProcessControlRequest+0x230>
    391e:	28 2f       	mov	r18, r24
    3920:	2d 7f       	andi	r18, 0xFD	; 253
    3922:	09 f0       	breq	.+2      	; 0x3926 <USB_Device_ProcessControlRequest+0xae>
    3924:	e9 c0       	rjmp	.+466    	; 0x3af8 <USB_Device_ProcessControlRequest+0x280>
    3926:	88 23       	and	r24, r24
    3928:	19 f0       	breq	.+6      	; 0x3930 <USB_Device_ProcessControlRequest+0xb8>
    392a:	82 30       	cpi	r24, 0x02	; 2
    392c:	61 f0       	breq	.+24     	; 0x3946 <USB_Device_ProcessControlRequest+0xce>
    392e:	e4 c0       	rjmp	.+456    	; 0x3af8 <USB_Device_ProcessControlRequest+0x280>
    3930:	80 91 b9 02 	lds	r24, 0x02B9	; 0x8002b9 <USB_ControlRequest+0x2>
    3934:	81 30       	cpi	r24, 0x01	; 1
    3936:	09 f0       	breq	.+2      	; 0x393a <USB_Device_ProcessControlRequest+0xc2>
    3938:	df c0       	rjmp	.+446    	; 0x3af8 <USB_Device_ProcessControlRequest+0x280>
    393a:	93 30       	cpi	r25, 0x03	; 3
    393c:	09 f0       	breq	.+2      	; 0x3940 <USB_Device_ProcessControlRequest+0xc8>
    393e:	80 e0       	ldi	r24, 0x00	; 0
    3940:	80 93 b4 02 	sts	0x02B4, r24	; 0x8002b4 <USB_Device_RemoteWakeupEnabled>
    3944:	2b c0       	rjmp	.+86     	; 0x399c <USB_Device_ProcessControlRequest+0x124>
    3946:	80 91 b9 02 	lds	r24, 0x02B9	; 0x8002b9 <USB_ControlRequest+0x2>
    394a:	81 11       	cpse	r24, r1
    394c:	27 c0       	rjmp	.+78     	; 0x399c <USB_Device_ProcessControlRequest+0x124>
    394e:	80 91 bb 02 	lds	r24, 0x02BB	; 0x8002bb <USB_ControlRequest+0x4>
    3952:	8f 70       	andi	r24, 0x0F	; 15
    3954:	09 f4       	brne	.+2      	; 0x3958 <USB_Device_ProcessControlRequest+0xe0>
    3956:	d0 c0       	rjmp	.+416    	; 0x3af8 <USB_Device_ProcessControlRequest+0x280>
    3958:	80 93 e9 00 	sts	0x00E9, r24	; 0x8000e9 <__DATA_REGION_ORIGIN__+0x89>
    395c:	20 91 eb 00 	lds	r18, 0x00EB	; 0x8000eb <__DATA_REGION_ORIGIN__+0x8b>
    3960:	20 ff       	sbrs	r18, 0
    3962:	1c c0       	rjmp	.+56     	; 0x399c <USB_Device_ProcessControlRequest+0x124>
    3964:	93 30       	cpi	r25, 0x03	; 3
    3966:	21 f4       	brne	.+8      	; 0x3970 <USB_Device_ProcessControlRequest+0xf8>
    3968:	80 91 eb 00 	lds	r24, 0x00EB	; 0x8000eb <__DATA_REGION_ORIGIN__+0x8b>
    396c:	80 62       	ori	r24, 0x20	; 32
    396e:	14 c0       	rjmp	.+40     	; 0x3998 <USB_Device_ProcessControlRequest+0x120>
    3970:	90 91 eb 00 	lds	r25, 0x00EB	; 0x8000eb <__DATA_REGION_ORIGIN__+0x8b>
    3974:	90 61       	ori	r25, 0x10	; 16
    3976:	90 93 eb 00 	sts	0x00EB, r25	; 0x8000eb <__DATA_REGION_ORIGIN__+0x8b>
    397a:	21 e0       	ldi	r18, 0x01	; 1
    397c:	30 e0       	ldi	r19, 0x00	; 0
    397e:	a9 01       	movw	r20, r18
    3980:	02 c0       	rjmp	.+4      	; 0x3986 <USB_Device_ProcessControlRequest+0x10e>
    3982:	44 0f       	add	r20, r20
    3984:	55 1f       	adc	r21, r21
    3986:	8a 95       	dec	r24
    3988:	e2 f7       	brpl	.-8      	; 0x3982 <USB_Device_ProcessControlRequest+0x10a>
    398a:	40 93 ea 00 	sts	0x00EA, r20	; 0x8000ea <__DATA_REGION_ORIGIN__+0x8a>
    398e:	10 92 ea 00 	sts	0x00EA, r1	; 0x8000ea <__DATA_REGION_ORIGIN__+0x8a>
    3992:	80 91 eb 00 	lds	r24, 0x00EB	; 0x8000eb <__DATA_REGION_ORIGIN__+0x8b>
    3996:	88 60       	ori	r24, 0x08	; 8
    3998:	80 93 eb 00 	sts	0x00EB, r24	; 0x8000eb <__DATA_REGION_ORIGIN__+0x8b>
    399c:	10 92 e9 00 	sts	0x00E9, r1	; 0x8000e9 <__DATA_REGION_ORIGIN__+0x89>
    39a0:	80 91 e8 00 	lds	r24, 0x00E8	; 0x8000e8 <__DATA_REGION_ORIGIN__+0x88>
    39a4:	87 7f       	andi	r24, 0xF7	; 247
    39a6:	83 c0       	rjmp	.+262    	; 0x3aae <USB_Device_ProcessControlRequest+0x236>
    39a8:	81 11       	cpse	r24, r1
    39aa:	a6 c0       	rjmp	.+332    	; 0x3af8 <USB_Device_ProcessControlRequest+0x280>
    39ac:	10 91 b9 02 	lds	r17, 0x02B9	; 0x8002b9 <USB_ControlRequest+0x2>
    39b0:	1f 77       	andi	r17, 0x7F	; 127
    39b2:	80 91 e3 00 	lds	r24, 0x00E3	; 0x8000e3 <__DATA_REGION_ORIGIN__+0x83>
    39b6:	80 78       	andi	r24, 0x80	; 128
    39b8:	81 2b       	or	r24, r17
    39ba:	80 93 e3 00 	sts	0x00E3, r24	; 0x8000e3 <__DATA_REGION_ORIGIN__+0x83>
    39be:	80 91 e8 00 	lds	r24, 0x00E8	; 0x8000e8 <__DATA_REGION_ORIGIN__+0x88>
    39c2:	87 7f       	andi	r24, 0xF7	; 247
    39c4:	80 93 e8 00 	sts	0x00E8, r24	; 0x8000e8 <__DATA_REGION_ORIGIN__+0x88>
    39c8:	d1 dd       	rcall	.-1118   	; 0x356c <Endpoint_ClearStatusStage>
    39ca:	80 91 e8 00 	lds	r24, 0x00E8	; 0x8000e8 <__DATA_REGION_ORIGIN__+0x88>
    39ce:	80 ff       	sbrs	r24, 0
    39d0:	fc cf       	rjmp	.-8      	; 0x39ca <USB_Device_ProcessControlRequest+0x152>
    39d2:	80 91 e3 00 	lds	r24, 0x00E3	; 0x8000e3 <__DATA_REGION_ORIGIN__+0x83>
    39d6:	80 68       	ori	r24, 0x80	; 128
    39d8:	80 93 e3 00 	sts	0x00E3, r24	; 0x8000e3 <__DATA_REGION_ORIGIN__+0x83>
    39dc:	11 11       	cpse	r17, r1
    39de:	02 c0       	rjmp	.+4      	; 0x39e4 <USB_Device_ProcessControlRequest+0x16c>
    39e0:	82 e0       	ldi	r24, 0x02	; 2
    39e2:	01 c0       	rjmp	.+2      	; 0x39e6 <USB_Device_ProcessControlRequest+0x16e>
    39e4:	83 e0       	ldi	r24, 0x03	; 3
    39e6:	80 93 b6 02 	sts	0x02B6, r24	; 0x8002b6 <USB_DeviceState>
    39ea:	86 c0       	rjmp	.+268    	; 0x3af8 <USB_Device_ProcessControlRequest+0x280>
    39ec:	80 58       	subi	r24, 0x80	; 128
    39ee:	82 30       	cpi	r24, 0x02	; 2
    39f0:	08 f0       	brcs	.+2      	; 0x39f4 <USB_Device_ProcessControlRequest+0x17c>
    39f2:	82 c0       	rjmp	.+260    	; 0x3af8 <USB_Device_ProcessControlRequest+0x280>
    39f4:	80 91 b9 02 	lds	r24, 0x02B9	; 0x8002b9 <USB_ControlRequest+0x2>
    39f8:	90 91 ba 02 	lds	r25, 0x02BA	; 0x8002ba <USB_ControlRequest+0x3>
    39fc:	8c 3d       	cpi	r24, 0xDC	; 220
    39fe:	53 e0       	ldi	r21, 0x03	; 3
    3a00:	95 07       	cpc	r25, r21
    3a02:	71 f5       	brne	.+92     	; 0x3a60 <USB_Device_ProcessControlRequest+0x1e8>
    3a04:	83 e0       	ldi	r24, 0x03	; 3
    3a06:	8a 83       	std	Y+2, r24	; 0x02
    3a08:	8a e2       	ldi	r24, 0x2A	; 42
    3a0a:	89 83       	std	Y+1, r24	; 0x01
    3a0c:	4f b7       	in	r20, 0x3f	; 63
    3a0e:	f8 94       	cli
    3a10:	de 01       	movw	r26, r28
    3a12:	13 96       	adiw	r26, 0x03	; 3
    3a14:	20 e0       	ldi	r18, 0x00	; 0
    3a16:	3e e0       	ldi	r19, 0x0E	; 14
    3a18:	51 e2       	ldi	r21, 0x21	; 33
    3a1a:	e3 2f       	mov	r30, r19
    3a1c:	f0 e0       	ldi	r31, 0x00	; 0
    3a1e:	50 93 57 00 	sts	0x0057, r21	; 0x800057 <__EEPROM_REGION_LENGTH__+0x7f0057>
    3a22:	e4 91       	lpm	r30, Z
    3a24:	20 ff       	sbrs	r18, 0
    3a26:	03 c0       	rjmp	.+6      	; 0x3a2e <USB_Device_ProcessControlRequest+0x1b6>
    3a28:	e2 95       	swap	r30
    3a2a:	ef 70       	andi	r30, 0x0F	; 15
    3a2c:	3f 5f       	subi	r19, 0xFF	; 255
    3a2e:	ef 70       	andi	r30, 0x0F	; 15
    3a30:	8e 2f       	mov	r24, r30
    3a32:	90 e0       	ldi	r25, 0x00	; 0
    3a34:	ea 30       	cpi	r30, 0x0A	; 10
    3a36:	10 f0       	brcs	.+4      	; 0x3a3c <USB_Device_ProcessControlRequest+0x1c4>
    3a38:	c7 96       	adiw	r24, 0x37	; 55
    3a3a:	01 c0       	rjmp	.+2      	; 0x3a3e <USB_Device_ProcessControlRequest+0x1c6>
    3a3c:	c0 96       	adiw	r24, 0x30	; 48
    3a3e:	8d 93       	st	X+, r24
    3a40:	9d 93       	st	X+, r25
    3a42:	2f 5f       	subi	r18, 0xFF	; 255
    3a44:	24 31       	cpi	r18, 0x14	; 20
    3a46:	49 f7       	brne	.-46     	; 0x3a1a <USB_Device_ProcessControlRequest+0x1a2>
    3a48:	4f bf       	out	0x3f, r20	; 63
    3a4a:	80 91 e8 00 	lds	r24, 0x00E8	; 0x8000e8 <__DATA_REGION_ORIGIN__+0x88>
    3a4e:	87 7f       	andi	r24, 0xF7	; 247
    3a50:	80 93 e8 00 	sts	0x00E8, r24	; 0x8000e8 <__DATA_REGION_ORIGIN__+0x88>
    3a54:	6a e2       	ldi	r22, 0x2A	; 42
    3a56:	70 e0       	ldi	r23, 0x00	; 0
    3a58:	ce 01       	movw	r24, r28
    3a5a:	01 96       	adiw	r24, 0x01	; 1
    3a5c:	5c dc       	rcall	.-1864   	; 0x3316 <Endpoint_Write_Control_Stream_LE>
    3a5e:	13 c0       	rjmp	.+38     	; 0x3a86 <USB_Device_ProcessControlRequest+0x20e>
    3a60:	ae 01       	movw	r20, r28
    3a62:	4f 5f       	subi	r20, 0xFF	; 255
    3a64:	5f 4f       	sbci	r21, 0xFF	; 255
    3a66:	60 91 bb 02 	lds	r22, 0x02BB	; 0x8002bb <USB_ControlRequest+0x4>
    3a6a:	0e 94 37 05 	call	0xa6e	; 0xa6e <CALLBACK_USB_GetDescriptor>
    3a6e:	bc 01       	movw	r22, r24
    3a70:	89 2b       	or	r24, r25
    3a72:	09 f4       	brne	.+2      	; 0x3a76 <USB_Device_ProcessControlRequest+0x1fe>
    3a74:	41 c0       	rjmp	.+130    	; 0x3af8 <USB_Device_ProcessControlRequest+0x280>
    3a76:	90 91 e8 00 	lds	r25, 0x00E8	; 0x8000e8 <__DATA_REGION_ORIGIN__+0x88>
    3a7a:	97 7f       	andi	r25, 0xF7	; 247
    3a7c:	90 93 e8 00 	sts	0x00E8, r25	; 0x8000e8 <__DATA_REGION_ORIGIN__+0x88>
    3a80:	89 81       	ldd	r24, Y+1	; 0x01
    3a82:	9a 81       	ldd	r25, Y+2	; 0x02
    3a84:	a3 dc       	rcall	.-1722   	; 0x33cc <Endpoint_Write_Control_PStream_LE>
    3a86:	80 91 e8 00 	lds	r24, 0x00E8	; 0x8000e8 <__DATA_REGION_ORIGIN__+0x88>
    3a8a:	8b 77       	andi	r24, 0x7B	; 123
    3a8c:	80 93 e8 00 	sts	0x00E8, r24	; 0x8000e8 <__DATA_REGION_ORIGIN__+0x88>
    3a90:	33 c0       	rjmp	.+102    	; 0x3af8 <USB_Device_ProcessControlRequest+0x280>
    3a92:	80 38       	cpi	r24, 0x80	; 128
    3a94:	89 f5       	brne	.+98     	; 0x3af8 <USB_Device_ProcessControlRequest+0x280>
    3a96:	80 91 e8 00 	lds	r24, 0x00E8	; 0x8000e8 <__DATA_REGION_ORIGIN__+0x88>
    3a9a:	87 7f       	andi	r24, 0xF7	; 247
    3a9c:	80 93 e8 00 	sts	0x00E8, r24	; 0x8000e8 <__DATA_REGION_ORIGIN__+0x88>
    3aa0:	80 91 b2 02 	lds	r24, 0x02B2	; 0x8002b2 <USB_Device_ConfigurationNumber>
    3aa4:	80 93 f1 00 	sts	0x00F1, r24	; 0x8000f1 <__DATA_REGION_ORIGIN__+0x91>
    3aa8:	80 91 e8 00 	lds	r24, 0x00E8	; 0x8000e8 <__DATA_REGION_ORIGIN__+0x88>
    3aac:	8e 77       	andi	r24, 0x7E	; 126
    3aae:	80 93 e8 00 	sts	0x00E8, r24	; 0x8000e8 <__DATA_REGION_ORIGIN__+0x88>
    3ab2:	5c dd       	rcall	.-1352   	; 0x356c <Endpoint_ClearStatusStage>
    3ab4:	21 c0       	rjmp	.+66     	; 0x3af8 <USB_Device_ProcessControlRequest+0x280>
    3ab6:	81 11       	cpse	r24, r1
    3ab8:	1f c0       	rjmp	.+62     	; 0x3af8 <USB_Device_ProcessControlRequest+0x280>
    3aba:	80 91 b9 02 	lds	r24, 0x02B9	; 0x8002b9 <USB_ControlRequest+0x2>
    3abe:	90 91 ba 02 	lds	r25, 0x02BA	; 0x8002ba <USB_ControlRequest+0x3>
    3ac2:	99 27       	eor	r25, r25
    3ac4:	02 97       	sbiw	r24, 0x02	; 2
    3ac6:	c4 f4       	brge	.+48     	; 0x3af8 <USB_Device_ProcessControlRequest+0x280>
    3ac8:	80 91 e8 00 	lds	r24, 0x00E8	; 0x8000e8 <__DATA_REGION_ORIGIN__+0x88>
    3acc:	87 7f       	andi	r24, 0xF7	; 247
    3ace:	80 93 e8 00 	sts	0x00E8, r24	; 0x8000e8 <__DATA_REGION_ORIGIN__+0x88>
    3ad2:	80 91 b9 02 	lds	r24, 0x02B9	; 0x8002b9 <USB_ControlRequest+0x2>
    3ad6:	80 93 b2 02 	sts	0x02B2, r24	; 0x8002b2 <USB_Device_ConfigurationNumber>
    3ada:	48 dd       	rcall	.-1392   	; 0x356c <Endpoint_ClearStatusStage>
    3adc:	80 91 b2 02 	lds	r24, 0x02B2	; 0x8002b2 <USB_Device_ConfigurationNumber>
    3ae0:	81 11       	cpse	r24, r1
    3ae2:	06 c0       	rjmp	.+12     	; 0x3af0 <USB_Device_ProcessControlRequest+0x278>
    3ae4:	80 91 e3 00 	lds	r24, 0x00E3	; 0x8000e3 <__DATA_REGION_ORIGIN__+0x83>
    3ae8:	87 fd       	sbrc	r24, 7
    3aea:	02 c0       	rjmp	.+4      	; 0x3af0 <USB_Device_ProcessControlRequest+0x278>
    3aec:	81 e0       	ldi	r24, 0x01	; 1
    3aee:	01 c0       	rjmp	.+2      	; 0x3af2 <USB_Device_ProcessControlRequest+0x27a>
    3af0:	84 e0       	ldi	r24, 0x04	; 4
    3af2:	80 93 b6 02 	sts	0x02B6, r24	; 0x8002b6 <USB_DeviceState>
    3af6:	14 d1       	rcall	.+552    	; 0x3d20 <EVENT_USB_Device_ConfigurationChanged>
    3af8:	80 91 e8 00 	lds	r24, 0x00E8	; 0x8000e8 <__DATA_REGION_ORIGIN__+0x88>
    3afc:	83 ff       	sbrs	r24, 3
    3afe:	0a c0       	rjmp	.+20     	; 0x3b14 <USB_Device_ProcessControlRequest+0x29c>
    3b00:	80 91 e8 00 	lds	r24, 0x00E8	; 0x8000e8 <__DATA_REGION_ORIGIN__+0x88>
    3b04:	87 7f       	andi	r24, 0xF7	; 247
    3b06:	80 93 e8 00 	sts	0x00E8, r24	; 0x8000e8 <__DATA_REGION_ORIGIN__+0x88>
    3b0a:	80 91 eb 00 	lds	r24, 0x00EB	; 0x8000eb <__DATA_REGION_ORIGIN__+0x8b>
    3b0e:	80 62       	ori	r24, 0x20	; 32
    3b10:	80 93 eb 00 	sts	0x00EB, r24	; 0x8000eb <__DATA_REGION_ORIGIN__+0x8b>
    3b14:	aa 96       	adiw	r28, 0x2a	; 42
    3b16:	0f b6       	in	r0, 0x3f	; 63
    3b18:	f8 94       	cli
    3b1a:	de bf       	out	0x3e, r29	; 62
    3b1c:	0f be       	out	0x3f, r0	; 63
    3b1e:	cd bf       	out	0x3d, r28	; 61
    3b20:	df 91       	pop	r29
    3b22:	cf 91       	pop	r28
    3b24:	1f 91       	pop	r17
    3b26:	08 95       	ret

00003b28 <USB_Event_Stub>:
    3b28:	08 95       	ret

00003b2a <USB_USBTask>:
    3b2a:	cf 93       	push	r28
    3b2c:	80 91 b6 02 	lds	r24, 0x02B6	; 0x8002b6 <USB_DeviceState>
    3b30:	88 23       	and	r24, r24
    3b32:	99 f0       	breq	.+38     	; 0x3b5a <USB_USBTask+0x30>
    3b34:	c0 91 e9 00 	lds	r28, 0x00E9	; 0x8000e9 <__DATA_REGION_ORIGIN__+0x89>
    3b38:	cf 70       	andi	r28, 0x0F	; 15
    3b3a:	90 91 ec 00 	lds	r25, 0x00EC	; 0x8000ec <__DATA_REGION_ORIGIN__+0x8c>
    3b3e:	89 2f       	mov	r24, r25
    3b40:	81 70       	andi	r24, 0x01	; 1
    3b42:	90 fd       	sbrc	r25, 0
    3b44:	80 e8       	ldi	r24, 0x80	; 128
    3b46:	c8 2b       	or	r28, r24
    3b48:	10 92 e9 00 	sts	0x00E9, r1	; 0x8000e9 <__DATA_REGION_ORIGIN__+0x89>
    3b4c:	80 91 e8 00 	lds	r24, 0x00E8	; 0x8000e8 <__DATA_REGION_ORIGIN__+0x88>
    3b50:	83 fd       	sbrc	r24, 3
    3b52:	92 de       	rcall	.-732    	; 0x3878 <USB_Device_ProcessControlRequest>
    3b54:	cf 70       	andi	r28, 0x0F	; 15
    3b56:	c0 93 e9 00 	sts	0x00E9, r28	; 0x8000e9 <__DATA_REGION_ORIGIN__+0x89>
    3b5a:	cf 91       	pop	r28
    3b5c:	08 95       	ret

00003b5e <voMS1000_Tasks>:
	LLS_voTask();
	
	
}

void voMS1000_Tasks(){
    3b5e:	08 95       	ret

00003b60 <voMS10_Tasks>:
	
	
}

void voMS10_Tasks(void){
	voKeyEvent_Task();
    3b60:	0c 94 63 08 	jmp	0x10c6	; 0x10c6 <voKeyEvent_Task>

00003b64 <voMS100_Tasks>:
	
}

void voMS100_Tasks(void){
	WLM_voTask();
    3b64:	de d9       	rcall	.-3140   	; 0x2f22 <WLM_voTask>
	voTMS_Task();
    3b66:	8f d9       	rcall	.-3298   	; 0x2e86 <voTMS_Task>
	voPSE_Task();
    3b68:	50 d9       	rcall	.-3424   	; 0x2e0a <voPSE_Task>
    3b6a:	0e 94 0a 08 	call	0x1014	; 0x1014 <voBTC_Task>
	voBTC_Task();
    3b6e:	0e 94 8f 15 	call	0x2b1e	; 0x2b1e <voHMon_Task>
	
	voHMon_Task();
    3b72:	0e 94 1a 0a 	call	0x1434	; 0x1434 <voCoffeeFSM_Task>
	voCoffeeFSM_Task();
    3b76:	80 91 4b 02 	lds	r24, 0x024B	; 0x80024b <connected>
	
	if(connected!=0){
    3b7a:	08 95       	ret

00003b7c <voMS50_Tasks>:
    3b7c:	0e 94 57 12 	call	0x24ae	; 0x24ae <DPS_voTask>
}

void voMS50_Tasks(void){
	/* We will update the Display here and may even handle Blinking ICONs */
	DPS_voTask();
	LLS_voTask();
    3b80:	43 c8       	rjmp	.-3962   	; 0x2c08 <LLS_voTask>

00003b82 <voMS1_Task>:
    3b82:	08 95       	ret

00003b84 <voUSB_Task>:


void voUSB_Task(  )
{
	/* Must throw away unused bytes from the host, or it will lock up while waiting for the device */
	int16_t Data = CDC_Device_ReceiveByte(&VirtualSerial_CDC_Interface);
    3b84:	87 e2       	ldi	r24, 0x27	; 39
    3b86:	91 e0       	ldi	r25, 0x01	; 1
    3b88:	cc da       	rcall	.-2664   	; 0x3122 <CDC_Device_ReceiveByte>
	if(Data >= 0)
    3b8a:	97 ff       	sbrs	r25, 7
	{
		/* We need to colect the Data for processing here */
		CMDI_boAddCharToBuffer(Data);
    3b8c:	0e 94 b8 0c 	call	0x1970	; 0x1970 <CMDI_boAddCharToBuffer>
		/* First we put the Data to the FiFo and execute the Data if we find an Enter */
	}
	CDC_Device_USBTask(&VirtualSerial_CDC_Interface);
    3b90:	87 e2       	ldi	r24, 0x27	; 39
    3b92:	91 e0       	ldi	r25, 0x01	; 1
	USB_USBTask();
    3b94:	b0 da       	rcall	.-2720   	; 0x30f6 <CDC_Device_USBTask>
    3b96:	c9 cf       	rjmp	.-110    	; 0x3b2a <USB_USBTask>

00003b98 <voProcessTimerOBJ>:
}

/* This is currently prone to jitter and drift*/
void voProcessTimerOBJ(volatile TIMEROBJ_t* ptrTimerOBJ ){
    3b98:	cf 93       	push	r28
    3b9a:	df 93       	push	r29
    3b9c:	ec 01       	movw	r28, r24

uint16_t u16_current_time=u16GetSystemTicksMS();
    3b9e:	0e 94 73 07 	call	0xee6	; 0xee6 <u16GetSystemTicksMS>
/* Here we execute the Coffemaker parts if requiered */
uint16_t u16Delta = 0;
/* We need to move the Time axis here */


uint16_t u16intervall = ptrTimerOBJ->u16_intervall;
    3ba2:	2a 81       	ldd	r18, Y+2	; 0x02
    3ba4:	3b 81       	ldd	r19, Y+3	; 0x03
/* Everything here is run at XXXms Slots */
	if(ptrTimerOBJ->u16_intervall>0){
    3ba6:	4a 81       	ldd	r20, Y+2	; 0x02
    3ba8:	5b 81       	ldd	r21, Y+3	; 0x03
    3baa:	45 2b       	or	r20, r21
    3bac:	e1 f0       	breq	.+56     	; 0x3be6 <voProcessTimerOBJ+0x4e>
		/* Everything here is run at XXXms Slots */
		if(ptrTimerOBJ->u16_lastrun > u16_current_time ){
    3bae:	48 81       	ld	r20, Y
    3bb0:	59 81       	ldd	r21, Y+1	; 0x01
    3bb2:	84 17       	cp	r24, r20
    3bb4:	95 07       	cpc	r25, r21
    3bb6:	30 f4       	brcc	.+12     	; 0x3bc4 <voProcessTimerOBJ+0x2c>
			/* our timedelta is now  ( UINT16_MAX - u16_lastrun ) + u16_current_time */
			u16Delta = ( ( UINT16_MAX - ptrTimerOBJ->u16_lastrun) +u16_current_time  );
    3bb8:	48 81       	ld	r20, Y
    3bba:	59 81       	ldd	r21, Y+1	; 0x01
			if( u16Delta > u16intervall){
    3bbc:	84 1b       	sub	r24, r20
    3bbe:	95 0b       	sbc	r25, r21
    3bc0:	01 97       	sbiw	r24, 0x01	; 1
    3bc2:	04 c0       	rjmp	.+8      	; 0x3bcc <voProcessTimerOBJ+0x34>
				/* This will fix the drift */
				ptrTimerOBJ->u16_lastrun = ptrTimerOBJ->u16_lastrun+ptrTimerOBJ->u16_intervall;
			}
		} else {
			/* our delta is u16current_time - u16_lastrun */
			u16Delta = ( u16_current_time -ptrTimerOBJ->u16_lastrun  ) ;
    3bc4:	48 81       	ld	r20, Y
    3bc6:	59 81       	ldd	r21, Y+1	; 0x01
			if( u16Delta > u16intervall ){
    3bc8:	84 1b       	sub	r24, r20
    3bca:	95 0b       	sbc	r25, r21
    3bcc:	28 17       	cp	r18, r24
    3bce:	39 07       	cpc	r19, r25
    3bd0:	50 f4       	brcc	.+20     	; 0x3be6 <voProcessTimerOBJ+0x4e>
				ptrTimerOBJ->RunRequiered=1;
    3bd2:	81 e0       	ldi	r24, 0x01	; 1
    3bd4:	8c 83       	std	Y+4, r24	; 0x04
				/* ptrTimerOBJ->u16_lastrun = u16_current_time; */
				/* This will fix the drift */
				ptrTimerOBJ->u16_lastrun = ptrTimerOBJ->u16_lastrun+ptrTimerOBJ->u16_intervall;
    3bd6:	28 81       	ld	r18, Y
    3bd8:	39 81       	ldd	r19, Y+1	; 0x01
    3bda:	8a 81       	ldd	r24, Y+2	; 0x02
    3bdc:	9b 81       	ldd	r25, Y+3	; 0x03
    3bde:	82 0f       	add	r24, r18
    3be0:	93 1f       	adc	r25, r19
    3be2:	99 83       	std	Y+1, r25	; 0x01
    3be4:	88 83       	st	Y, r24
			}
		}
	}
}
    3be6:	df 91       	pop	r29
    3be8:	cf 91       	pop	r28
    3bea:	08 95       	ret

00003bec <boGetConnected>:
	TIMER(1000, voMS1000_Tasks ),	/* 1000ms Timer */

};

bool boGetConnected( void ){
	return connected; 
    3bec:	90 91 4b 02 	lds	r25, 0x024B	; 0x80024b <connected>
    3bf0:	81 e0       	ldi	r24, 0x01	; 1
    3bf2:	91 11       	cpse	r25, r1
    3bf4:	01 c0       	rjmp	.+2      	; 0x3bf8 <boGetConnected+0xc>
    3bf6:	80 e0       	ldi	r24, 0x00	; 0
}
    3bf8:	08 95       	ret

00003bfa <GetUSBStream>:

FILE* GetUSBStream( void ){
	return &USBSerialStream;
}
    3bfa:	8f eb       	ldi	r24, 0xBF	; 191
    3bfc:	92 e0       	ldi	r25, 0x02	; 2
    3bfe:	08 95       	ret

00003c00 <voScheduler>:
		fprintf(&USBSerialStream,"%i\t%i\n\r",s16BLTMP_GetBoilerTemp(),u16GetStandbyTemp());
	}
	
*/

void voScheduler( ) {
    3c00:	0f 93       	push	r16
    3c02:	1f 93       	push	r17
    3c04:	cf 93       	push	r28
    3c06:	df 93       	push	r29
    3c08:	04 e0       	ldi	r16, 0x04	; 4
    3c0a:	11 e0       	ldi	r17, 0x01	; 1
    3c0c:	c0 e0       	ldi	r28, 0x00	; 0
    3c0e:	d0 e0       	ldi	r29, 0x00	; 0

uint8_t u8NoOfTimer= (sizeof(Timer_OBJ)/sizeof(TIMEROBJ_t));

for(uint8_t i=0;i<u8NoOfTimer;i++){
	voProcessTimerOBJ(&Timer_OBJ[i]);
    3c10:	c8 01       	movw	r24, r16
    3c12:	c2 df       	rcall	.-124    	; 0x3b98 <voProcessTimerOBJ>
	if(Timer_OBJ[i].RunRequiered!=0){
    3c14:	ce 01       	movw	r24, r28
    3c16:	67 e0       	ldi	r22, 0x07	; 7
    3c18:	70 e0       	ldi	r23, 0x00	; 0
    3c1a:	89 d0       	rcall	.+274    	; 0x3d2e <__mulhi3>
    3c1c:	fc 01       	movw	r30, r24
    3c1e:	ec 5f       	subi	r30, 0xFC	; 252
    3c20:	fe 4f       	sbci	r31, 0xFE	; 254
    3c22:	84 81       	ldd	r24, Z+4	; 0x04
    3c24:	88 23       	and	r24, r24
    3c26:	81 f0       	breq	.+32     	; 0x3c48 <voScheduler+0x48>
		if(Timer_OBJ[i].fncptrCallBack!=NULL){
    3c28:	85 81       	ldd	r24, Z+5	; 0x05
    3c2a:	96 81       	ldd	r25, Z+6	; 0x06
    3c2c:	89 2b       	or	r24, r25
    3c2e:	21 f0       	breq	.+8      	; 0x3c38 <voScheduler+0x38>
			Timer_OBJ[i].fncptrCallBack();
    3c30:	05 80       	ldd	r0, Z+5	; 0x05
    3c32:	f6 81       	ldd	r31, Z+6	; 0x06
    3c34:	e0 2d       	mov	r30, r0
    3c36:	09 95       	icall
		}
		Timer_OBJ[i].RunRequiered=0;
    3c38:	ce 01       	movw	r24, r28
    3c3a:	67 e0       	ldi	r22, 0x07	; 7
    3c3c:	70 e0       	ldi	r23, 0x00	; 0
    3c3e:	77 d0       	rcall	.+238    	; 0x3d2e <__mulhi3>
    3c40:	8c 5f       	subi	r24, 0xFC	; 252
    3c42:	9e 4f       	sbci	r25, 0xFE	; 254
    3c44:	fc 01       	movw	r30, r24
    3c46:	14 82       	std	Z+4, r1	; 0x04
    3c48:	21 96       	adiw	r28, 0x01	; 1
    3c4a:	09 5f       	subi	r16, 0xF9	; 249
    3c4c:	1f 4f       	sbci	r17, 0xFF	; 255

void voScheduler( ) {

uint8_t u8NoOfTimer= (sizeof(Timer_OBJ)/sizeof(TIMEROBJ_t));

for(uint8_t i=0;i<u8NoOfTimer;i++){
    3c4e:	c5 30       	cpi	r28, 0x05	; 5
    3c50:	d1 05       	cpc	r29, r1
    3c52:	f1 f6       	brne	.-68     	; 0x3c10 <voScheduler+0x10>

/* This is the run always part for the USB Stack */
voUSB_Task();
		
	
}
    3c54:	df 91       	pop	r29
    3c56:	cf 91       	pop	r28
    3c58:	1f 91       	pop	r17
		Timer_OBJ[i].RunRequiered=0;
	}
}

/* This is the run always part for the USB Stack */
voUSB_Task();
    3c5a:	0f 91       	pop	r16
    3c5c:	93 cf       	rjmp	.-218    	; 0x3b84 <voUSB_Task>

00003c5e <SetupHardware>:
/** Configures the board hardware and chip peripherals for the demo's functionality. */
void SetupHardware(void)
{
#if (ARCH == ARCH_AVR8)
	/* Disable watchdog if enabled by bootloader/fuses */
	MCUSR &= ~(1 << WDRF);
    3c5e:	84 b7       	in	r24, 0x34	; 52
    3c60:	87 7f       	andi	r24, 0xF7	; 247
    3c62:	84 bf       	out	0x34, r24	; 52
		);
	}
	else
	{
        uint8_t register temp_reg;
		__asm__ __volatile__ (
    3c64:	0f b6       	in	r0, 0x3f	; 63
    3c66:	f8 94       	cli
    3c68:	a8 95       	wdr
    3c6a:	80 91 60 00 	lds	r24, 0x0060	; 0x800060 <__DATA_REGION_ORIGIN__>
    3c6e:	88 61       	ori	r24, 0x18	; 24
    3c70:	80 93 60 00 	sts	0x0060, r24	; 0x800060 <__DATA_REGION_ORIGIN__>
    3c74:	10 92 60 00 	sts	0x0060, r1	; 0x800060 <__DATA_REGION_ORIGIN__>
    3c78:	0f be       	out	0x3f, r0	; 63
from 1 to 129. Thus, one does not need to use \c clock_div_t type as argument.
*/
void clock_prescale_set(clock_div_t __x)
{
    uint8_t __tmp = _BV(CLKPCE);
    __asm__ __volatile__ (
    3c7a:	90 e0       	ldi	r25, 0x00	; 0
    3c7c:	80 e8       	ldi	r24, 0x80	; 128
    3c7e:	0f b6       	in	r0, 0x3f	; 63
    3c80:	f8 94       	cli
    3c82:	80 93 61 00 	sts	0x0061, r24	; 0x800061 <__DATA_REGION_ORIGIN__+0x1>
    3c86:	90 93 61 00 	sts	0x0061, r25	; 0x800061 <__DATA_REGION_ORIGIN__+0x1>
    3c8a:	0f be       	out	0x3f, r0	; 63
#elif (ARCH == ARCH_XMEGA)
	#error "ARCH NOT SUPPORTED BY COFFEE MAKER MKI"
#endif

	/* Hardware Initialization */
	USB_Init();
    3c8c:	fa dc       	rcall	.-1548   	; 0x3682 <USB_Init>
	
	GPIO_Init();
    3c8e:	0e 94 67 05 	call	0xace	; 0xace <GPIO_Init>
	voSetPumpPowerState(POWER_OFF);
    3c92:	81 e0       	ldi	r24, 0x01	; 1
    3c94:	0e 94 ee 05 	call	0xbdc	; 0xbdc <voSetPumpPowerState>
	voSetHeaterPowerState(POWER_OFF);
    3c98:	81 e0       	ldi	r24, 0x01	; 1
    3c9a:	0e 94 df 05 	call	0xbbe	; 0xbbe <voSetHeaterPowerState>
	
	voSetLedState(0,LED_OFF);
    3c9e:	61 e0       	ldi	r22, 0x01	; 1
    3ca0:	80 e0       	ldi	r24, 0x00	; 0
    3ca2:	0e 94 7c 05 	call	0xaf8	; 0xaf8 <voSetLedState>
	voSetLedState(1,LED_OFF);
    3ca6:	61 e0       	ldi	r22, 0x01	; 1
    3ca8:	81 e0       	ldi	r24, 0x01	; 1
    3caa:	0e 94 7c 05 	call	0xaf8	; 0xaf8 <voSetLedState>
	voSetLedState(2,LED_OFF);
    3cae:	61 e0       	ldi	r22, 0x01	; 1
    3cb0:	82 e0       	ldi	r24, 0x02	; 2
    3cb2:	0e 94 7c 05 	call	0xaf8	; 0xaf8 <voSetLedState>
	
	
	voMCP3202_Init();
    3cb6:	0c 94 f8 05 	jmp	0xbf0	; 0xbf0 <voMCP3202_Init>

00003cba <main>:
/** Main program entry point. This routine contains the overall program flow, including initial
 *  setup of all components and the main program loop.
 */
int main(void)
{
	SetupHardware();
    3cba:	d1 df       	rcall	.-94     	; 0x3c5e <SetupHardware>
	voEEFS_Init();
    3cbc:	0e 94 23 15 	call	0x2a46	; 0x2a46 <voEEFS_Init>
	/* Create a regular character stream for the interface so that it can be used with the stdio.h functions */
	CDC_Device_CreateStream(&VirtualSerial_CDC_Interface, &USBSerialStream);
    3cc0:	6f eb       	ldi	r22, 0xBF	; 191
    3cc2:	72 e0       	ldi	r23, 0x02	; 2
    3cc4:	87 e2       	ldi	r24, 0x27	; 39
    3cc6:	91 e0       	ldi	r25, 0x01	; 1
    3cc8:	62 da       	rcall	.-2876   	; 0x318e <CDC_Device_CreateStream>
			static inline void GlobalInterruptEnable(void)
			{
				GCC_MEMORY_BARRIER();

				#if (ARCH == ARCH_AVR8)
				sei();
    3cca:	78 94       	sei
	GlobalInterruptEnable();
	voInit_HwTimer();
    3ccc:	0e 94 72 07 	call	0xee4	; 0xee4 <voInit_HwTimer>
	
	/* Service init */
	voBLTMP_InitBoilerTemp();
    3cd0:	0e 94 23 08 	call	0x1046	; 0x1046 <voBLTMP_InitBoilerTemp>
	voPWRMTR_InitPowermeter();
    3cd4:	2b d8       	rcall	.-4010   	; 0x2d2c <voPWRMTR_InitPowermeter>
	
	/* Setup the Tasks */
	voHPC_TaskInit();
    3cd6:	0e 94 df 15 	call	0x2bbe	; 0x2bbe <voHPC_TaskInit>
	voHMon_Init();
    3cda:	0e 94 87 15 	call	0x2b0e	; 0x2b0e <voHMon_Init>
	voKeyEvent_TaskInit();
    3cde:	0e 94 46 08 	call	0x108c	; 0x108c <voKeyEvent_TaskInit>
	voPSE_TaskInit();
    3ce2:	8b d8       	rcall	.-3818   	; 0x2dfa <voPSE_TaskInit>
	voCoffeeFSM_TaskInit();
    3ce4:	0e 94 fd 08 	call	0x11fa	; 0x11fa <voCoffeeFSM_TaskInit>
	voBTC_TaskInit();
    3ce8:	0e 94 02 08 	call	0x1004	; 0x1004 <voBTC_TaskInit>
	voTMS_InitTask();
    3cec:	bd d8       	rcall	.-3718   	; 0x2e68 <voTMS_InitTask>
	
	LLS_voInitTask();
    3cee:	0e 94 ee 15 	call	0x2bdc	; 0x2bdc <LLS_voInitTask>
	DPS_Init();
    3cf2:	0e 94 34 12 	call	0x2468	; 0x2468 <DPS_Init>
	i2c_init();
    3cf6:	0e 94 dc 04 	call	0x9b8	; 0x9b8 <i2c_init>
	CMDI_voInit();
    3cfa:	0e 94 b0 0c 	call	0x1960	; 0x1960 <CMDI_voInit>
	
	

	
	boCoffeeFSM_LoadProgramm(0);
    3cfe:	80 e0       	ldi	r24, 0x00	; 0
    3d00:	0e 94 00 09 	call	0x1200	; 0x1200 <boCoffeeFSM_LoadProgramm>
	voCoffeeFSM_LoadSystemSettings();
    3d04:	0e 94 38 09 	call	0x1270	; 0x1270 <voCoffeeFSM_LoadSystemSettings>
	while( 1==1 ) 
	{
		
		voScheduler();
    3d08:	7b df       	rcall	.-266    	; 0x3c00 <voScheduler>
		voUSB_Task();
    3d0a:	3c df       	rcall	.-392    	; 0x3b84 <voUSB_Task>
    3d0c:	0e 94 1e 12 	call	0x243c	; 0x243c <CMDI_voTask>
		CMDI_voTask();
    3d10:	fb cf       	rjmp	.-10     	; 0x3d08 <main+0x4e>

00003d12 <EVENT_USB_Device_Connect>:
    3d12:	81 e0       	ldi	r24, 0x01	; 1
}

/** Event handler for the library USB Connection event. */
void EVENT_USB_Device_Connect(void)
{
	connected=1;
    3d14:	80 93 4b 02 	sts	0x024B, r24	; 0x80024b <connected>
    3d18:	08 95       	ret

00003d1a <EVENT_USB_Device_Disconnect>:
}

/** Event handler for the library USB Disconnection event. */
void EVENT_USB_Device_Disconnect(void)
{
	connected=0;
    3d1a:	10 92 4b 02 	sts	0x024B, r1	; 0x80024b <connected>
    3d1e:	08 95       	ret

00003d20 <EVENT_USB_Device_ConfigurationChanged>:
/** Event handler for the library USB Configuration Changed event. */
void EVENT_USB_Device_ConfigurationChanged(void)
{
	bool ConfigSuccess = true;

	ConfigSuccess &= CDC_Device_ConfigureEndpoints(&VirtualSerial_CDC_Interface);
    3d20:	87 e2       	ldi	r24, 0x27	; 39
    3d22:	91 e0       	ldi	r25, 0x01	; 1
    3d24:	5e c9       	rjmp	.-3396   	; 0x2fe2 <CDC_Device_ConfigureEndpoints>

00003d26 <EVENT_USB_Device_ControlRequest>:
}

/** Event handler for the library USB Control Request reception event. */
void EVENT_USB_Device_ControlRequest(void)
{
	CDC_Device_ProcessControlRequest(&VirtualSerial_CDC_Interface);
    3d26:	87 e2       	ldi	r24, 0x27	; 39
    3d28:	91 e0       	ldi	r25, 0x01	; 1
    3d2a:	45 ca       	rjmp	.-2934   	; 0x31b6 <CDC_Device_ProcessControlRequest>

00003d2c <EVENT_CDC_Device_ControLineStateChanged>:
 *  control lines sent from the host..
 *
 *  \param[in] CDCInterfaceInfo  Pointer to the CDC class interface configuration structure being referenced
 */
void EVENT_CDC_Device_ControLineStateChanged(USB_ClassInfo_CDC_Device_t *const CDCInterfaceInfo)
{
    3d2c:	08 95       	ret

00003d2e <__mulhi3>:
    3d2e:	00 24       	eor	r0, r0
    3d30:	55 27       	eor	r21, r21
    3d32:	04 c0       	rjmp	.+8      	; 0x3d3c <__mulhi3+0xe>
    3d34:	08 0e       	add	r0, r24
    3d36:	59 1f       	adc	r21, r25
    3d38:	88 0f       	add	r24, r24
    3d3a:	99 1f       	adc	r25, r25
    3d3c:	00 97       	sbiw	r24, 0x00	; 0
    3d3e:	29 f0       	breq	.+10     	; 0x3d4a <__mulhi3+0x1c>
    3d40:	76 95       	lsr	r23
    3d42:	67 95       	ror	r22
    3d44:	b8 f3       	brcs	.-18     	; 0x3d34 <__mulhi3+0x6>
    3d46:	71 05       	cpc	r23, r1
    3d48:	b9 f7       	brne	.-18     	; 0x3d38 <__mulhi3+0xa>
    3d4a:	80 2d       	mov	r24, r0
    3d4c:	95 2f       	mov	r25, r21
    3d4e:	08 95       	ret

00003d50 <__mulsi3>:
    3d50:	ee 27       	eor	r30, r30
    3d52:	ff 27       	eor	r31, r31

00003d54 <__mulsi3_helper>:
    3d54:	aa 27       	eor	r26, r26
    3d56:	bb 27       	eor	r27, r27
    3d58:	08 c0       	rjmp	.+16     	; 0x3d6a <__mulsi3_helper+0x16>
    3d5a:	a2 0f       	add	r26, r18
    3d5c:	b3 1f       	adc	r27, r19
    3d5e:	e4 1f       	adc	r30, r20
    3d60:	f5 1f       	adc	r31, r21
    3d62:	22 0f       	add	r18, r18
    3d64:	33 1f       	adc	r19, r19
    3d66:	44 1f       	adc	r20, r20
    3d68:	55 1f       	adc	r21, r21
    3d6a:	96 95       	lsr	r25
    3d6c:	87 95       	ror	r24
    3d6e:	77 95       	ror	r23
    3d70:	67 95       	ror	r22
    3d72:	98 f3       	brcs	.-26     	; 0x3d5a <__mulsi3_helper+0x6>
    3d74:	70 40       	sbci	r23, 0x00	; 0
    3d76:	a9 f7       	brne	.-22     	; 0x3d62 <__mulsi3_helper+0xe>
    3d78:	00 97       	sbiw	r24, 0x00	; 0
    3d7a:	99 f7       	brne	.-26     	; 0x3d62 <__mulsi3_helper+0xe>
    3d7c:	bd 01       	movw	r22, r26
    3d7e:	cf 01       	movw	r24, r30
    3d80:	08 95       	ret

00003d82 <__udivmodhi4>:
    3d82:	aa 1b       	sub	r26, r26
    3d84:	bb 1b       	sub	r27, r27
    3d86:	51 e1       	ldi	r21, 0x11	; 17
    3d88:	07 c0       	rjmp	.+14     	; 0x3d98 <__udivmodhi4_ep>

00003d8a <__udivmodhi4_loop>:
    3d8a:	aa 1f       	adc	r26, r26
    3d8c:	bb 1f       	adc	r27, r27
    3d8e:	a6 17       	cp	r26, r22
    3d90:	b7 07       	cpc	r27, r23
    3d92:	10 f0       	brcs	.+4      	; 0x3d98 <__udivmodhi4_ep>
    3d94:	a6 1b       	sub	r26, r22
    3d96:	b7 0b       	sbc	r27, r23

00003d98 <__udivmodhi4_ep>:
    3d98:	88 1f       	adc	r24, r24
    3d9a:	99 1f       	adc	r25, r25
    3d9c:	5a 95       	dec	r21
    3d9e:	a9 f7       	brne	.-22     	; 0x3d8a <__udivmodhi4_loop>
    3da0:	80 95       	com	r24
    3da2:	90 95       	com	r25
    3da4:	bc 01       	movw	r22, r24
    3da6:	cd 01       	movw	r24, r26
    3da8:	08 95       	ret

00003daa <__udivmodsi4>:
    3daa:	a1 e2       	ldi	r26, 0x21	; 33
    3dac:	1a 2e       	mov	r1, r26
    3dae:	aa 1b       	sub	r26, r26
    3db0:	bb 1b       	sub	r27, r27
    3db2:	fd 01       	movw	r30, r26
    3db4:	0d c0       	rjmp	.+26     	; 0x3dd0 <__udivmodsi4_ep>

00003db6 <__udivmodsi4_loop>:
    3db6:	aa 1f       	adc	r26, r26
    3db8:	bb 1f       	adc	r27, r27
    3dba:	ee 1f       	adc	r30, r30
    3dbc:	ff 1f       	adc	r31, r31
    3dbe:	a2 17       	cp	r26, r18
    3dc0:	b3 07       	cpc	r27, r19
    3dc2:	e4 07       	cpc	r30, r20
    3dc4:	f5 07       	cpc	r31, r21
    3dc6:	20 f0       	brcs	.+8      	; 0x3dd0 <__udivmodsi4_ep>
    3dc8:	a2 1b       	sub	r26, r18
    3dca:	b3 0b       	sbc	r27, r19
    3dcc:	e4 0b       	sbc	r30, r20
    3dce:	f5 0b       	sbc	r31, r21

00003dd0 <__udivmodsi4_ep>:
    3dd0:	66 1f       	adc	r22, r22
    3dd2:	77 1f       	adc	r23, r23
    3dd4:	88 1f       	adc	r24, r24
    3dd6:	99 1f       	adc	r25, r25
    3dd8:	1a 94       	dec	r1
    3dda:	69 f7       	brne	.-38     	; 0x3db6 <__udivmodsi4_loop>
    3ddc:	60 95       	com	r22
    3dde:	70 95       	com	r23
    3de0:	80 95       	com	r24
    3de2:	90 95       	com	r25
    3de4:	9b 01       	movw	r18, r22
    3de6:	ac 01       	movw	r20, r24
    3de8:	bd 01       	movw	r22, r26
    3dea:	cf 01       	movw	r24, r30
    3dec:	08 95       	ret

00003dee <__divmodsi4>:
    3dee:	05 2e       	mov	r0, r21
    3df0:	97 fb       	bst	r25, 7
    3df2:	16 f4       	brtc	.+4      	; 0x3df8 <__divmodsi4+0xa>
    3df4:	00 94       	com	r0
    3df6:	0f d0       	rcall	.+30     	; 0x3e16 <__negsi2>
    3df8:	57 fd       	sbrc	r21, 7
    3dfa:	05 d0       	rcall	.+10     	; 0x3e06 <__divmodsi4_neg2>
    3dfc:	d6 df       	rcall	.-84     	; 0x3daa <__udivmodsi4>
    3dfe:	07 fc       	sbrc	r0, 7
    3e00:	02 d0       	rcall	.+4      	; 0x3e06 <__divmodsi4_neg2>
    3e02:	46 f4       	brtc	.+16     	; 0x3e14 <__divmodsi4_exit>
    3e04:	08 c0       	rjmp	.+16     	; 0x3e16 <__negsi2>

00003e06 <__divmodsi4_neg2>:
    3e06:	50 95       	com	r21
    3e08:	40 95       	com	r20
    3e0a:	30 95       	com	r19
    3e0c:	21 95       	neg	r18
    3e0e:	3f 4f       	sbci	r19, 0xFF	; 255
    3e10:	4f 4f       	sbci	r20, 0xFF	; 255
    3e12:	5f 4f       	sbci	r21, 0xFF	; 255

00003e14 <__divmodsi4_exit>:
    3e14:	08 95       	ret

00003e16 <__negsi2>:
    3e16:	90 95       	com	r25
    3e18:	80 95       	com	r24
    3e1a:	70 95       	com	r23
    3e1c:	61 95       	neg	r22
    3e1e:	7f 4f       	sbci	r23, 0xFF	; 255
    3e20:	8f 4f       	sbci	r24, 0xFF	; 255
    3e22:	9f 4f       	sbci	r25, 0xFF	; 255
    3e24:	08 95       	ret

00003e26 <strcmp_P>:
    3e26:	fb 01       	movw	r30, r22
    3e28:	dc 01       	movw	r26, r24
    3e2a:	8d 91       	ld	r24, X+
    3e2c:	05 90       	lpm	r0, Z+
    3e2e:	80 19       	sub	r24, r0
    3e30:	01 10       	cpse	r0, r1
    3e32:	d9 f3       	breq	.-10     	; 0x3e2a <strcmp_P+0x4>
    3e34:	99 0b       	sbc	r25, r25
    3e36:	08 95       	ret

00003e38 <fprintf>:
    3e38:	a0 e0       	ldi	r26, 0x00	; 0
    3e3a:	b0 e0       	ldi	r27, 0x00	; 0
    3e3c:	e1 e2       	ldi	r30, 0x21	; 33
    3e3e:	ff e1       	ldi	r31, 0x1F	; 31
    3e40:	07 c3       	rjmp	.+1550   	; 0x4450 <__prologue_saves__+0x20>
    3e42:	ae 01       	movw	r20, r28
    3e44:	47 5f       	subi	r20, 0xF7	; 247
    3e46:	5f 4f       	sbci	r21, 0xFF	; 255
    3e48:	6f 81       	ldd	r22, Y+7	; 0x07
    3e4a:	78 85       	ldd	r23, Y+8	; 0x08
    3e4c:	8d 81       	ldd	r24, Y+5	; 0x05
    3e4e:	9e 81       	ldd	r25, Y+6	; 0x06
    3e50:	43 d0       	rcall	.+134    	; 0x3ed8 <vfprintf>
    3e52:	e2 e0       	ldi	r30, 0x02	; 2
    3e54:	19 c3       	rjmp	.+1586   	; 0x4488 <__epilogue_restores__+0x20>

00003e56 <fprintf_P>:
    3e56:	a0 e0       	ldi	r26, 0x00	; 0
    3e58:	b0 e0       	ldi	r27, 0x00	; 0
    3e5a:	e0 e3       	ldi	r30, 0x30	; 48
    3e5c:	ff e1       	ldi	r31, 0x1F	; 31
    3e5e:	f6 c2       	rjmp	.+1516   	; 0x444c <__prologue_saves__+0x1c>
    3e60:	0f 81       	ldd	r16, Y+7	; 0x07
    3e62:	18 85       	ldd	r17, Y+8	; 0x08
    3e64:	f8 01       	movw	r30, r16
    3e66:	83 81       	ldd	r24, Z+3	; 0x03
    3e68:	88 60       	ori	r24, 0x08	; 8
    3e6a:	83 83       	std	Z+3, r24	; 0x03
    3e6c:	ae 01       	movw	r20, r28
    3e6e:	45 5f       	subi	r20, 0xF5	; 245
    3e70:	5f 4f       	sbci	r21, 0xFF	; 255
    3e72:	69 85       	ldd	r22, Y+9	; 0x09
    3e74:	7a 85       	ldd	r23, Y+10	; 0x0a
    3e76:	c8 01       	movw	r24, r16
    3e78:	2f d0       	rcall	.+94     	; 0x3ed8 <vfprintf>
    3e7a:	f8 01       	movw	r30, r16
    3e7c:	23 81       	ldd	r18, Z+3	; 0x03
    3e7e:	27 7f       	andi	r18, 0xF7	; 247
    3e80:	23 83       	std	Z+3, r18	; 0x03
    3e82:	e4 e0       	ldi	r30, 0x04	; 4
    3e84:	ff c2       	rjmp	.+1534   	; 0x4484 <__epilogue_restores__+0x1c>

00003e86 <fputs>:
    3e86:	ef 92       	push	r14
    3e88:	ff 92       	push	r15
    3e8a:	0f 93       	push	r16
    3e8c:	1f 93       	push	r17
    3e8e:	cf 93       	push	r28
    3e90:	df 93       	push	r29
    3e92:	db 01       	movw	r26, r22
    3e94:	13 96       	adiw	r26, 0x03	; 3
    3e96:	2c 91       	ld	r18, X
    3e98:	21 ff       	sbrs	r18, 1
    3e9a:	18 c0       	rjmp	.+48     	; 0x3ecc <fputs+0x46>
    3e9c:	8b 01       	movw	r16, r22
    3e9e:	7c 01       	movw	r14, r24
    3ea0:	d0 e0       	ldi	r29, 0x00	; 0
    3ea2:	c0 e0       	ldi	r28, 0x00	; 0
    3ea4:	f7 01       	movw	r30, r14
    3ea6:	81 91       	ld	r24, Z+
    3ea8:	7f 01       	movw	r14, r30
    3eaa:	88 23       	and	r24, r24
    3eac:	61 f0       	breq	.+24     	; 0x3ec6 <fputs+0x40>
    3eae:	d8 01       	movw	r26, r16
    3eb0:	18 96       	adiw	r26, 0x08	; 8
    3eb2:	ed 91       	ld	r30, X+
    3eb4:	fc 91       	ld	r31, X
    3eb6:	19 97       	sbiw	r26, 0x09	; 9
    3eb8:	b8 01       	movw	r22, r16
    3eba:	09 95       	icall
    3ebc:	89 2b       	or	r24, r25
    3ebe:	91 f3       	breq	.-28     	; 0x3ea4 <fputs+0x1e>
    3ec0:	df ef       	ldi	r29, 0xFF	; 255
    3ec2:	cf ef       	ldi	r28, 0xFF	; 255
    3ec4:	ef cf       	rjmp	.-34     	; 0x3ea4 <fputs+0x1e>
    3ec6:	8d 2f       	mov	r24, r29
    3ec8:	9c 2f       	mov	r25, r28
    3eca:	02 c0       	rjmp	.+4      	; 0x3ed0 <fputs+0x4a>
    3ecc:	8f ef       	ldi	r24, 0xFF	; 255
    3ece:	9f ef       	ldi	r25, 0xFF	; 255
    3ed0:	cd b7       	in	r28, 0x3d	; 61
    3ed2:	de b7       	in	r29, 0x3e	; 62
    3ed4:	e6 e0       	ldi	r30, 0x06	; 6
    3ed6:	d4 c2       	rjmp	.+1448   	; 0x4480 <__epilogue_restores__+0x18>

00003ed8 <vfprintf>:
    3ed8:	ab e0       	ldi	r26, 0x0B	; 11
    3eda:	b0 e0       	ldi	r27, 0x00	; 0
    3edc:	e1 e7       	ldi	r30, 0x71	; 113
    3ede:	ff e1       	ldi	r31, 0x1F	; 31
    3ee0:	a7 c2       	rjmp	.+1358   	; 0x4430 <__prologue_saves__>
    3ee2:	6c 01       	movw	r12, r24
    3ee4:	7b 01       	movw	r14, r22
    3ee6:	8a 01       	movw	r16, r20
    3ee8:	fc 01       	movw	r30, r24
    3eea:	17 82       	std	Z+7, r1	; 0x07
    3eec:	16 82       	std	Z+6, r1	; 0x06
    3eee:	83 81       	ldd	r24, Z+3	; 0x03
    3ef0:	81 ff       	sbrs	r24, 1
    3ef2:	c0 c1       	rjmp	.+896    	; 0x4274 <vfprintf+0x39c>
    3ef4:	ce 01       	movw	r24, r28
    3ef6:	01 96       	adiw	r24, 0x01	; 1
    3ef8:	3c 01       	movw	r6, r24
    3efa:	f6 01       	movw	r30, r12
    3efc:	93 81       	ldd	r25, Z+3	; 0x03
    3efe:	f7 01       	movw	r30, r14
    3f00:	93 fd       	sbrc	r25, 3
    3f02:	85 91       	lpm	r24, Z+
    3f04:	93 ff       	sbrs	r25, 3
    3f06:	81 91       	ld	r24, Z+
    3f08:	7f 01       	movw	r14, r30
    3f0a:	88 23       	and	r24, r24
    3f0c:	09 f4       	brne	.+2      	; 0x3f10 <vfprintf+0x38>
    3f0e:	ae c1       	rjmp	.+860    	; 0x426c <vfprintf+0x394>
    3f10:	85 32       	cpi	r24, 0x25	; 37
    3f12:	39 f4       	brne	.+14     	; 0x3f22 <vfprintf+0x4a>
    3f14:	93 fd       	sbrc	r25, 3
    3f16:	85 91       	lpm	r24, Z+
    3f18:	93 ff       	sbrs	r25, 3
    3f1a:	81 91       	ld	r24, Z+
    3f1c:	7f 01       	movw	r14, r30
    3f1e:	85 32       	cpi	r24, 0x25	; 37
    3f20:	21 f4       	brne	.+8      	; 0x3f2a <vfprintf+0x52>
    3f22:	b6 01       	movw	r22, r12
    3f24:	90 e0       	ldi	r25, 0x00	; 0
    3f26:	c1 d1       	rcall	.+898    	; 0x42aa <fputc>
    3f28:	e8 cf       	rjmp	.-48     	; 0x3efa <vfprintf+0x22>
    3f2a:	91 2c       	mov	r9, r1
    3f2c:	21 2c       	mov	r2, r1
    3f2e:	31 2c       	mov	r3, r1
    3f30:	ff e1       	ldi	r31, 0x1F	; 31
    3f32:	f3 15       	cp	r31, r3
    3f34:	e0 f0       	brcs	.+56     	; 0x3f6e <vfprintf+0x96>
    3f36:	8b 32       	cpi	r24, 0x2B	; 43
    3f38:	79 f0       	breq	.+30     	; 0x3f58 <vfprintf+0x80>
    3f3a:	38 f4       	brcc	.+14     	; 0x3f4a <vfprintf+0x72>
    3f3c:	80 32       	cpi	r24, 0x20	; 32
    3f3e:	79 f0       	breq	.+30     	; 0x3f5e <vfprintf+0x86>
    3f40:	83 32       	cpi	r24, 0x23	; 35
    3f42:	a9 f4       	brne	.+42     	; 0x3f6e <vfprintf+0x96>
    3f44:	23 2d       	mov	r18, r3
    3f46:	20 61       	ori	r18, 0x10	; 16
    3f48:	10 c0       	rjmp	.+32     	; 0x3f6a <vfprintf+0x92>
    3f4a:	8d 32       	cpi	r24, 0x2D	; 45
    3f4c:	59 f0       	breq	.+22     	; 0x3f64 <vfprintf+0x8c>
    3f4e:	80 33       	cpi	r24, 0x30	; 48
    3f50:	71 f4       	brne	.+28     	; 0x3f6e <vfprintf+0x96>
    3f52:	23 2d       	mov	r18, r3
    3f54:	21 60       	ori	r18, 0x01	; 1
    3f56:	09 c0       	rjmp	.+18     	; 0x3f6a <vfprintf+0x92>
    3f58:	83 2d       	mov	r24, r3
    3f5a:	82 60       	ori	r24, 0x02	; 2
    3f5c:	38 2e       	mov	r3, r24
    3f5e:	e3 2d       	mov	r30, r3
    3f60:	e4 60       	ori	r30, 0x04	; 4
    3f62:	22 c0       	rjmp	.+68     	; 0x3fa8 <vfprintf+0xd0>
    3f64:	f3 2d       	mov	r31, r3
    3f66:	f8 60       	ori	r31, 0x08	; 8
    3f68:	25 c0       	rjmp	.+74     	; 0x3fb4 <vfprintf+0xdc>
    3f6a:	32 2e       	mov	r3, r18
    3f6c:	27 c0       	rjmp	.+78     	; 0x3fbc <vfprintf+0xe4>
    3f6e:	37 fc       	sbrc	r3, 7
    3f70:	2d c0       	rjmp	.+90     	; 0x3fcc <vfprintf+0xf4>
    3f72:	20 ed       	ldi	r18, 0xD0	; 208
    3f74:	28 0f       	add	r18, r24
    3f76:	2a 30       	cpi	r18, 0x0A	; 10
    3f78:	88 f4       	brcc	.+34     	; 0x3f9c <vfprintf+0xc4>
    3f7a:	36 fe       	sbrs	r3, 6
    3f7c:	06 c0       	rjmp	.+12     	; 0x3f8a <vfprintf+0xb2>
    3f7e:	89 2d       	mov	r24, r9
    3f80:	6a e0       	ldi	r22, 0x0A	; 10
    3f82:	4d d2       	rcall	.+1178   	; 0x441e <__mulqi3>
    3f84:	92 2e       	mov	r9, r18
    3f86:	98 0e       	add	r9, r24
    3f88:	19 c0       	rjmp	.+50     	; 0x3fbc <vfprintf+0xe4>
    3f8a:	82 2d       	mov	r24, r2
    3f8c:	6a e0       	ldi	r22, 0x0A	; 10
    3f8e:	47 d2       	rcall	.+1166   	; 0x441e <__mulqi3>
    3f90:	22 2e       	mov	r2, r18
    3f92:	28 0e       	add	r2, r24
    3f94:	83 2d       	mov	r24, r3
    3f96:	80 62       	ori	r24, 0x20	; 32
    3f98:	38 2e       	mov	r3, r24
    3f9a:	10 c0       	rjmp	.+32     	; 0x3fbc <vfprintf+0xe4>
    3f9c:	8e 32       	cpi	r24, 0x2E	; 46
    3f9e:	31 f4       	brne	.+12     	; 0x3fac <vfprintf+0xd4>
    3fa0:	36 fc       	sbrc	r3, 6
    3fa2:	64 c1       	rjmp	.+712    	; 0x426c <vfprintf+0x394>
    3fa4:	e3 2d       	mov	r30, r3
    3fa6:	e0 64       	ori	r30, 0x40	; 64
    3fa8:	3e 2e       	mov	r3, r30
    3faa:	08 c0       	rjmp	.+16     	; 0x3fbc <vfprintf+0xe4>
    3fac:	8c 36       	cpi	r24, 0x6C	; 108
    3fae:	21 f4       	brne	.+8      	; 0x3fb8 <vfprintf+0xe0>
    3fb0:	f3 2d       	mov	r31, r3
    3fb2:	f0 68       	ori	r31, 0x80	; 128
    3fb4:	3f 2e       	mov	r3, r31
    3fb6:	02 c0       	rjmp	.+4      	; 0x3fbc <vfprintf+0xe4>
    3fb8:	88 36       	cpi	r24, 0x68	; 104
    3fba:	41 f4       	brne	.+16     	; 0x3fcc <vfprintf+0xf4>
    3fbc:	f7 01       	movw	r30, r14
    3fbe:	93 fd       	sbrc	r25, 3
    3fc0:	85 91       	lpm	r24, Z+
    3fc2:	93 ff       	sbrs	r25, 3
    3fc4:	81 91       	ld	r24, Z+
    3fc6:	7f 01       	movw	r14, r30
    3fc8:	81 11       	cpse	r24, r1
    3fca:	b2 cf       	rjmp	.-156    	; 0x3f30 <vfprintf+0x58>
    3fcc:	98 2f       	mov	r25, r24
    3fce:	9f 7d       	andi	r25, 0xDF	; 223
    3fd0:	95 54       	subi	r25, 0x45	; 69
    3fd2:	93 30       	cpi	r25, 0x03	; 3
    3fd4:	28 f4       	brcc	.+10     	; 0x3fe0 <vfprintf+0x108>
    3fd6:	0c 5f       	subi	r16, 0xFC	; 252
    3fd8:	1f 4f       	sbci	r17, 0xFF	; 255
    3fda:	2f e3       	ldi	r18, 0x3F	; 63
    3fdc:	29 83       	std	Y+1, r18	; 0x01
    3fde:	0d c0       	rjmp	.+26     	; 0x3ffa <vfprintf+0x122>
    3fe0:	83 36       	cpi	r24, 0x63	; 99
    3fe2:	31 f0       	breq	.+12     	; 0x3ff0 <vfprintf+0x118>
    3fe4:	83 37       	cpi	r24, 0x73	; 115
    3fe6:	71 f0       	breq	.+28     	; 0x4004 <vfprintf+0x12c>
    3fe8:	83 35       	cpi	r24, 0x53	; 83
    3fea:	09 f0       	breq	.+2      	; 0x3fee <vfprintf+0x116>
    3fec:	55 c0       	rjmp	.+170    	; 0x4098 <vfprintf+0x1c0>
    3fee:	20 c0       	rjmp	.+64     	; 0x4030 <vfprintf+0x158>
    3ff0:	f8 01       	movw	r30, r16
    3ff2:	80 81       	ld	r24, Z
    3ff4:	89 83       	std	Y+1, r24	; 0x01
    3ff6:	0e 5f       	subi	r16, 0xFE	; 254
    3ff8:	1f 4f       	sbci	r17, 0xFF	; 255
    3ffa:	88 24       	eor	r8, r8
    3ffc:	83 94       	inc	r8
    3ffe:	91 2c       	mov	r9, r1
    4000:	53 01       	movw	r10, r6
    4002:	12 c0       	rjmp	.+36     	; 0x4028 <vfprintf+0x150>
    4004:	28 01       	movw	r4, r16
    4006:	f2 e0       	ldi	r31, 0x02	; 2
    4008:	4f 0e       	add	r4, r31
    400a:	51 1c       	adc	r5, r1
    400c:	f8 01       	movw	r30, r16
    400e:	a0 80       	ld	r10, Z
    4010:	b1 80       	ldd	r11, Z+1	; 0x01
    4012:	36 fe       	sbrs	r3, 6
    4014:	03 c0       	rjmp	.+6      	; 0x401c <vfprintf+0x144>
    4016:	69 2d       	mov	r22, r9
    4018:	70 e0       	ldi	r23, 0x00	; 0
    401a:	02 c0       	rjmp	.+4      	; 0x4020 <vfprintf+0x148>
    401c:	6f ef       	ldi	r22, 0xFF	; 255
    401e:	7f ef       	ldi	r23, 0xFF	; 255
    4020:	c5 01       	movw	r24, r10
    4022:	38 d1       	rcall	.+624    	; 0x4294 <strnlen>
    4024:	4c 01       	movw	r8, r24
    4026:	82 01       	movw	r16, r4
    4028:	f3 2d       	mov	r31, r3
    402a:	ff 77       	andi	r31, 0x7F	; 127
    402c:	3f 2e       	mov	r3, r31
    402e:	15 c0       	rjmp	.+42     	; 0x405a <vfprintf+0x182>
    4030:	28 01       	movw	r4, r16
    4032:	22 e0       	ldi	r18, 0x02	; 2
    4034:	42 0e       	add	r4, r18
    4036:	51 1c       	adc	r5, r1
    4038:	f8 01       	movw	r30, r16
    403a:	a0 80       	ld	r10, Z
    403c:	b1 80       	ldd	r11, Z+1	; 0x01
    403e:	36 fe       	sbrs	r3, 6
    4040:	03 c0       	rjmp	.+6      	; 0x4048 <vfprintf+0x170>
    4042:	69 2d       	mov	r22, r9
    4044:	70 e0       	ldi	r23, 0x00	; 0
    4046:	02 c0       	rjmp	.+4      	; 0x404c <vfprintf+0x174>
    4048:	6f ef       	ldi	r22, 0xFF	; 255
    404a:	7f ef       	ldi	r23, 0xFF	; 255
    404c:	c5 01       	movw	r24, r10
    404e:	17 d1       	rcall	.+558    	; 0x427e <strnlen_P>
    4050:	4c 01       	movw	r8, r24
    4052:	f3 2d       	mov	r31, r3
    4054:	f0 68       	ori	r31, 0x80	; 128
    4056:	3f 2e       	mov	r3, r31
    4058:	82 01       	movw	r16, r4
    405a:	33 fc       	sbrc	r3, 3
    405c:	19 c0       	rjmp	.+50     	; 0x4090 <vfprintf+0x1b8>
    405e:	82 2d       	mov	r24, r2
    4060:	90 e0       	ldi	r25, 0x00	; 0
    4062:	88 16       	cp	r8, r24
    4064:	99 06       	cpc	r9, r25
    4066:	a0 f4       	brcc	.+40     	; 0x4090 <vfprintf+0x1b8>
    4068:	b6 01       	movw	r22, r12
    406a:	80 e2       	ldi	r24, 0x20	; 32
    406c:	90 e0       	ldi	r25, 0x00	; 0
    406e:	1d d1       	rcall	.+570    	; 0x42aa <fputc>
    4070:	2a 94       	dec	r2
    4072:	f5 cf       	rjmp	.-22     	; 0x405e <vfprintf+0x186>
    4074:	f5 01       	movw	r30, r10
    4076:	37 fc       	sbrc	r3, 7
    4078:	85 91       	lpm	r24, Z+
    407a:	37 fe       	sbrs	r3, 7
    407c:	81 91       	ld	r24, Z+
    407e:	5f 01       	movw	r10, r30
    4080:	b6 01       	movw	r22, r12
    4082:	90 e0       	ldi	r25, 0x00	; 0
    4084:	12 d1       	rcall	.+548    	; 0x42aa <fputc>
    4086:	21 10       	cpse	r2, r1
    4088:	2a 94       	dec	r2
    408a:	21 e0       	ldi	r18, 0x01	; 1
    408c:	82 1a       	sub	r8, r18
    408e:	91 08       	sbc	r9, r1
    4090:	81 14       	cp	r8, r1
    4092:	91 04       	cpc	r9, r1
    4094:	79 f7       	brne	.-34     	; 0x4074 <vfprintf+0x19c>
    4096:	e1 c0       	rjmp	.+450    	; 0x425a <vfprintf+0x382>
    4098:	84 36       	cpi	r24, 0x64	; 100
    409a:	11 f0       	breq	.+4      	; 0x40a0 <vfprintf+0x1c8>
    409c:	89 36       	cpi	r24, 0x69	; 105
    409e:	39 f5       	brne	.+78     	; 0x40ee <vfprintf+0x216>
    40a0:	f8 01       	movw	r30, r16
    40a2:	37 fe       	sbrs	r3, 7
    40a4:	07 c0       	rjmp	.+14     	; 0x40b4 <vfprintf+0x1dc>
    40a6:	60 81       	ld	r22, Z
    40a8:	71 81       	ldd	r23, Z+1	; 0x01
    40aa:	82 81       	ldd	r24, Z+2	; 0x02
    40ac:	93 81       	ldd	r25, Z+3	; 0x03
    40ae:	0c 5f       	subi	r16, 0xFC	; 252
    40b0:	1f 4f       	sbci	r17, 0xFF	; 255
    40b2:	08 c0       	rjmp	.+16     	; 0x40c4 <vfprintf+0x1ec>
    40b4:	60 81       	ld	r22, Z
    40b6:	71 81       	ldd	r23, Z+1	; 0x01
    40b8:	07 2e       	mov	r0, r23
    40ba:	00 0c       	add	r0, r0
    40bc:	88 0b       	sbc	r24, r24
    40be:	99 0b       	sbc	r25, r25
    40c0:	0e 5f       	subi	r16, 0xFE	; 254
    40c2:	1f 4f       	sbci	r17, 0xFF	; 255
    40c4:	f3 2d       	mov	r31, r3
    40c6:	ff 76       	andi	r31, 0x6F	; 111
    40c8:	3f 2e       	mov	r3, r31
    40ca:	97 ff       	sbrs	r25, 7
    40cc:	09 c0       	rjmp	.+18     	; 0x40e0 <vfprintf+0x208>
    40ce:	90 95       	com	r25
    40d0:	80 95       	com	r24
    40d2:	70 95       	com	r23
    40d4:	61 95       	neg	r22
    40d6:	7f 4f       	sbci	r23, 0xFF	; 255
    40d8:	8f 4f       	sbci	r24, 0xFF	; 255
    40da:	9f 4f       	sbci	r25, 0xFF	; 255
    40dc:	f0 68       	ori	r31, 0x80	; 128
    40de:	3f 2e       	mov	r3, r31
    40e0:	2a e0       	ldi	r18, 0x0A	; 10
    40e2:	30 e0       	ldi	r19, 0x00	; 0
    40e4:	a3 01       	movw	r20, r6
    40e6:	1d d1       	rcall	.+570    	; 0x4322 <__ultoa_invert>
    40e8:	88 2e       	mov	r8, r24
    40ea:	86 18       	sub	r8, r6
    40ec:	44 c0       	rjmp	.+136    	; 0x4176 <vfprintf+0x29e>
    40ee:	85 37       	cpi	r24, 0x75	; 117
    40f0:	31 f4       	brne	.+12     	; 0x40fe <vfprintf+0x226>
    40f2:	23 2d       	mov	r18, r3
    40f4:	2f 7e       	andi	r18, 0xEF	; 239
    40f6:	b2 2e       	mov	r11, r18
    40f8:	2a e0       	ldi	r18, 0x0A	; 10
    40fa:	30 e0       	ldi	r19, 0x00	; 0
    40fc:	25 c0       	rjmp	.+74     	; 0x4148 <vfprintf+0x270>
    40fe:	93 2d       	mov	r25, r3
    4100:	99 7f       	andi	r25, 0xF9	; 249
    4102:	b9 2e       	mov	r11, r25
    4104:	8f 36       	cpi	r24, 0x6F	; 111
    4106:	c1 f0       	breq	.+48     	; 0x4138 <vfprintf+0x260>
    4108:	18 f4       	brcc	.+6      	; 0x4110 <vfprintf+0x238>
    410a:	88 35       	cpi	r24, 0x58	; 88
    410c:	79 f0       	breq	.+30     	; 0x412c <vfprintf+0x254>
    410e:	ae c0       	rjmp	.+348    	; 0x426c <vfprintf+0x394>
    4110:	80 37       	cpi	r24, 0x70	; 112
    4112:	19 f0       	breq	.+6      	; 0x411a <vfprintf+0x242>
    4114:	88 37       	cpi	r24, 0x78	; 120
    4116:	21 f0       	breq	.+8      	; 0x4120 <vfprintf+0x248>
    4118:	a9 c0       	rjmp	.+338    	; 0x426c <vfprintf+0x394>
    411a:	e9 2f       	mov	r30, r25
    411c:	e0 61       	ori	r30, 0x10	; 16
    411e:	be 2e       	mov	r11, r30
    4120:	b4 fe       	sbrs	r11, 4
    4122:	0d c0       	rjmp	.+26     	; 0x413e <vfprintf+0x266>
    4124:	fb 2d       	mov	r31, r11
    4126:	f4 60       	ori	r31, 0x04	; 4
    4128:	bf 2e       	mov	r11, r31
    412a:	09 c0       	rjmp	.+18     	; 0x413e <vfprintf+0x266>
    412c:	34 fe       	sbrs	r3, 4
    412e:	0a c0       	rjmp	.+20     	; 0x4144 <vfprintf+0x26c>
    4130:	29 2f       	mov	r18, r25
    4132:	26 60       	ori	r18, 0x06	; 6
    4134:	b2 2e       	mov	r11, r18
    4136:	06 c0       	rjmp	.+12     	; 0x4144 <vfprintf+0x26c>
    4138:	28 e0       	ldi	r18, 0x08	; 8
    413a:	30 e0       	ldi	r19, 0x00	; 0
    413c:	05 c0       	rjmp	.+10     	; 0x4148 <vfprintf+0x270>
    413e:	20 e1       	ldi	r18, 0x10	; 16
    4140:	30 e0       	ldi	r19, 0x00	; 0
    4142:	02 c0       	rjmp	.+4      	; 0x4148 <vfprintf+0x270>
    4144:	20 e1       	ldi	r18, 0x10	; 16
    4146:	32 e0       	ldi	r19, 0x02	; 2
    4148:	f8 01       	movw	r30, r16
    414a:	b7 fe       	sbrs	r11, 7
    414c:	07 c0       	rjmp	.+14     	; 0x415c <vfprintf+0x284>
    414e:	60 81       	ld	r22, Z
    4150:	71 81       	ldd	r23, Z+1	; 0x01
    4152:	82 81       	ldd	r24, Z+2	; 0x02
    4154:	93 81       	ldd	r25, Z+3	; 0x03
    4156:	0c 5f       	subi	r16, 0xFC	; 252
    4158:	1f 4f       	sbci	r17, 0xFF	; 255
    415a:	06 c0       	rjmp	.+12     	; 0x4168 <vfprintf+0x290>
    415c:	60 81       	ld	r22, Z
    415e:	71 81       	ldd	r23, Z+1	; 0x01
    4160:	80 e0       	ldi	r24, 0x00	; 0
    4162:	90 e0       	ldi	r25, 0x00	; 0
    4164:	0e 5f       	subi	r16, 0xFE	; 254
    4166:	1f 4f       	sbci	r17, 0xFF	; 255
    4168:	a3 01       	movw	r20, r6
    416a:	db d0       	rcall	.+438    	; 0x4322 <__ultoa_invert>
    416c:	88 2e       	mov	r8, r24
    416e:	86 18       	sub	r8, r6
    4170:	fb 2d       	mov	r31, r11
    4172:	ff 77       	andi	r31, 0x7F	; 127
    4174:	3f 2e       	mov	r3, r31
    4176:	36 fe       	sbrs	r3, 6
    4178:	0d c0       	rjmp	.+26     	; 0x4194 <vfprintf+0x2bc>
    417a:	23 2d       	mov	r18, r3
    417c:	2e 7f       	andi	r18, 0xFE	; 254
    417e:	a2 2e       	mov	r10, r18
    4180:	89 14       	cp	r8, r9
    4182:	58 f4       	brcc	.+22     	; 0x419a <vfprintf+0x2c2>
    4184:	34 fe       	sbrs	r3, 4
    4186:	0b c0       	rjmp	.+22     	; 0x419e <vfprintf+0x2c6>
    4188:	32 fc       	sbrc	r3, 2
    418a:	09 c0       	rjmp	.+18     	; 0x419e <vfprintf+0x2c6>
    418c:	83 2d       	mov	r24, r3
    418e:	8e 7e       	andi	r24, 0xEE	; 238
    4190:	a8 2e       	mov	r10, r24
    4192:	05 c0       	rjmp	.+10     	; 0x419e <vfprintf+0x2c6>
    4194:	b8 2c       	mov	r11, r8
    4196:	a3 2c       	mov	r10, r3
    4198:	03 c0       	rjmp	.+6      	; 0x41a0 <vfprintf+0x2c8>
    419a:	b8 2c       	mov	r11, r8
    419c:	01 c0       	rjmp	.+2      	; 0x41a0 <vfprintf+0x2c8>
    419e:	b9 2c       	mov	r11, r9
    41a0:	a4 fe       	sbrs	r10, 4
    41a2:	0f c0       	rjmp	.+30     	; 0x41c2 <vfprintf+0x2ea>
    41a4:	fe 01       	movw	r30, r28
    41a6:	e8 0d       	add	r30, r8
    41a8:	f1 1d       	adc	r31, r1
    41aa:	80 81       	ld	r24, Z
    41ac:	80 33       	cpi	r24, 0x30	; 48
    41ae:	21 f4       	brne	.+8      	; 0x41b8 <vfprintf+0x2e0>
    41b0:	9a 2d       	mov	r25, r10
    41b2:	99 7e       	andi	r25, 0xE9	; 233
    41b4:	a9 2e       	mov	r10, r25
    41b6:	09 c0       	rjmp	.+18     	; 0x41ca <vfprintf+0x2f2>
    41b8:	a2 fe       	sbrs	r10, 2
    41ba:	06 c0       	rjmp	.+12     	; 0x41c8 <vfprintf+0x2f0>
    41bc:	b3 94       	inc	r11
    41be:	b3 94       	inc	r11
    41c0:	04 c0       	rjmp	.+8      	; 0x41ca <vfprintf+0x2f2>
    41c2:	8a 2d       	mov	r24, r10
    41c4:	86 78       	andi	r24, 0x86	; 134
    41c6:	09 f0       	breq	.+2      	; 0x41ca <vfprintf+0x2f2>
    41c8:	b3 94       	inc	r11
    41ca:	a3 fc       	sbrc	r10, 3
    41cc:	10 c0       	rjmp	.+32     	; 0x41ee <vfprintf+0x316>
    41ce:	a0 fe       	sbrs	r10, 0
    41d0:	06 c0       	rjmp	.+12     	; 0x41de <vfprintf+0x306>
    41d2:	b2 14       	cp	r11, r2
    41d4:	80 f4       	brcc	.+32     	; 0x41f6 <vfprintf+0x31e>
    41d6:	28 0c       	add	r2, r8
    41d8:	92 2c       	mov	r9, r2
    41da:	9b 18       	sub	r9, r11
    41dc:	0d c0       	rjmp	.+26     	; 0x41f8 <vfprintf+0x320>
    41de:	b2 14       	cp	r11, r2
    41e0:	58 f4       	brcc	.+22     	; 0x41f8 <vfprintf+0x320>
    41e2:	b6 01       	movw	r22, r12
    41e4:	80 e2       	ldi	r24, 0x20	; 32
    41e6:	90 e0       	ldi	r25, 0x00	; 0
    41e8:	60 d0       	rcall	.+192    	; 0x42aa <fputc>
    41ea:	b3 94       	inc	r11
    41ec:	f8 cf       	rjmp	.-16     	; 0x41de <vfprintf+0x306>
    41ee:	b2 14       	cp	r11, r2
    41f0:	18 f4       	brcc	.+6      	; 0x41f8 <vfprintf+0x320>
    41f2:	2b 18       	sub	r2, r11
    41f4:	02 c0       	rjmp	.+4      	; 0x41fa <vfprintf+0x322>
    41f6:	98 2c       	mov	r9, r8
    41f8:	21 2c       	mov	r2, r1
    41fa:	a4 fe       	sbrs	r10, 4
    41fc:	0f c0       	rjmp	.+30     	; 0x421c <vfprintf+0x344>
    41fe:	b6 01       	movw	r22, r12
    4200:	80 e3       	ldi	r24, 0x30	; 48
    4202:	90 e0       	ldi	r25, 0x00	; 0
    4204:	52 d0       	rcall	.+164    	; 0x42aa <fputc>
    4206:	a2 fe       	sbrs	r10, 2
    4208:	16 c0       	rjmp	.+44     	; 0x4236 <vfprintf+0x35e>
    420a:	a1 fc       	sbrc	r10, 1
    420c:	03 c0       	rjmp	.+6      	; 0x4214 <vfprintf+0x33c>
    420e:	88 e7       	ldi	r24, 0x78	; 120
    4210:	90 e0       	ldi	r25, 0x00	; 0
    4212:	02 c0       	rjmp	.+4      	; 0x4218 <vfprintf+0x340>
    4214:	88 e5       	ldi	r24, 0x58	; 88
    4216:	90 e0       	ldi	r25, 0x00	; 0
    4218:	b6 01       	movw	r22, r12
    421a:	0c c0       	rjmp	.+24     	; 0x4234 <vfprintf+0x35c>
    421c:	8a 2d       	mov	r24, r10
    421e:	86 78       	andi	r24, 0x86	; 134
    4220:	51 f0       	breq	.+20     	; 0x4236 <vfprintf+0x35e>
    4222:	a1 fe       	sbrs	r10, 1
    4224:	02 c0       	rjmp	.+4      	; 0x422a <vfprintf+0x352>
    4226:	8b e2       	ldi	r24, 0x2B	; 43
    4228:	01 c0       	rjmp	.+2      	; 0x422c <vfprintf+0x354>
    422a:	80 e2       	ldi	r24, 0x20	; 32
    422c:	a7 fc       	sbrc	r10, 7
    422e:	8d e2       	ldi	r24, 0x2D	; 45
    4230:	b6 01       	movw	r22, r12
    4232:	90 e0       	ldi	r25, 0x00	; 0
    4234:	3a d0       	rcall	.+116    	; 0x42aa <fputc>
    4236:	89 14       	cp	r8, r9
    4238:	30 f4       	brcc	.+12     	; 0x4246 <vfprintf+0x36e>
    423a:	b6 01       	movw	r22, r12
    423c:	80 e3       	ldi	r24, 0x30	; 48
    423e:	90 e0       	ldi	r25, 0x00	; 0
    4240:	34 d0       	rcall	.+104    	; 0x42aa <fputc>
    4242:	9a 94       	dec	r9
    4244:	f8 cf       	rjmp	.-16     	; 0x4236 <vfprintf+0x35e>
    4246:	8a 94       	dec	r8
    4248:	f3 01       	movw	r30, r6
    424a:	e8 0d       	add	r30, r8
    424c:	f1 1d       	adc	r31, r1
    424e:	80 81       	ld	r24, Z
    4250:	b6 01       	movw	r22, r12
    4252:	90 e0       	ldi	r25, 0x00	; 0
    4254:	2a d0       	rcall	.+84     	; 0x42aa <fputc>
    4256:	81 10       	cpse	r8, r1
    4258:	f6 cf       	rjmp	.-20     	; 0x4246 <vfprintf+0x36e>
    425a:	22 20       	and	r2, r2
    425c:	09 f4       	brne	.+2      	; 0x4260 <vfprintf+0x388>
    425e:	4d ce       	rjmp	.-870    	; 0x3efa <vfprintf+0x22>
    4260:	b6 01       	movw	r22, r12
    4262:	80 e2       	ldi	r24, 0x20	; 32
    4264:	90 e0       	ldi	r25, 0x00	; 0
    4266:	21 d0       	rcall	.+66     	; 0x42aa <fputc>
    4268:	2a 94       	dec	r2
    426a:	f7 cf       	rjmp	.-18     	; 0x425a <vfprintf+0x382>
    426c:	f6 01       	movw	r30, r12
    426e:	86 81       	ldd	r24, Z+6	; 0x06
    4270:	97 81       	ldd	r25, Z+7	; 0x07
    4272:	02 c0       	rjmp	.+4      	; 0x4278 <vfprintf+0x3a0>
    4274:	8f ef       	ldi	r24, 0xFF	; 255
    4276:	9f ef       	ldi	r25, 0xFF	; 255
    4278:	2b 96       	adiw	r28, 0x0b	; 11
    427a:	e2 e1       	ldi	r30, 0x12	; 18
    427c:	f5 c0       	rjmp	.+490    	; 0x4468 <__epilogue_restores__>

0000427e <strnlen_P>:
    427e:	fc 01       	movw	r30, r24
    4280:	05 90       	lpm	r0, Z+
    4282:	61 50       	subi	r22, 0x01	; 1
    4284:	70 40       	sbci	r23, 0x00	; 0
    4286:	01 10       	cpse	r0, r1
    4288:	d8 f7       	brcc	.-10     	; 0x4280 <strnlen_P+0x2>
    428a:	80 95       	com	r24
    428c:	90 95       	com	r25
    428e:	8e 0f       	add	r24, r30
    4290:	9f 1f       	adc	r25, r31
    4292:	08 95       	ret

00004294 <strnlen>:
    4294:	fc 01       	movw	r30, r24
    4296:	61 50       	subi	r22, 0x01	; 1
    4298:	70 40       	sbci	r23, 0x00	; 0
    429a:	01 90       	ld	r0, Z+
    429c:	01 10       	cpse	r0, r1
    429e:	d8 f7       	brcc	.-10     	; 0x4296 <strnlen+0x2>
    42a0:	80 95       	com	r24
    42a2:	90 95       	com	r25
    42a4:	8e 0f       	add	r24, r30
    42a6:	9f 1f       	adc	r25, r31
    42a8:	08 95       	ret

000042aa <fputc>:
    42aa:	0f 93       	push	r16
    42ac:	1f 93       	push	r17
    42ae:	cf 93       	push	r28
    42b0:	df 93       	push	r29
    42b2:	fb 01       	movw	r30, r22
    42b4:	23 81       	ldd	r18, Z+3	; 0x03
    42b6:	21 fd       	sbrc	r18, 1
    42b8:	03 c0       	rjmp	.+6      	; 0x42c0 <fputc+0x16>
    42ba:	8f ef       	ldi	r24, 0xFF	; 255
    42bc:	9f ef       	ldi	r25, 0xFF	; 255
    42be:	2c c0       	rjmp	.+88     	; 0x4318 <fputc+0x6e>
    42c0:	22 ff       	sbrs	r18, 2
    42c2:	16 c0       	rjmp	.+44     	; 0x42f0 <fputc+0x46>
    42c4:	46 81       	ldd	r20, Z+6	; 0x06
    42c6:	57 81       	ldd	r21, Z+7	; 0x07
    42c8:	24 81       	ldd	r18, Z+4	; 0x04
    42ca:	35 81       	ldd	r19, Z+5	; 0x05
    42cc:	42 17       	cp	r20, r18
    42ce:	53 07       	cpc	r21, r19
    42d0:	44 f4       	brge	.+16     	; 0x42e2 <fputc+0x38>
    42d2:	a0 81       	ld	r26, Z
    42d4:	b1 81       	ldd	r27, Z+1	; 0x01
    42d6:	9d 01       	movw	r18, r26
    42d8:	2f 5f       	subi	r18, 0xFF	; 255
    42da:	3f 4f       	sbci	r19, 0xFF	; 255
    42dc:	31 83       	std	Z+1, r19	; 0x01
    42de:	20 83       	st	Z, r18
    42e0:	8c 93       	st	X, r24
    42e2:	26 81       	ldd	r18, Z+6	; 0x06
    42e4:	37 81       	ldd	r19, Z+7	; 0x07
    42e6:	2f 5f       	subi	r18, 0xFF	; 255
    42e8:	3f 4f       	sbci	r19, 0xFF	; 255
    42ea:	37 83       	std	Z+7, r19	; 0x07
    42ec:	26 83       	std	Z+6, r18	; 0x06
    42ee:	14 c0       	rjmp	.+40     	; 0x4318 <fputc+0x6e>
    42f0:	8b 01       	movw	r16, r22
    42f2:	ec 01       	movw	r28, r24
    42f4:	fb 01       	movw	r30, r22
    42f6:	00 84       	ldd	r0, Z+8	; 0x08
    42f8:	f1 85       	ldd	r31, Z+9	; 0x09
    42fa:	e0 2d       	mov	r30, r0
    42fc:	09 95       	icall
    42fe:	89 2b       	or	r24, r25
    4300:	e1 f6       	brne	.-72     	; 0x42ba <fputc+0x10>
    4302:	d8 01       	movw	r26, r16
    4304:	16 96       	adiw	r26, 0x06	; 6
    4306:	8d 91       	ld	r24, X+
    4308:	9c 91       	ld	r25, X
    430a:	17 97       	sbiw	r26, 0x07	; 7
    430c:	01 96       	adiw	r24, 0x01	; 1
    430e:	17 96       	adiw	r26, 0x07	; 7
    4310:	9c 93       	st	X, r25
    4312:	8e 93       	st	-X, r24
    4314:	16 97       	sbiw	r26, 0x06	; 6
    4316:	ce 01       	movw	r24, r28
    4318:	df 91       	pop	r29
    431a:	cf 91       	pop	r28
    431c:	1f 91       	pop	r17
    431e:	0f 91       	pop	r16
    4320:	08 95       	ret

00004322 <__ultoa_invert>:
    4322:	fa 01       	movw	r30, r20
    4324:	aa 27       	eor	r26, r26
    4326:	28 30       	cpi	r18, 0x08	; 8
    4328:	61 f1       	breq	.+88     	; 0x4382 <__ultoa_invert+0x60>
    432a:	20 31       	cpi	r18, 0x10	; 16
    432c:	91 f1       	breq	.+100    	; 0x4392 <__ultoa_invert+0x70>
    432e:	e8 94       	clt
    4330:	6f 93       	push	r22
    4332:	6e 7f       	andi	r22, 0xFE	; 254
    4334:	6e 5f       	subi	r22, 0xFE	; 254
    4336:	7f 4f       	sbci	r23, 0xFF	; 255
    4338:	8f 4f       	sbci	r24, 0xFF	; 255
    433a:	9f 4f       	sbci	r25, 0xFF	; 255
    433c:	af 4f       	sbci	r26, 0xFF	; 255
    433e:	b1 e0       	ldi	r27, 0x01	; 1
    4340:	40 d0       	rcall	.+128    	; 0x43c2 <__ultoa_invert+0xa0>
    4342:	b4 e0       	ldi	r27, 0x04	; 4
    4344:	3e d0       	rcall	.+124    	; 0x43c2 <__ultoa_invert+0xa0>
    4346:	67 0f       	add	r22, r23
    4348:	78 1f       	adc	r23, r24
    434a:	89 1f       	adc	r24, r25
    434c:	9a 1f       	adc	r25, r26
    434e:	a1 1d       	adc	r26, r1
    4350:	68 0f       	add	r22, r24
    4352:	79 1f       	adc	r23, r25
    4354:	8a 1f       	adc	r24, r26
    4356:	91 1d       	adc	r25, r1
    4358:	a1 1d       	adc	r26, r1
    435a:	6a 0f       	add	r22, r26
    435c:	71 1d       	adc	r23, r1
    435e:	81 1d       	adc	r24, r1
    4360:	91 1d       	adc	r25, r1
    4362:	a1 1d       	adc	r26, r1
    4364:	22 d0       	rcall	.+68     	; 0x43aa <__ultoa_invert+0x88>
    4366:	09 f4       	brne	.+2      	; 0x436a <__ultoa_invert+0x48>
    4368:	68 94       	set
    436a:	3f 91       	pop	r19
    436c:	06 2e       	mov	r0, r22
    436e:	00 0c       	add	r0, r0
    4370:	30 19       	sub	r19, r0
    4372:	00 0c       	add	r0, r0
    4374:	00 0c       	add	r0, r0
    4376:	30 19       	sub	r19, r0
    4378:	30 5d       	subi	r19, 0xD0	; 208
    437a:	31 93       	st	Z+, r19
    437c:	ce f6       	brtc	.-78     	; 0x4330 <__ultoa_invert+0xe>
    437e:	cf 01       	movw	r24, r30
    4380:	08 95       	ret
    4382:	46 2f       	mov	r20, r22
    4384:	47 70       	andi	r20, 0x07	; 7
    4386:	40 5d       	subi	r20, 0xD0	; 208
    4388:	41 93       	st	Z+, r20
    438a:	b3 e0       	ldi	r27, 0x03	; 3
    438c:	0f d0       	rcall	.+30     	; 0x43ac <__ultoa_invert+0x8a>
    438e:	c9 f7       	brne	.-14     	; 0x4382 <__ultoa_invert+0x60>
    4390:	f6 cf       	rjmp	.-20     	; 0x437e <__ultoa_invert+0x5c>
    4392:	46 2f       	mov	r20, r22
    4394:	4f 70       	andi	r20, 0x0F	; 15
    4396:	40 5d       	subi	r20, 0xD0	; 208
    4398:	4a 33       	cpi	r20, 0x3A	; 58
    439a:	18 f0       	brcs	.+6      	; 0x43a2 <__ultoa_invert+0x80>
    439c:	49 5d       	subi	r20, 0xD9	; 217
    439e:	31 fd       	sbrc	r19, 1
    43a0:	40 52       	subi	r20, 0x20	; 32
    43a2:	41 93       	st	Z+, r20
    43a4:	02 d0       	rcall	.+4      	; 0x43aa <__ultoa_invert+0x88>
    43a6:	a9 f7       	brne	.-22     	; 0x4392 <__ultoa_invert+0x70>
    43a8:	ea cf       	rjmp	.-44     	; 0x437e <__ultoa_invert+0x5c>
    43aa:	b4 e0       	ldi	r27, 0x04	; 4
    43ac:	a6 95       	lsr	r26
    43ae:	97 95       	ror	r25
    43b0:	87 95       	ror	r24
    43b2:	77 95       	ror	r23
    43b4:	67 95       	ror	r22
    43b6:	ba 95       	dec	r27
    43b8:	c9 f7       	brne	.-14     	; 0x43ac <__ultoa_invert+0x8a>
    43ba:	00 97       	sbiw	r24, 0x00	; 0
    43bc:	61 05       	cpc	r22, r1
    43be:	71 05       	cpc	r23, r1
    43c0:	08 95       	ret
    43c2:	9b 01       	movw	r18, r22
    43c4:	ac 01       	movw	r20, r24
    43c6:	0a 2e       	mov	r0, r26
    43c8:	06 94       	lsr	r0
    43ca:	57 95       	ror	r21
    43cc:	47 95       	ror	r20
    43ce:	37 95       	ror	r19
    43d0:	27 95       	ror	r18
    43d2:	ba 95       	dec	r27
    43d4:	c9 f7       	brne	.-14     	; 0x43c8 <__ultoa_invert+0xa6>
    43d6:	62 0f       	add	r22, r18
    43d8:	73 1f       	adc	r23, r19
    43da:	84 1f       	adc	r24, r20
    43dc:	95 1f       	adc	r25, r21
    43de:	a0 1d       	adc	r26, r0
    43e0:	08 95       	ret

000043e2 <eeprom_read_byte>:
    43e2:	f9 99       	sbic	0x1f, 1	; 31
    43e4:	fe cf       	rjmp	.-4      	; 0x43e2 <eeprom_read_byte>
    43e6:	92 bd       	out	0x22, r25	; 34
    43e8:	81 bd       	out	0x21, r24	; 33
    43ea:	f8 9a       	sbi	0x1f, 0	; 31
    43ec:	99 27       	eor	r25, r25
    43ee:	80 b5       	in	r24, 0x20	; 32
    43f0:	08 95       	ret

000043f2 <eeprom_update_byte>:
    43f2:	26 2f       	mov	r18, r22

000043f4 <eeprom_update_r18>:
    43f4:	f9 99       	sbic	0x1f, 1	; 31
    43f6:	fe cf       	rjmp	.-4      	; 0x43f4 <eeprom_update_r18>
    43f8:	92 bd       	out	0x22, r25	; 34
    43fa:	81 bd       	out	0x21, r24	; 33
    43fc:	f8 9a       	sbi	0x1f, 0	; 31
    43fe:	01 97       	sbiw	r24, 0x01	; 1
    4400:	00 b4       	in	r0, 0x20	; 32
    4402:	02 16       	cp	r0, r18
    4404:	39 f0       	breq	.+14     	; 0x4414 <eeprom_update_r18+0x20>
    4406:	1f ba       	out	0x1f, r1	; 31
    4408:	20 bd       	out	0x20, r18	; 32
    440a:	0f b6       	in	r0, 0x3f	; 63
    440c:	f8 94       	cli
    440e:	fa 9a       	sbi	0x1f, 2	; 31
    4410:	f9 9a       	sbi	0x1f, 1	; 31
    4412:	0f be       	out	0x3f, r0	; 63
    4414:	08 95       	ret

00004416 <eeprom_update_word>:
    4416:	01 96       	adiw	r24, 0x01	; 1
    4418:	27 2f       	mov	r18, r23
    441a:	ec df       	rcall	.-40     	; 0x43f4 <eeprom_update_r18>
    441c:	ea cf       	rjmp	.-44     	; 0x43f2 <eeprom_update_byte>

0000441e <__mulqi3>:
    441e:	00 24       	eor	r0, r0

00004420 <__mulqi3_loop>:
    4420:	80 fd       	sbrc	r24, 0
    4422:	06 0e       	add	r0, r22
    4424:	66 0f       	add	r22, r22
    4426:	11 f0       	breq	.+4      	; 0x442c <__mulqi3_exit>
    4428:	86 95       	lsr	r24
    442a:	d1 f7       	brne	.-12     	; 0x4420 <__mulqi3_loop>

0000442c <__mulqi3_exit>:
    442c:	80 2d       	mov	r24, r0
    442e:	08 95       	ret

00004430 <__prologue_saves__>:
    4430:	2f 92       	push	r2
    4432:	3f 92       	push	r3
    4434:	4f 92       	push	r4
    4436:	5f 92       	push	r5
    4438:	6f 92       	push	r6
    443a:	7f 92       	push	r7
    443c:	8f 92       	push	r8
    443e:	9f 92       	push	r9
    4440:	af 92       	push	r10
    4442:	bf 92       	push	r11
    4444:	cf 92       	push	r12
    4446:	df 92       	push	r13
    4448:	ef 92       	push	r14
    444a:	ff 92       	push	r15
    444c:	0f 93       	push	r16
    444e:	1f 93       	push	r17
    4450:	cf 93       	push	r28
    4452:	df 93       	push	r29
    4454:	cd b7       	in	r28, 0x3d	; 61
    4456:	de b7       	in	r29, 0x3e	; 62
    4458:	ca 1b       	sub	r28, r26
    445a:	db 0b       	sbc	r29, r27
    445c:	0f b6       	in	r0, 0x3f	; 63
    445e:	f8 94       	cli
    4460:	de bf       	out	0x3e, r29	; 62
    4462:	0f be       	out	0x3f, r0	; 63
    4464:	cd bf       	out	0x3d, r28	; 61
    4466:	09 94       	ijmp

00004468 <__epilogue_restores__>:
    4468:	2a 88       	ldd	r2, Y+18	; 0x12
    446a:	39 88       	ldd	r3, Y+17	; 0x11
    446c:	48 88       	ldd	r4, Y+16	; 0x10
    446e:	5f 84       	ldd	r5, Y+15	; 0x0f
    4470:	6e 84       	ldd	r6, Y+14	; 0x0e
    4472:	7d 84       	ldd	r7, Y+13	; 0x0d
    4474:	8c 84       	ldd	r8, Y+12	; 0x0c
    4476:	9b 84       	ldd	r9, Y+11	; 0x0b
    4478:	aa 84       	ldd	r10, Y+10	; 0x0a
    447a:	b9 84       	ldd	r11, Y+9	; 0x09
    447c:	c8 84       	ldd	r12, Y+8	; 0x08
    447e:	df 80       	ldd	r13, Y+7	; 0x07
    4480:	ee 80       	ldd	r14, Y+6	; 0x06
    4482:	fd 80       	ldd	r15, Y+5	; 0x05
    4484:	0c 81       	ldd	r16, Y+4	; 0x04
    4486:	1b 81       	ldd	r17, Y+3	; 0x03
    4488:	aa 81       	ldd	r26, Y+2	; 0x02
    448a:	b9 81       	ldd	r27, Y+1	; 0x01
    448c:	ce 0f       	add	r28, r30
    448e:	d1 1d       	adc	r29, r1
    4490:	0f b6       	in	r0, 0x3f	; 63
    4492:	f8 94       	cli
    4494:	de bf       	out	0x3e, r29	; 62
    4496:	0f be       	out	0x3f, r0	; 63
    4498:	cd bf       	out	0x3d, r28	; 61
    449a:	ed 01       	movw	r28, r26
    449c:	08 95       	ret

0000449e <_exit>:
    449e:	f8 94       	cli

000044a0 <__stop_program>:
    44a0:	ff cf       	rjmp	.-2      	; 0x44a0 <__stop_program>
